Microsoft (R) Macro Assembler Version 12.00.31101.0	    01/07/16 10:06:26
Atlantis.asm						     Page 1 - 1


				;	Version 3


					INCLUDE	Irvine32.inc
			      C ; Include file for Irvine32.lib             (Irvine32.inc)
			      C 
			      C ;OPTION CASEMAP:NONE		; optional: make identifiers case-sensitive
			      C 
			      C INCLUDE SmallWin.inc		; MS-Windows prototypes, structures, and constants
			      C .NOLIST
			      C .LIST
			      C 
			      C INCLUDE VirtualKeys.inc
			      C ; VirtualKeys.inc
			      C .NOLIST
			      C .LIST
			      C 
			      C 
			      C .NOLIST
			      C .LIST
			      C 
					INCLUDE	Helpers.inc
			      C ;	Version 3
 00000000		      C .Data
 00000000 00		      C 	LastPointX	BYTE 0
 00000001 00		      C 	LastPointY	BYTE 0
 00000002 00		      C 	CurrentPointX	BYTE 0
 00000003 00		      C 	CurrentPointY	BYTE 0
			      C 
			      C 	LoopTimes	MACRO	Times
			      C 		MOV 	ECX,	Times
			      C 		ENDM
			      C 	TranslatePrevious	MACRO
			      C 		MOV  	dl, LastPointX
			      C 		MOV  	dh, LastPointY
			      C 		MOV 	CurrentPointX,	dl
			      C 		MOV 	CurrentPointY,	dh
			      C 		CALL 	Gotoxy 
			      C 		ENDM
			      C 	Translate	MACRO X, Y
			      C 		MOV  	dl, CurrentPointX
			      C 		MOV  	dh, CurrentPointY
			      C 		MOV		LastPointX,	dl
			      C 		MOV 	LastPointY,	dh
			      C 		MOV  	dl, BYTE PTR X
			      C 		MOV  	dh, BYTE PTR Y
			      C 		MOV 	CurrentPointX,	dl
			      C 		MOV 	CurrentPointY,	dh
			      C 		CALL 	Gotoxy  
			      C 		ENDM
			      C 	TranslateOnce	MACRO X, Y
			      C 		PUSHAD
			      C 			MOV  	dl, BYTE PTR X
			      C 			MOV  	dh, BYTE PTR Y
			      C 			CALL 	Gotoxy  
			      C 		POPAD
			      C 		ENDM
			      C 	;Position 	MACRO X, Y
			      C 	;	MOV 	EAX,	EDX
			      C 	;	MOV  	 DL, 	X
			      C 	;	MOV  	 DH, 	Y 
			      C 	;	CALL 	Gotoxy
			      C 	;	MOV 	EDX,	EAX
			      C 	;	ENDM
			      C 	;PrintAt  	MACRO X, Y, Code
			      C 	;	PUSH	EAX
			      C 	;		MOV 	EAX,	EDX
			      C 	;		ADD  	 DL, BYTE PTR X
			      C 	;		ADD  	 DH, BYTE PTR Y 
			      C 	;		CALL 	Gotoxy
			      C 	;		MOV 	EDX,	EAX
			      C 	;	POP		EAX
			      C 	;	Write   Code
			      C 	;	ENDM
			      C 	;PrintAtCoord  	MACRO Coord, Index, Code
			      C 	;	PUSH	EAX
			      C 	;		MOV 	EAX,	EDX
			      C 	;		ADD  	 DL, BYTE PTR Coord[Index*4].X
			      C 	;		ADD  	 DH, BYTE PTR Coord[Index*4].Y 
			      C 	;		CALL 	Gotoxy
			      C 	;		MOV 	EDX,	EAX
			      C 	;	POP		EAX
			      C 	;	Write   Code
			      C 	;	ENDM
			      C 	DecAtCoord  	MACRO CoordX, CoordY, Dec
			      C 		PUSH	EAX
			      C 			MOV 	EAX,	EDX
			      C 			MOV  	 DL, BYTE PTR CoordX
			      C 			MOV  	 DH, BYTE PTR CoordY
			      C 			CALL 	Gotoxy
			      C 			MOV 	EDX,	EAX
			      C 		POP		EAX
			      C 		WriteD  Dec
			      C 		;MOV EAX, Dec
			      C 		;.IF	Dec < 10
			      C 		;	WriteD  0
			      C 		;	WriteD  Dec
			      C 		;.ELSE
			      C 		;	WriteD 	Dec
			      C 		;.ENDIF
			      C 		ENDM
			      C 	;WriteDAtCoord 	MACRO Coord, Dec
			      C 	;		PUSH	EAX
			      C 	;		MOV 	EAX,	EDX
			      C 	;		ADD  	 DL, BYTE PTR Coord.X
			      C 	;		ADD  	 DH, BYTE PTR Coord.Y 
			      C 	;		CALL 	Gotoxy
			      C 	;		MOV 	EDX,	EAX
			      C 	;	POP		EAX
			      C 	;	MOV EAX, Dec
			      C 	;	.IF	EAX < 10
			      C 	;		WriteD  0
			      C 	;		WriteD  Dec
			      C 	;	.ELSE
			      C 	;		WriteD 	Dec
			      C 	;	.ENDIF
			      C 	;	ENDM
			      C ;
			      C 	WriteSAtCoord 	MACRO CoordX,	CoordY, String
			      C ;
			      C 		PUSH EAX
			      C 		PUSH ECX
			      C 		PUSH ESI
			      C ;
			      C 			MOV 	EAX,	EDX
			      C 			MOV  	 DL, BYTE PTR CoordX
			      C 			MOV  	 DH, BYTE PTR CoordY 
			      C 			CALL 	Gotoxy
			      C 			MOV 	EDX,	EAX
			      C ;
			      C 			MOV EDX, String
			      C 			CALL WriteString
			      C ;
			      C 		POP EAX
			      C 		POP ECX
			      C 		POP ESI
			      C ;
			      C 		ENDM
			      C 	WriteSAtCenter	MACRO	Center,		Top,	String
			      C 
			      C 		MOV 	ECX,	Center
			      C 		MOV 	EBX,	SIZEOF String
			      C 		SHR		EBX,	1
			      C 		SUB 	ECX,	EBX
			      C 		MOV 	SetterBuffer,	ECX
			      C 
			      C 
			      C 		WriteSAtCoord 	SetterBuffer,	Top, OFFSET String
			      C 		ENDM
			      C 
			      C 	SettingColor MACRO Color
			      C 		.IF( ClearOn == 0)
			      C 			PUSH 	EAX
			      C 				MOV 	EAX, Color
			      C 				CALL	SetTextColor
			      C 			POP 	EAX
			      C 		.ENDIF
			      C 		ENDM
			      C 	DefaultColor MACRO
			      C 		.IF( ClearOn == 0)
			      C 			PUSH 	EAX
			      C 				MOV 	EAX, 00000111b
			      C 				CALL	SetTextColor
			      C 			POP 	EAX
			      C 		.ENDIF
			      C 		ENDM
			      C 	Write 		MACRO Code
			      C 		PUSH 	EAX
			      C 			MOV 	EAX,	Code
			      C 			CALL 	WriteChar
			      C 		POP 	EAX
			      C 		ENDM
			      C 	WriteD 		MACRO Dec
			      C 		PUSH 	EAX
			      C 			MOV 	EAX,	Dec
			      C 			CALL 	WriteDec
			      C 		POP 	EAX
			      C 		ENDM
			      C 	WriteI 		MACRO Int
			      C 		PUSH 	EAX
			      C 			MOV 	EAX,	Int
			      C 			CALL 	WriteInt
			      C 		POP 	EAX
			      C 		ENDM
			      C 	WriteH 		MACRO Hex
			      C 		PUSH 	EAX
			      C 			MOV 	EAX,	Hex
			      C 			CALL 	WriteHex
			      C 		POP 	EAX
			      C 		ENDM
			      C 	WriteS 		MACRO String
			      C 		PUSH EDX
			      C 		PUSH ECX
			      C 		PUSH ESI
			      C 
			      C 			MOV EDX, OFFSET String
			      C 			CALL WriteString
			      C 
			      C 		POP ECX
			      C 		POP ECX
			      C 		POP ESI
			      C 		ENDM
			      C 	WriteSAddr	MACRO String
			      C 		PUSH EDX
			      C 		PUSH ECX
			      C 		PUSH ESI
			      C 
			      C 			MOV EDX, String
			      C 			CALL WriteString
			      C 
			      C 		POP ECX
			      C 		POP ECX
			      C 		POP ESI
			      C 		ENDM
			      C 
			      C 	NEXT		MACRO 	WHERE
			      C 		DEC ECX
			      C 		JNZ WHERE
			      C 		ENDM
			      C 	NEXTINC		MACRO 	LIMIT, WHERE
			      C 		INC ECX
			      C 		CMP ECX, LIMIT
			      C 		JL WHERE
			      C 		ENDM
			      C 
			      C 
			      C 	PauseTime MACRO Timer
			      C 		PUSH 	EAX
			      C 		MOV 	EAX, Timer
			      C 		CALL 	Delay
			      C 		POP 	EAX
			      C 		ENDM
			      C 	ReadI	  MACRO StoreTo
			      C 		PUSH 	EAX
			      C 		CALL 	ReadInt
			      C 		MOV 	StoreTo, EAX
			      C 		POP 	EAX
			      C 		ENDM
			      C 	ReadS 	  MACRO InputHandler
			      C 		PUSH ECX
			      C 		PUSH EDX
			      C 			MOV EDX, OFFSET InputHandler
			      C 			MOV ECX, (SIZEOF InputHandler)-1
			      C 			CALL ReadString
			      C 		POP ECX
			      C 		POP EDX
			      C 	ENDM
			      C 	Random 	  MACRO Range, Output
			      C 		PUSH EAX
			      C 		CALL 	Randomize
			      C 		MOV  	EAX, Range
			      C 		CALL 	RandomRange 
			      C 		MOV  	Output, EAX
			      C 		POP EAX
			      C 	ENDM
			      C 	AnyKeyToContinue MACRO
			      C 		PUSH EAX
			      C 			CALL ReadChar
			      C 		POP  EAX
			      C 	ENDM
			      C 	CopyFrom MACRO A, B
			      C 		PUSH EAX
			      C 			MOV EAX, B
			      C 			MOV A, 	EAX
			      C 		POP EAX
			      C 	ENDM
			      C 	CopyAddrFrom MACRO A, B
			      C 		PUSHA
			      C 			LEA  ESI,  B
			      C 			MOV  A, ESI
			      C 		POPA
			      C 	ENDM
			      C 	AddBy MACRO A, B
			      C 		PUSH EAX
			      C 			MOV EAX, B
			      C 			ADD A, 	EAX
			      C 		POP EAX
			      C 	ENDM
			      C 	SubBy MACRO A, B
			      C 		PUSH EAX
			      C 			MOV EAX, B
			      C 			SUB A, 	EAX
			      C 		POP EAX
			      C 	ENDM
			      C 	ExitMain MACRO
			      C 		;Translate 20,20
			      C 		;PrintAt 0,0, 20H
			      C 		EXIT
			      C 	ENDM
			      C 
			      C 	CopyStringFrom MACRO A, B
			      C 		PUSH 	ESI
			      C 		PUSH 	EDI
			      C 		PUSH 	ECX
			      C 			MOV		ESI, 0
			      C 			MOV		ESI, 0
			      C 			MOV 	ECX, SIZEOF B
			      C 			MOV 	ESI, OFFSET B
			      C 			MOV 	EDI, OFFSET A
			      C 
			      C 		POP 	ESI
			      C 		POP 	EDI
			      C 		POP 	ECX
			      C 	ENDM
			      C 
			      C 	ResetReg	MACRO
			      C 		MOV EAX, 0h
			      C 		MOV EBX, 0h
			      C 		MOV ECX, 0h
			      C 		MOV EDX, 0h
			      C 		MOV ESI, 0h
			      C 		MOV EDI, 0h
			      C 		ENDM
 = Write 0AH		      C 	NL	 EQU <Write 0AH>
 = CALL DumpRegs	      C 	Dump EQU <CALL DumpRegs>	
 = CALL 	ClrScr	      C 	CLS  EQU <CALL 	ClrScr>	
 = CALL 	ForceCLS      C 	CLSALL  EQU <CALL 	ForceCLS>	
			      C 
			      C 
 00000000		      C .Code
			      C 
 00000000		      C 	ForceCLS  PROC
 00000000  51		      C 		PUSH ECX
			      C 		Translate 0,0	;Gotoxy 0, 0
 00000001  8A 15 00000002 R  1C 		MOV  	dl, CurrentPointX
 00000007  8A 35 00000003 R  1C 		MOV  	dh, CurrentPointY
 0000000D  88 15 00000000 R  1C 		MOV		LastPointX,	dl
 00000013  88 35 00000001 R  1C 		MOV 	LastPointY,	dh
 00000019  B2 00	     1C 		MOV  	dl, BYTE PTR 0
 0000001B  B6 00	     1C 		MOV  	dh, BYTE PTR 0
 0000001D  88 15 00000002 R  1C 		MOV 	CurrentPointX,	dl
 00000023  88 35 00000003 R  1C 		MOV 	CurrentPointY,	dh
 00000029  E8 00000000 E     1C 		CALL 	Gotoxy  
			      C 		LoopTimes 50	;Same AS MOV ECX, 50
 0000002E  B9 00000032	     1C 		MOV 	ECX,	50
			      C 		SettingColor Black ;Set Font Color to Black
 0000003C  50		     1C 			PUSH 	EAX
 0000003D  B8 00000000	     1C 				MOV 	EAX, Black
 00000042  E8 00000000 E     1C 				CALL	SetTextColor
 00000047  58		     1C 			POP 	EAX
 00000048		      C 		NewLine:
 00000048  51		      C 			PUSH ECX
			      C 				LoopTimes 115
 00000049  B9 00000073	     1C 		MOV 	ECX,	115
 0000004E		      C 				BLANKS:
			      C 					Write 020H
 0000004E  50		     1C 		PUSH 	EAX
 0000004F  B8 00000020	     1C 			MOV 	EAX,	020H
 00000054  E8 00000000 E     1C 			CALL 	WriteChar
 00000059  58		     1C 		POP 	EAX
			      C 					; Same As MOV EAX, 020H 
			      C 					; CALL 	WriteChar
 0000005A  E2 F2	      C 					Loop BLANKS
 0000005C  59		      C 			POP  ECX
			      C 			NL ;New Line
 0000005D  50		     1C 		PUSH 	EAX
 0000005E  B8 0000000A	     1C 			MOV 	EAX,	0AH
 00000063  E8 00000000 E     1C 			CALL 	WriteChar
 00000068  58		     1C 		POP 	EAX
 00000069  E2 DD	      C 			Loop NewLine
 0000006B  59		      C 		POP  ECX
			      C 		Translate 0,0 	;Gotoxy 0, 0
 0000006C  8A 15 00000002 R  1C 		MOV  	dl, CurrentPointX
 00000072  8A 35 00000003 R  1C 		MOV  	dh, CurrentPointY
 00000078  88 15 00000000 R  1C 		MOV		LastPointX,	dl
 0000007E  88 35 00000001 R  1C 		MOV 	LastPointY,	dh
 00000084  B2 00	     1C 		MOV  	dl, BYTE PTR 0
 00000086  B6 00	     1C 		MOV  	dh, BYTE PTR 0
 00000088  88 15 00000002 R  1C 		MOV 	CurrentPointX,	dl
 0000008E  88 35 00000003 R  1C 		MOV 	CurrentPointY,	dh
 00000094  E8 00000000 E     1C 		CALL 	Gotoxy  
			      C 		DefaultColor 	;Set Font Color to Default
 000000A2  50		     1C 			PUSH 	EAX
 000000A3  B8 00000007	     1C 				MOV 	EAX, 00000111b
 000000A8  E8 00000000 E     1C 				CALL	SetTextColor
 000000AD  58		     1C 			POP 	EAX
 000000AE  C3		      C 		RET
 000000AF		      C 	ForceCLS ENDP
			      C 
 000000AF		      C 	CoppingString PROC
 000000AF		      C 		CoppingS:
 000000AF  8A 06	      C 			MOV 	AL,	[ESI]
 000000B1  88 07	      C 			MOV 	[EDI], AL
 000000B3  46		      C 	        INC 	ESI
 000000B4  47		      C 	        INC 	EDI
 000000B5  E2 F8	      C 	        LOOP 	CoppingS
 000000B7  C3		      C 	    RET
 000000B8		      C 	CoppingString ENDP
			      C 
 000000B8		      C .Code
			      C 
			      C 	;ArrayShift PROC, 	Array:DWORD,		ArraySize:DWORD
			      C 	;	LoopTimes ArraySize
			      C 	;	MOV ESI, Array
			      C 	;	AS1:
			      C 	;		MOV EAX, 0h
			      C 	;		MOV AL, [ESI]
			      C 	;		CALL WriteChar
			      C 	;		INC ESI
			      C 	;		LOOP AS1
			      C ;
			      C 	;	MOV EAX, Array
			      C 	;	;CALL WriteString
			      C 	;	;DUMP
			      C 	;	SHL Array, 4
			      C 	;	;MOV EAX, Array
			      C 	;	;DUMP
			      C 	;	LoopTimes ArraySize
			      C 	;	MOV ESI, Array
			      C 	;	AS2:
			      C 	;		MOV EAX, 0h
			      C 	;		MOV AL, [ESI]
			      C 	;		CALL WriteChar
			      C 	;		INC ESI
			      C 	;		LOOP AS2
			      C ;
			      C ;
			      C 	;	RET
			      C 	;ArrayShift ENDP
			      C 
			      C 
			      C 
 000000B8		      C .Code
			      C 
			      C 
 000000B8		      C 		ArrayDump 	PROC, Array:DWORD
 000000BB  60		      C 		PUSHA
 000000BC  B8 00000000	      C 			MOV 	EAX, 0
 000000C1  8B 75 08	      C 			MOV 	ESI, Array
 000000C4		      C 			LOOPC:
 000000C4  8A 06	      C 			MOV 	AL, 	[ESI]
			      C 			;DUMP
			      C 			.IF( AL != -1 )
 000000CA  E8 00000000 E      C 				CALL 	WriteDec
 000000CF  83 C6 04	      C 				ADD ESI, 4
			      C 				NL
 000000D2  50		     1C 		PUSH 	EAX
 000000D3  B8 0000000A	     1C 			MOV 	EAX,	0AH
 000000D8  E8 00000000 E     1C 			CALL 	WriteChar
 000000DD  58		     1C 		POP 	EAX
 000000DE  EB E4	      C 				JMP LOOPC
			      C 			.ENDIF
			      C 
 000000E0  61		      C 		POPA
			      C 		RET
 000000E5		      C 		ArrayDump 	ENDP
			      C 
 000000E5		      C 		ArrayPOP	PROC,	Array:DWORD
 000000E8  8B 75 08	      C 			MOV 	ESI, 	Array
 000000EB  BB 00000001	      C 			MOV 	EBX,    1
 000000F0  B9 00000000	      C 			MOV 	ECX, 	0
 000000F5  8B 06	      C 			MOV 	EAX, 	[ESI]
			      C 			.IF( AL == 0 )
			      C 				RET
			      C 			.ENDIF
 000000FF		      C 			LOOPA:
 000000FF  8B 06	      C 				MOV EAX, 	[ESI]
			      C 				.IF( AL == 0 )
 00000105  43		      C 					INC	EBX
			      C 				.ENDIF
			      C 				.IF( AL != -1 )
 0000010A  41		      C 					INC		ECX
 0000010B  8B D0	      C 					MOV 	EDX, 	EAX
 0000010D  52		      C 					PUSH 	EDX
 0000010E  83 C6 04	      C 					ADD 	ESI, 4
 00000111  EB EC	      C 					JMP 	LOOPA
			      C 				.ENDIF
			      C 			.IF( EBX == ECX )
 00000117  8B 75 08	      C 				MOV 	ESI, 	Array
			      C 				CopyFrom [ESI],	00h
 0000011A  50		     1C 		PUSH EAX
 0000011B  B8 00000000	     1C 			MOV EAX, 00h
 00000120  89 06	     1C 			MOV [ESI], 	EAX
 00000122  58		     1C 		POP EAX
			      C 				RET
			      C 			.ENDIF
 00000127  4B		      C 			DEC EBX
 00000128  8B 75 08	      C 			MOV 		ESI, 	Array
 0000012B		      C 			LOOPB:
 0000012B  8B C1	      C 				MOV 	EAX,	ECX 
 0000012D  48		      C 				DEC 	EAX	
 0000012E  C1 E0 02	      C 				SHL		EAX,	2
 00000131  03 F0	      C 				ADD 	ESI, 	EAX
 00000133		      C 			FILLZERO:
 00000133  C7 06 00000000     C 				MOV 	[ESI], DWORD PTR 00h
			      C 				.IF( EBX > 0 )
 0000013E  83 EE 04	      C 					SUB 	ESI, 4
 00000141  4B		      C 					DEC EBX
 00000142  49		      C 					DEC ECX
 00000143  EB EE	      C 					JMP FILLZERO
			      C 				.ENDIF
 00000145  49		      C 			DEC ECX
 00000146  8B 75 08	      C 			MOV ESI, 	Array
 00000149  03 F0	      C 			ADD ESI,	EAX
			      C 
			      C 			.REPEAT
 0000014B  5A		      C 				POP 	EDX
 0000014C  83 EE 04	      C 				SUB 	ESI, 4
			      C 			.UNTIL EDX != 0
 00000153		      C 			FILLNUM:
			      C 				
 00000153  89 16	      C 				MOV 	[ESI], EDX
 00000155  5A		      C 				POP 	EDX
 00000156  83 EE 04	      C 				SUB 	ESI, 4
 00000159  E2 F8	      C 				LOOP 	FILLNUM
			      C 		RET
 0000015F		      C 		ArrayPOP 	ENDP
			      C 
 0000015F		      C 		ArrayPUSH 	PROC, 	Array:DWORD,	Num:DWORD
 00000162  60		      C 			PUSHA
 00000163  8B 75 08	      C 			MOV 	ESI, 	Array
 00000166  8B 06	      C 			MOV 	EAX, [ESI]
			      C 			.WHILE EAX > 0
 0000016A  83 C6 04	      C 				ADD ESI, 4
 0000016D  8B 06	      C 				MOV EAX, [ESI]
			      C 			.ENDW
			      C 
			      C 			.IF( EAX == -1 )
			      C 				RET
			      C 			.ENDIF
			      C 
			      C 			CopyFrom [ESI], Num
 0000017D  50		     1C 		PUSH EAX
 0000017E  8B 45 0C	     1C 			MOV EAX, Num
 00000181  89 06	     1C 			MOV [ESI], 	EAX
 00000183  58		     1C 		POP EAX
 00000184  61		      C 			POPA
			      C 		RET
 00000189		      C 		ArrayPUSH 	ENDP
			      C 
 00000189		      C 		ArraySearch 	PROC, 	Array:DWORD,	Num:DWORD;,	StoreTo:DWORD
 0000018C  60		      C 			PUSHA
			      C 			;	MOV 	ESI, 	Array
			      C 			;	MOV 	EAX, 	[ESI]
			      C 			;	MOV 	StoreTo,	0
			      C 			;	.WHILE (EAX != Number && EAX != -1)
			      C 			;		ADD ESI, 4
			      C 			;		MOV EAX, [ESI]
			      C 			;		INC StoreTo
			      C 			;	.ENDW
			      C ;
			      C 			;	.IF( EAX == -1 )
			      C 			;		CopyFrom StoreTo, -1
			      C 			;		RET
			      C 			;	.ENDIF
			      C ;
			      C 			;	CopyFrom [ESI], Number
 0000018D  61		      C 			POPA
			      C 		RET
 00000192		      C 		ArraySearch 	ENDP
			      C 
 00000004		      C .Data
			      C 
			      C 	PushArray MACRO	Array,	Num
			      C 		INVOKE ArrayPUSH, OFFSET Array, Num
			      C 		ENDM
			      C 
			      C 	PopArray MACRO	Array
			      C 		INVOKE ArrayPOP, OFFSET Array
			      C 		ENDM
			      C 
			      C 	DumpArray MACRO	Array
			      C 		INVOKE ArrayDump, OFFSET Array
			      C 		ENDM
			      C 
			      C 	ArrayEncode	MACRO NUMBER, StoreTo
			      C 		PUSHA
			      C 			MOV EAX,	NUMBER
			      C 			INC EAX
			      C 			MOV StoreTo, EAX
			      C 		POPA
			      C 		ENDM
			      C 	ArrayDecode	MACRO NUMBER, StoreTo
			      C 		PUSHA
			      C 			MOV EAX,	NUMBER
			      C 			DEC EAX
			      C 			MOV StoreTo, EAX
			      C 		POPA
			      C 		ENDM
			      C 
			      C 	SearchArray	MACRO 	Array,	Number,	StoreTo
			      C 		PUSHAD
			      C 			MOV 		ESI, 	OFFSET Array
			      C 			MOV 		EAX, 	[ESI]
			      C 			CopyFrom 	StoreTo,	0
			      C 			.WHILE (EAX != Number && EAX != -1)
			      C 				ADD ESI, 4
			      C 				MOV EAX, [ESI]
			      C 				INC StoreTo
			      C 			.ENDW
			      C 		
			      C 			.IF( EAX == -1 )
			      C 				CopyFrom StoreTo, -1
			      C 			.ENDIF
			      C 		POPAD
			      C 		ENDM
			      C COMMENT *
			      C 
			      C 	IF WANT 0 IN QUEUE
			      C 	EXAMPLE:
			      C 		ArrayEncode	NUMBER	
			      C 		ArrayDecode NUMBER
			      C 
			      C 	TO USE ArrayPOP
			      C 	EXAMPLE:
			      C 		INVOKE ArrayPOP, OFFSET YOUR_ARRAY
			      C 	
			      C 	TO USE ArrayPUSH
			      C 	EXAMPLE:
			      C 		INVOKE ArrayPUSH, OFFSET YOUR_ARRAY, NUMBER
			      C 
			      C 	TO USE ArrayPOP
			      C 	EXAMPLE:
			      C 		INVOKE ArrayDump, OFFSET YOUR_ARRAY
			      C 
			      C 	TO SEARCH ITEM IN ARRAY
			      C 	EXAMPLE:
			      C 		INVOKE ArraySearch, OFFSET YOUR_ARRAY,	Number,	StoreTo
			      C 
			      C *		
			      C 

					INCLUDE	UI.inc
			      C 
			      C 
			      C 
			      C 
			      C DisplayHP	MACRO
			      C 
			      C 
			      C 
			      C 	ENDM
			      C 
			      C DisplayInfoBoard 	MACRO
			      C 
			      C 
			      C 	ENDM
			      C 
					INCLUDE	Graph_UI.inc
			      C ;	Version 3
 00000192		      C .Code
			      C 
			      C 
 00000192 A1 6D 20 A1 6D      C 	Building_Dialog_1	DB 	"¡m ¡m   ¡m Building Soldier ¡n   ¡n ¡n ",0
	   20 20 20 A1 6D
	   20 42 75 69 6C
	   64 69 6E 67 20
	   53 6F 6C 64 69
	   65 72 20 A1 6E
	   20 20 20 A1 6E
	   20 A1 6E 20 00
 000001BA 20 20 A1 6D 20      C 	Building_Dialog_2	DB 	"  ¡m   ¡m  Building Soldier  ¡n   ¡n   ",0
	   20 20 A1 6D 20
	   20 42 75 69 6C
	   64 69 6E 67 20
	   53 6F 6C 64 69
	   65 72 20 20 A1
	   6E 20 20 20 A1
	   6E 20 20 20 00
 000001E2 20 A1 6D 20 20      C 	Building_Dialog_3	DB 	" ¡m  ¡m    Building Soldier    ¡n  ¡n  ",0
	   A1 6D 20 20 20
	   20 42 75 69 6C
	   64 69 6E 67 20
	   53 6F 6C 64 69
	   65 72 20 20 20
	   20 A1 6E 20 20
	   A1 6E 20 20 00
 0000020A A1 6D A1 6D 20      C 	Building_Dialog_4	DB 	"¡m¡m       Building Soldier        ¡n¡n",0
	   20 20 20 20 20
	   20 42 75 69 6C
	   64 69 6E 67 20
	   53 6F 6C 64 69
	   65 72 20 20 20
	   20 20 20 20 20
	   A1 6E A1 6E 00
 00000232 20 A1 6D 20 20      C 	Building_Dialog_5	DB 	" ¡m        Building Soldier         ¡n ",0
	   20 20 20 20 20
	   20 42 75 69 6C
	   64 69 6E 67 20
	   53 6F 6C 64 69
	   65 72 20 20 20
	   20 20 20 20 20
	   20 A1 6E 20 00
 0000025A 20 20 20 20 20      C 	Building_Dialog_6	DB 	"           Building Soldier            ",0
	   20 20 20 20 20
	   20 42 75 69 6C
	   64 69 6E 67 20
	   53 6F 6C 64 69
	   65 72 20 20 20
	   20 20 20 20 20
	   20 20 20 20 00
 00000282 20 20 20 20 20      C 	NoEnoughMoney_Dialog	DB 	"           Not Enough Money           ",0
	   20 20 20 20 20
	   20 4E 6F 74 20
	   45 6E 6F 75 67
	   68 20 4D 6F 6E
	   65 79 20 20 20
	   20 20 20 20 20
	   20 20 20 00
 000002A9 20 20 20 20 20      C 	UnderAttack_Dialog		DB 	"         Your Castle is under attack         ",0
	   20 20 20 20 59
	   6F 75 72 20 43
	   61 73 74 6C 65
	   20 69 73 20 75
	   6E 64 65 72 20
	   61 74 74 61 63
	   6B 20 20 20 20
	   20 20 20 20 20
	   00
			      C 
			      C 	Building_Dialog		MACRO Fram
			      C 		
			      C 		.IF Fram == 1
			      C 			WriteSAtCenter	60,	21,	Building_Dialog_1
			      C 		.ELSEIF Fram == 2
			      C 			WriteSAtCenter	60,	21,	Building_Dialog_2
			      C 		.ELSEIF Fram == 3
			      C 			WriteSAtCenter	60,	21,	Building_Dialog_3
			      C 		.ELSEIF Fram == 4
			      C 			WriteSAtCenter	60,	21,	Building_Dialog_4
			      C 		.ELSEIF Fram == 5
			      C 			WriteSAtCenter	60,	21,	Building_Dialog_5
			      C 		.ELSEIF Fram == 6
			      C 			WriteSAtCenter	60,	21,	Building_Dialog_6
			      C 		.ENDIF
			      C 		MOV EAX,	Timer_Build_Goal
			      C 		MOV EBX,	Timer_UserBuild
			      C 		.IF (EAX !=0 && EBX !=0)
			      C 			SUB EAX,	EBX
			      C 			MOV SetterBuffer,	EAX
			      C 			DecAtCoord 59,23, SetterBuffer
			      C 		.ENDIF
			      C 		ENDM
			      C 		
			      C 	
			      C 	NoEnough_Dialog		MACRO
			      C 		.IF( EnoughTimer == 0 )
			      C 			
			      C 		.ELSEIF( EnoughTimer < 10)
			      C 			SettingColor LightRed
			      C 			WriteSAtCenter	60,	23,	NoEnoughMoney_Dialog
			      C 			INC EnoughTimer
			      C 			
			      C 		.ELSE
			      C 			CopyFrom EnoughTimer, 0
			      C 		.ENDIF
			      C 		
			      C 		ENDM
			      C 	
			      C ;	StartUp_1 	DB " A£n£f£\£h£nis  ",0
			      C ;	StartUpLogo 	MACRO
			      C ;		CLS
			      C ;		SettingColor 	gray
			      C ;		Translate 		50,13
			      C ;		GraphDisplay 	StartUp_1
			      C ;		
			      C ;		PauseTime 		500
			      C ;		SettingColor 	lightgray
			      C ;		Translate 		50,13
			      C ;		GraphDisplay 	StartUp_1
			      C ;		
			      C ;		PauseTime 		500
			      C ;		SettingColor 	white
			      C ;		Translate 		50,13
			      C ;		GraphDisplay 	StartUp_1
			      C ;		
			      C ;		PauseTime 		500
			      C ;		SettingColor 	lightgray
			      C ;		Translate 		50,13
			      C ;		GraphDisplay 	StartUp_1
			      C ;		
			      C ;		PauseTime 		500
			      C ;		SettingColor 	gray
			      C ;		Translate 		50,13
			      C ;		GraphDisplay 	StartUp_1
			      C ;		
			      C ;		PauseTime 		500
			      C ;		SettingColor 	black
			      C ;		Translate 		50,13
			      C ;		GraphDisplay 	StartUp_1
			      C ;	
			      C ;		ENDM
			      C 	
			      C 
 000002D7 A2 7A A2 77 A2      C 	KEY_A_1		DB	"¢z¢w¢{"	,0
	   7B 00
 000002DE A2 78 A2 DF A2      C 	KEY_A_2		DB	"¢x¢ß¢x"	,0
	   78 00
 000002E5 A2 7C A2 77 A2      C 	KEY_A_3		DB	"¢|¢w¢}"	,0	
	   7D 00
 000002EC 20 24 31 30 30      C 	KEY_A_4		DB	" $100 "	,0	
	   20 00
			      C 	KEY_A	MACRO
			      C 		Translate 5, 22
			      C 		GraphDisplay	KEY_A_1
			      C 		GraphDisplay	KEY_A_2
			      C 		GraphDisplay	KEY_A_3
			      C 		GraphDisplay	KEY_A_4
			      C 		ENDM
 000002F3 A2 7A A2 77 A2      C 	KEY_B_1		DB	"¢z¢w¢{"	,0
	   7B 00
 000002FA A2 78 A2 E5 A2      C 	KEY_B_2		DB	"¢x¢å¢x"	,0
	   78 00
 00000301 A2 7C A2 77 A2      C 	KEY_B_3		DB	"¢|¢w¢}"	,0
	   7D 00
 00000308 20 24 33 30 30      C 	KEY_B_4		DB	" $300 "	,0
	   20 00
			      C 	KEY_B	MACRO
			      C 		Translate 12, 22
			      C 		GraphDisplay	KEY_B_1
			      C 		GraphDisplay	KEY_B_2
			      C 		GraphDisplay	KEY_B_3		
			      C 		GraphDisplay	KEY_B_4	
			      C 		ENDM
 0000030F A2 7A A2 77 A2      C 	KEY_C_1		DB	"¢z¢w¢{"	,0
	   7B 00
 00000316 A2 78 A2 D3 A2      C 	KEY_C_2		DB	"¢x¢Ó¢x"	,0
	   78 00
 0000031D A2 7C A2 77 A2      C 	KEY_C_3		DB	"¢|¢w¢}"	,0
	   7D 00
 00000324 20 24 36 30 30      C 	KEY_C_4		DB	" $600 "	,0
	   20 00
			      C 	KEY_C	MACRO
			      C 		Translate 19, 22
			      C 		GraphDisplay	KEY_C_1
			      C 		GraphDisplay	KEY_C_2
			      C 		GraphDisplay	KEY_C_3		
			      C 		GraphDisplay	KEY_C_4	
			      C 		ENDM
			      C 	
			      C 	
 0000032B A2 7A A2 77 A2      C 	KEY_Z_1		DB	"¢z¢w¢{"	,0
	   7B 00
 00000332 A2 78 A2 E8 A2      C 	KEY_Z_2		DB	"¢x¢è¢x Upgrade"	,0
	   78 20 55 70 67
	   72 61 64 65 00
 00000341 A2 7C A2 77 A2      C 	KEY_Z_3		DB	"¢|¢w¢}"	,0
	   7D 00
			      C 	
 00000348 24 31 30 30 30      C 	KEY_Z_M_1 	DB "$1000",0
	   00
 0000034E 24 33 30 30 30      C 	KEY_Z_M_2 	DB "$3000",0
	   00
 00000354 24 35 30 30 30      C 	KEY_Z_M_3 	DB "$5000",0
	   00
			      C 	KEY_Z	MACRO
			      C 		Translate 29, 24
			      C 		GraphDisplay	KEY_Z_1
			      C 		GraphDisplay	KEY_Z_2
			      C 		GraphDisplay	KEY_Z_3		
			      C 		.IF( UserCurrLevel == 1 )
			      C 			GraphDisplay KEY_Z_M_1
			      C 		.ELSEIF( UserCurrLevel == 2 )
			      C 			GraphDisplay KEY_Z_M_2
			      C 		.ELSEIF( UserCurrLevel == 3 )
			      C 			GraphDisplay KEY_Z_M_3
			      C 		.ENDIF
			      C 		ENDM
			      C 		
			      C 	
			      C 	DrawInfo	MACRO
			      C 	
			      C 		.IF(Building == 1)
			      C 			SettingColor Gray*16+White
			      C 			KEY_A
			      C 			DefaultColor
			      C 		.ELSE
			      C 			DefaultColor
			      C 			KEY_A
			      C 		.ENDIF	
			      C 		.IF(Building == 2)
			      C 			SettingColor Gray*16+White
			      C 			KEY_B
			      C 			DefaultColor
			      C 		.ELSE
			      C 			DefaultColor
			      C 			KEY_B
			      C 		.ENDIF	
			      C 		.IF(Building == 3)
			      C 			SettingColor Gray*16+White
			      C 			KEY_C
			      C 			DefaultColor
			      C 		.ELSE
			      C 			DefaultColor
			      C 			KEY_C
			      C 		.ENDIF
			      C 
			      C 		.IF( UserCurrLevel == 1 )
			      C 			.IF( UserMoney > 1000)
			      C 				DefaultColor
			      C 				KEY_Z
			      C 			.ELSE
			      C 				SettingColor Gray
			      C 				KEY_Z
			      C 				DefaultColor
			      C 			.ENDIF
			      C 		.ELSEIF( UserCurrLevel == 2 )
			      C 			.IF( UserMoney > 3000)
			      C 				DefaultColor
			      C 				KEY_Z
			      C 			.ELSE
			      C 				SettingColor Gray
			      C 				KEY_Z
			      C 				DefaultColor
			      C 			.ENDIF
			      C 		.ELSEIF( UserCurrLevel == 3 )
			      C 			.IF( UserMoney > 5000 )
			      C 				DefaultColor
			      C 				KEY_Z
			      C 			.ELSE
			      C 				SettingColor Gray
			      C 				KEY_Z
			      C 				DefaultColor
			      C 			.ENDIF
			      C 		.ENDIF
			      C 		
			      C 		
			      C 		ENDM
			      C 		
			      C 		
 0000035A A1 40 A1 40 A1      C 	INFO_Panel_1	DB "¡@¡@¡@", 	54 DUP("¢p"),		"¡@¡@¡@",0
	   40
	   00000036 [
	    70A2
	   ] A1 40 A1 40
	   A1 40 00
 000003D3 A1 40 A1 40 A2      C 	INFO_Panel_2	DB "¡@¡@¢p", 	108 DUP(" "),		"¢p¡@¡@",0
	   70
	   0000006C [
	    20
	   ] A2 70 A1 40
	   A1 40 00
 0000044C A1 40 A2 70 A1      C 	INFO_Panel_3	DB "¡@¢p¡@", 		108 DUP(" "),		"¡@¢p",0
	   40
	   0000006C [
	    20
	   ] A1 40 A2 70
	   00
 000004C3 A2 70		      C 	INFO_Panel_4	DB "¢p", 		116 DUP(" "),		"¢p",0
	   00000074 [
	    20
	   ] A2 70 00
 0000053C A2 70		      C 	INFO_Panel_5	DB "¢p", 		116 DUP(" "),		"¢p",0
	   00000074 [
	    20
	   ] A2 70 00
 000005B5 A2 70		      C 	INFO_Panel_6	DB "¢p", 		116 DUP(" "),		"¢p",0
	   00000074 [
	    20
	   ] A2 70 00
 0000062E A2 70		      C 	INFO_Panel_7	DB "¢p", 		116 DUP(" "),		"¢p",0
	   00000074 [
	    20
	   ] A2 70 00
 000006A7 A1 40 A2 70 A1      C 	INFO_Panel_8	DB "¡@¢p¡@", 		108 DUP(" "),		"¡@¢p¡@",0
	   40
	   0000006C [
	    20
	   ] A1 40 A2 70
	   A1 40 00
 00000720 A1 40 A1 40 A2      C 	INFO_Panel_9	DB "¡@¡@¢p", 	108 DUP(" "),		"¢p¡@¡@",0
	   70
	   0000006C [
	    20
	   ] A2 70 A1 40
	   A1 40 00
 00000799 A1 40 A1 40 A1      C 	INFO_Panel_10	DB "¡@¡@¡@", 	54 DUP("¢p"),		"¡@¡@¡@",0
	   40
	   00000036 [
	    70A2
	   ] A1 40 A1 40
	   A1 40 00
			      C 	
			      C 	
			      C 	
			      C 	DrawPanel MACRO
			      C 		Translate 0, 19
			      C 		GraphDisplay INFO_Panel_1
			      C 		GraphDisplay INFO_Panel_2
			      C 		GraphDisplay INFO_Panel_3
			      C 		GraphDisplay INFO_Panel_4
			      C 		GraphDisplay INFO_Panel_5
			      C 		GraphDisplay INFO_Panel_6
			      C 		GraphDisplay INFO_Panel_7
			      C 		GraphDisplay INFO_Panel_8
			      C 		GraphDisplay INFO_Panel_9
			      C 		GraphDisplay INFO_Panel_10
			      C 	
			      C 		ENDM
			      C 		
			      C 		
 00000812 A1 40 A1 40 A1      C 	Loading_1 	DB 	"¡@¡@¡Õ¡»¡Ö¡@¡@" ,0
	   D5 A1 BB A1 D6
	   A1 40 A1 40 00
 00000821 A1 40 A1 D5 A1      C 	Loading_2 	DB 	"¡@¡Õ¡@¡¼¡@¡Ö¡@" ,0
	   40 A1 BC A1 40
	   A1 D6 A1 40 00
 00000830 A1 40 A1 D5 A1      C 	Loading_3 	DB 	"¡@¡Õ¡@¡»¡@¡Ö¡@" ,0
	   40 A1 BB A1 40
	   A1 D6 A1 40 00
 0000083F A1 40 A1 D5 A1      C 	Loading_4 	DB 	"¡@¡Õ¡@¡¼¡@¡Ö¡@" ,0
	   40 A1 BC A1 40
	   A1 D6 A1 40 00
			      C 	
			      C 	DrawLoading MACRO Fram
			      C 	
			      C 		Translate 53, 25
			      C 		.IF( Fram == 1 || Fram == 5 )
			      C 			GraphDisplay Loading_1
			      C 		.ELSEIF( Fram == 2 )
			      C 			GraphDisplay Loading_2
			      C 		.ELSEIF( Fram == 3 )
			      C 			GraphDisplay Loading_3
			      C 		.ELSEIF( Fram == 4 )
			      C 			GraphDisplay Loading_4
			      C 		.ENDIF
			      C 		ENDM
			      C 		
			      C 		
			      C 
					INCLUDE	Graph_castle.inc
			      C ;	Version 3
 00000004		      C .Data
			      C 
			      C ;¢i¢i¢i¢i¢i¢i¢i¢i¢i¢i¢i¢i¢i¢i¢i¢i¢i¢i¢i¢i¢i¢i¢i¢i¢i¢i¢i¢i¢i¢i¢i¢i¢i¢i¢i¢i¢i¢i¢i
			      C ;¢i¢i¢i¢i¢i¢i¢i¢i  ¢i¢i¢i¢i¢i¢i¢i¢i  ¢i¢i¢i¢i¢i¢i¢i¢i¢i¢i¢i¢i¢i¢i¢i¢i¢i¢i¢i
			      C ;¢i¢i¢i¢i¢i¢i¢i¢i  ¢i¢i¢i¢i¢i¢i¢i¢i  ¢i¢i¢i¢i¢i¢i¢i¢i¢i¢i¢i¢i¢i¢i¢i¢i¢i¢i¢i
			      C ;¢i¢i¢i¢i¢i¢i¢i¢i  ¢i¢i¢i¢i¢i¢i¢i¢i  ¢i¢i¢i¢i¢i¢i¢i¢i¢i¢i¢i¢i¢i¢i¢i¢i¢i¢i¢i
			      C ;¢i¢i¢i¢i¢i¢i¢i¢i  ¢i¢i¢i¢i¢i¢i¢i¢i  ¢i¢i¢i      ¢i¢i¢i¢i¢i¢i¢i¢i¢i¢i
			      C ;¢i¢i¢i¢i¢i¢i¢i¢i  ¢i¢i¢i¢i¢i¢i¢i¢i  ¢i¢i¢i  ¢i¢i¢i¢i¢i¢i¢i¢i¢i¢i¢i¢i¢i¢i
			      C ;¢i¢i¢i¢i¢i¢i¢i¢i  ¢i¢i¢i¢i¢i¢i¢i¢i  ¢i¢i¢i      ¢i¢i¢i¢i¢i¢i¢i¢i¢i¢i
			      C ;¢i¢i¢i¢i¢i¢i¢i¢i  ¢i¢i¢i¢i¢i¢i¢i¢i  ¢i¢i¢i¢i¢i¢i¢i  ¢i¢i¢i¢i¢i¢i¢i¢i¢i¢i
			      C ;¢i¢i¢i¢i¢i¢i¢i¢i¢i¢i        ¢i¢i¢i¢i¢i      ¢i¢i¢i¢i¢i¢i¢i¢i¢i¢i
			      C ;¢i¢i¢i¢i¢i¢i¢i¢i¢i¢i¢i¢i¢i¢i¢i¢i¢i¢i¢i¢i¢i¢i¢i¢i¢i¢i¢i¢i¢i¢i¢i¢i¢i¢i¢i¢i¢i¢i¢i
			      C ;¢i¢i¢i¢i¢i¢i¢i¢i¢i¢i¢i¢i¢i¢i¢i¢i¢i¢i¢i¢i¢i¢i¢i¢i¢i¢i¢i¢i¢i¢i¢i¢i¢i¢i¢i¢i¢i¢i¢i
			      C 
			      C 
			      C 
 00000004 20 20 20 20 20      C 	UserCastle_1_1    	DB     "       ¢i  ¢i       ",0
	   20 20 A2 69 20
	   20 A2 69 20 20
	   20 20 20 20 20
	   00
 00000019 20 20 20 20 20      C 	UserCastle_1_2    	DB     "     ¢i¢i¢i¢i¢i        ",0
	   A2 69 A2 69 A2
	   69 A2 69 A2 69
	   20 20 20 20 20
	   20 20 20 00
 00000031 20 20 20 20 20      C 	UserCastle_1_3    	DB     "     ¢i¢«  ¢ª¢i     ",0
	   A2 69 A2 AB 20
	   20 A2 AA A2 69
	   20 20 20 20 20
	   00
 00000046 20 20 20 20 20      C 	UserCastle_1_4    	DB     "     ¢i      ¢i     ",0
	   A2 69 20 20 20
	   20 20 20 A2 69
	   20 20 20 20 20
	   00
 0000005B 20 A2 64 A2 64      C 	UserCastle_1_5    	DB     " ¢d¢d¢i      ¢i¢d¢d ",0
	   A2 69 20 20 20
	   20 20 20 A2 69
	   A2 64 A2 64 20
	   00
			      C 	
 00000070 20 20 20 20 20      C 	UserCastle_2_1    	DB     "           ¢«     ",0
	   20 20 20 20 20
	   20 A2 AB 20 20
	   20 20 20 00
 00000083 20 20 20 20 20      C 	UserCastle_2_2    	DB     "           ¢k     ",0
	   20 20 20 20 20
	   20 A2 6B 20 20
	   20 20 20 00
 00000096 20 20 20 20 20      C 	UserCastle_2_3    	DB     "          ¢i       ",0
	   20 20 20 20 20
	   A2 69 20 20 20
	   20 20 20 20 00
 000000AA 20 20 20 20 20      C 	UserCastle_2_4    	DB     "        ¢i¢i¢i       ",0
	   20 20 20 A2 69
	   A2 69 A2 69 20
	   20 20 20 20 20
	   20 00
 000000C0 20 20 20 20 20      C 	UserCastle_2_5    	DB     "      ¢i¢i¢i¢i¢i       ",0
	   20 A2 69 A2 69
	   A2 69 A2 69 A2
	   69 20 20 20 20
	   20 20 20 00
 000000D8 20 20 20 20 20      C 	UserCastle_2_6    	DB     "      ¢i¢«  ¢ª¢i    ",0
	   20 A2 69 A2 AB
	   20 20 A2 AA A2
	   69 20 20 20 20
	   00
 000000ED 20 20 20 20 A2      C 	UserCastle_2_7    	DB     "    ¢i¢i      ¢i¢i    ",0
	   69 A2 69 20 20
	   20 20 20 20 A2
	   69 A2 69 20 20
	   20 20 00
 00000104 20 20 A2 64 A2      C 	UserCastle_2_8    	DB     "  ¢d¢i¢i      ¢i¢i¢d  ",0
	   69 A2 69 20 20
	   20 20 20 20 A2
	   69 A2 69 A2 64
	   20 20 00
			      C 	
 0000011B 20 20 20 20 20      C 	UserCastle_3_1 		DB	   "          ¢«     ",0
	   20 20 20 20 20
	   A2 AB 20 20 20
	   20 20 00
 0000012D 20 20 20 20 20      C 	UserCastle_3_2 		DB	   "      ¢«  ¢k  ¢« ",0
	   20 A2 AB 20 20
	   A2 6B 20 20 A2
	   AB 20 00
 0000013F 20 20 20 20 20      C 	UserCastle_3_3 		DB	   "      ¢k ¡¶   ¢k   	",0
	   20 A2 6B 20 A1
	   B6 20 20 20 A2
	   6B 20 20 20 09
	   00
 00000154 20 20 20 20 20      C 	UserCastle_3_4 		DB	   "     ¡¶  ¢i  ¡¶     ",0
	   A1 B6 20 20 A2
	   69 20 20 A1 B6
	   20 20 20 20 20
	   00
 00000169 20 20 20 20 20      C 	UserCastle_3_5 		DB	   "     ¢i¢i¢i¢i¢i       ",0
	   A2 69 A2 69 A2
	   69 A2 69 A2 69
	   20 20 20 20 20
	   20 20 00
 00000180 20 20 20 20 20      C 	UserCastle_3_6 		DB	   "     ¢i¢i¢i¢i¢i       ",0
	   A2 69 A2 69 A2
	   69 A2 69 A2 69
	   20 20 20 20 20
	   20 20 00
 00000197 20 A1 B6 20 20      C 	UserCastle_3_7 		DB	   " ¡¶  ¢i¢«  ¢ª¢i  ¡¶    ",0
	   A2 69 A2 AB 20
	   20 A2 AA A2 69
	   20 20 A1 B6 20
	   20 20 20 00
 000001AF 20 A2 69 A2 69      C 	UserCastle_3_8 		DB	   " ¢i¢i¢i      ¢i¢i¢i    ",0
	   A2 69 20 20 20
	   20 20 20 A2 69
	   A2 69 A2 69 20
	   20 20 20 00
 000001C7 20 A2 69 A2 69      C 	UserCastle_3_9 		DB	   " ¢i¢i¢i      ¢i¢i¢i    ",0
	   A2 69 20 20 20
	   20 20 20 A2 69
	   A2 69 A2 69 20
	   20 20 20 00
			      C 
			      C 	DrawUserCastle1 MACRO X
			      C 		
			      C 		Translate X, 13
			      C 
			      C 		GraphDisplay UserCastle_1_1
			      C 		GraphDisplay UserCastle_1_2
			      C 		GraphDisplay UserCastle_1_3
			      C 		GraphDisplay UserCastle_1_4
			      C 		GraphDisplay UserCastle_1_5
			      C 
			      C 		ENDM
			      C 	
			      C 	DrawUserCastle2 MACRO X
			      C 
			      C 		Translate X, 10
			      C 
			      C 		GraphDisplay UserCastle_2_1
			      C 		GraphDisplay UserCastle_2_2
			      C 		GraphDisplay UserCastle_2_3
			      C 		GraphDisplay UserCastle_2_4
			      C 		GraphDisplay UserCastle_2_5
			      C 		GraphDisplay UserCastle_2_6
			      C 		GraphDisplay UserCastle_2_7
			      C 		GraphDisplay UserCastle_2_8
			      C 
			      C 		ENDM
			      C 		
			      C 	DrawUserCastle3 MACRO X
			      C 	
			      C 		Translate X, 9
			      C 
			      C 		GraphDisplay UserCastle_3_1
			      C 		GraphDisplay UserCastle_3_2
			      C 		GraphDisplay UserCastle_3_3
			      C 		GraphDisplay UserCastle_3_4
			      C 		GraphDisplay UserCastle_3_5
			      C 		GraphDisplay UserCastle_3_6
			      C 		GraphDisplay UserCastle_3_7
			      C 		GraphDisplay UserCastle_3_8
			      C 		GraphDisplay UserCastle_3_9
			      C 
			      C 		ENDM
			      C 	
			      C 	
			      C ;¢i¢i¢i¢i¢i¢i¢i¢i¢i¢i¢i¢i¢i¢i¢i¢i¢i¢i¢i¢i¢i¢i¢i¢i¢i¢i¢i¢i¢i¢i¢i¢i¢i¢i¢i¢i¢i¢i¢i
			      C ;¢i¢i¢i¢i¢i¢i         ¢i¢i¢i¢i¢i¢i¢i¢i¢i¢i¢i¢i¢i¢i¢i¢i¢i¢i¢i¢i¢i¢i¢i¢i
			      C ;¢i¢i¢i¢i  ¢i¢i¢i¢i¢i¢i¢i¢i¢i¢i¢i¢i¢i¢i¢i¢i¢i¢i¢i¢i¢i¢i¢i¢i¢i¢i¢i¢i¢i¢i¢i¢i¢i
			      C ;¢i¢i¢i¢i  ¢i¢i¢i¢i¢i¢i¢i¢i¢i¢i¢i¢i¢i¢i¢i¢i¢i¢i¢i¢i¢i¢i¢i¢i¢i¢i¢i¢i¢i¢i¢i¢i¢i
			      C ;¢i¢i¢i¢i  ¢i¢i¢i¢i¢i¢i¢i¢i¢i¢i¢i¢i¢i¢i¢i¢i¢i¢i¢i¢i¢i¢i¢i¢i¢i¢i¢i¢i¢i¢i¢i¢i¢i
			      C ;¢i¢i¢i¢i  ¢i¢i¢i¢i¢i¢i¢i¢i¢i¢i¢i       ¢i¢i¢i¢i¢i¢i¢i¢i¢i¢i¢i¢i¢i¢i¢i
			      C ;¢i¢i¢i¢i  ¢i¢i¢i¢i¢i¢i¢i¢i¢i¢i¢i  ¢i¢i¢i  ¢i¢i          ¢i¢i¢i
			      C ;¢i¢i¢i¢i  ¢i¢i¢i¢i¢i¢i¢i¢i¢i¢i¢i  ¢i¢i¢i  ¢i¢i  ¢i¢i  ¢i¢i  ¢i¢i¢i
			      C ;¢i¢i¢i¢i  ¢i¢i¢i¢i¢i¢i¢i¢i¢i¢i¢i       ¢i¢i  ¢i¢i  ¢i¢i  ¢i¢i¢i
			      C ;¢i¢i¢i¢i¢i¢i         ¢i¢i¢i¢i¢i¢i¢i¢i¢i¢i¢i  ¢i¢i  ¢i¢i  ¢i¢i¢i
			      C ;¢i¢i¢i¢i¢i¢i¢i¢i¢i¢i¢i¢i¢i¢i¢i¢i¢i¢i¢i¢i¢i¢i¢i¢i¢i¢i¢i¢i¢i¢i¢i¢i¢i¢i¢i¢i¢i¢i¢i
			      C 
			      C 	
 000001DF A1 B6 A1 B6 A1      C 	CompCastle_1_1 DB "¡¶¡¶¡¶¡¶¡¶¡¶   ",0
	   B6 A1 B6 A1 B6
	   A1 B6 20 20 20
	   00
 000001EF A2 67 A2 67 A2      C 	CompCastle_1_2 DB "¢g¢g¢g¢g¢g¢g",0
	   67 A2 67 A2 67
	   A2 67 00
 000001FC A2 67 A2 67 20      C 	CompCastle_1_3 DB "¢g¢g    ¢g¢g",0
	   20 20 20 A2 67
	   A2 67 00
 00000209 A2 67 A2 AB 20      C 	CompCastle_1_4 DB "¢g¢«    ¢ª¢g",0
	   20 20 20 A2 AA
	   A2 67 00
 00000216 A2 67 20 20 20      C 	CompCastle_1_5 DB "¢g        ¢p",0
	   20 20 20 20 20
	   A2 70 00
 00000223 A2 67 20 20 20      C 	CompCastle_1_6 DB "¢g        ¢g",0
	   20 20 20 20 20
	   A2 67 00
			      C 		
			      C 	
 00000230 20 20 20 20 20      C 	CompCastle_2_1 DB "      ¡¶¡¶",0
	   20 A1 B6 A1 B6
	   00
 0000023B 20 20 20 20 20      C 	CompCastle_2_2 DB "      ¢g¢g",0
	   20 A2 67 A2 67
	   00
 00000246 20 20 A1 B6 A2      C 	CompCastle_2_3 DB "  ¡¶¢g¢g¢g¢g¡¶",0
	   67 A2 67 A2 67
	   A2 67 A1 B6 00
 00000255 20 20 A2 67 A2      C 	CompCastle_2_4 DB "  ¢g¢g¡¿¡¿¢g¢g",0
	   67 A1 BF A1 BF
	   A2 67 A2 67 00
 00000264 A1 B6 A2 67 A2      C 	CompCastle_2_5 DB "¡¶¢g¢g    ¢g¢g¡¶",0
	   67 20 20 20 20
	   A2 67 A2 67 A1
	   B6 00
 00000275 A2 70 A2 67 A2      C 	CompCastle_2_6 DB "¢p¢g¢«    ¢ª¢g¢p",0
	   AB 20 20 20 20
	   A2 AA A2 67 A2
	   70 00
 00000286 20 20 A2 67 20      C 	CompCastle_2_7 DB "  ¢g        ¢g",0
	   20 20 20 20 20
	   20 20 A2 67 00
 00000295 20 20 A2 70 20      C 	CompCastle_2_8 DB "  ¢p        ¢p",0
	   20 20 20 20 20
	   20 20 A2 70 00
			      C 
			      C 	
 000002A4 20 20 20 20 A1      C 	CompCastle_3_1 DB "    ¡¶    ¡¶      ",0
	   B6 20 20 20 20
	   A1 B6 20 20 20
	   20 20 20 00
 000002B7 20 20 20 20 A2      C 	CompCastle_3_2 DB "    ¢g¡¶¡¶¢g        ",0
	   67 A1 B6 A1 B6
	   A2 67 20 20 20
	   20 20 20 20 20
	   00
 000002CC 20 20 20 20 A2      C 	CompCastle_3_3 DB "    ¢g¢g¢g¢g    ",0
	   67 A2 67 A2 67
	   A2 67 20 20 20
	   20 00
 000002DD 20 20 A1 B6 A2      C 	CompCastle_3_4 DB "  ¡¶¢g¢g¢g¢g¡¶       ",0
	   67 A2 67 A2 67
	   A2 67 A1 B6 20
	   20 20 20 20 20
	   20 00
 000002F3 20 20 A2 67 A2      C 	CompCastle_3_5 DB "  ¢g¢g¡¿¡¿¢g¢g       ",0
	   67 A1 BF A1 BF
	   A2 67 A2 67 20
	   20 20 20 20 20
	   20 00
 00000309 A1 B6 A2 67 A2      C 	CompCastle_3_6 DB "¡¶¢g¢g    ¢g¢g¡¶     ",0
	   67 20 20 20 20
	   A2 67 A2 67 A1
	   B6 20 20 20 20
	   20 00
 0000031F A2 70 A2 67 A1      C 	CompCastle_3_7 DB "¢p¢g¡¿    ¡¿¢g¢p      ",0
	   BF 20 20 20 20
	   A1 BF A2 67 A2
	   70 20 20 20 20
	   20 20 00
 00000336 A2 70 A2 67 20      C 	CompCastle_3_8 DB "¢p¢g        ¢g¢p",0
	   20 20 20 20 20
	   20 20 A2 67 A2
	   70 00
 00000347 A2 70 A2 70 20      C 	CompCastle_3_9 DB "¢p¢p        ¢p¢p",0
	   20 20 20 20 20
	   20 20 A2 70 A2
	   70 00
			      C 
			      C 	DrawCompCastle1 MACRO X
			      C 	
			      C 		Translate X, 12
			      C 
			      C 		GraphDisplay CompCastle_1_1
			      C 		GraphDisplay CompCastle_1_2
			      C 		GraphDisplay CompCastle_1_3
			      C 		GraphDisplay CompCastle_1_4
			      C 		GraphDisplay CompCastle_1_5
			      C 		GraphDisplay CompCastle_1_6
			      C 
			      C 		ENDM	
			      C 	
			      C 	DrawCompCastle2 MACRO X
			      C 	
			      C 		Translate X, 10
			      C 
			      C 		GraphDisplay CompCastle_2_1
			      C 		GraphDisplay CompCastle_2_2
			      C 		GraphDisplay CompCastle_2_3
			      C 		GraphDisplay CompCastle_2_4
			      C 		GraphDisplay CompCastle_2_5
			      C 		GraphDisplay CompCastle_2_6
			      C 		GraphDisplay CompCastle_2_7
			      C 		GraphDisplay CompCastle_2_8
			      C 
			      C 		ENDM	
			      C 	
			      C 	DrawCompCastle3 MACRO X
			      C 	
			      C 		Translate X, 9
			      C 
			      C 		GraphDisplay CompCastle_3_1
			      C 		GraphDisplay CompCastle_3_2
			      C 		GraphDisplay CompCastle_3_3
			      C 		GraphDisplay CompCastle_3_4
			      C 		GraphDisplay CompCastle_3_5
			      C 		GraphDisplay CompCastle_3_6
			      C 		GraphDisplay CompCastle_3_7
			      C 		GraphDisplay CompCastle_3_8
			      C 		GraphDisplay CompCastle_3_9
			      C 
			      C 		ENDM	
			      C 	
			      C 	
			      C 	
			      C 	
			      C 	
			      C 	
			      C 	
			      C 	
			      C 	
			      C 	
			      C 	
			      C 	
			      C 	
			      C 	
			      C 	
			      C 	
			      C 	
			      C 	
			      C 	DrawCastle MACRO League, X 
			      C 		DrawCastleHP League
			      C 		MOV EAX,	League
			      C 		.IF ( EAX == 0 )
			      C 			SettingColor Yellow
			      C 			.IF ( UserCurrLevel == 1)
			      C 				DrawUserCastle1 X
			      C 			.ELSEIF ( UserCurrLevel == 2)
			      C 				DrawUserCastle2 X
			      C 			.ELSEIF ( UserCurrLevel == 3)
			      C 				DrawUserCastle3 X
			      C 			.ENDIF
			      C 			DefaultColor
			      C 		.ELSE
			      C 			SettingColor LightRed
			      C 			.IF ( CompCurrLevel == 1)
			      C 				DrawCompCastle1 X
			      C 			.ELSEIF ( CompCurrLevel == 2)
			      C 				DrawCompCastle2 X
			      C 			.ELSEIF ( CompCurrLevel == 3)
			      C 				DrawCompCastle3 X
			      C 			.ENDIF
			      C 			DefaultColor
			      C 		.ENDIF	
			      C 
			      C 		ENDM
			      C 
					INCLUDE	Graph_soldier.inc
			      C ;	Version 3
 00000358		      C .Data
			      C 
			      C 
			      C 
			      C ;¢i¢i¢i¢i¢i¢i¢i¢i¢i¢i¢i¢i¢i¢i¢i¢i¢i¢i¢i¢i¢i¢i¢i¢i¢i¢i¢i¢i¢i¢i¢i¢i¢i¢i¢i¢i¢i¢i¢i
			      C ;¢i¢i¢i¢i¢i¢i¢i¢i¢i¢i¢i¢i¢i¢i¢i¢i¢i¢i  ¢i¢i¢i¢i¢i¢i¢i¢i¢i¢i¢i¢i¢i¢i¢i¢i¢i¢i¢i
			      C ;¢i¢i¢i¢i¢i¢i¢i¢i¢i¢i¢i¢i¢i¢i¢i¢i¢i    ¢i¢i¢i¢i¢i¢i¢i¢i¢i¢i¢i¢i¢i¢i¢i¢i¢i¢i
			      C ;¢i¢i¢i¢i¢i¢i¢i¢i¢i¢i¢i¢i¢i¢i¢i¢i  ¢i¢i  ¢i¢i¢i¢i¢i¢i¢i¢i¢i¢i¢i¢i¢i¢i¢i¢i¢i
			      C ;¢i¢i¢i¢i¢i¢i¢i¢i¢i¢i¢i¢i¢i¢i¢i¢i  ¢i¢i  ¢i¢i¢i¢i¢i¢i¢i¢i¢i¢i¢i¢i¢i¢i¢i¢i¢i
			      C ;¢i¢i¢i¢i¢i¢i¢i¢i¢i¢i¢i¢i¢i¢i¢i  ¢i¢i¢i¢i  ¢i¢i¢i¢i¢i¢i¢i¢i¢i¢i¢i¢i¢i¢i¢i¢i
			      C ;¢i¢i¢i¢i¢i¢i¢i¢i¢i¢i¢i¢i¢i¢i¢i  ¢i¢i¢i¢i  ¢i¢i¢i¢i¢i¢i¢i¢i¢i¢i¢i¢i¢i¢i¢i¢i
			      C ;¢i¢i¢i¢i¢i¢i¢i¢i¢i¢i¢i¢i¢i¢i          ¢i¢i¢i¢i¢i¢i¢i¢i¢i¢i¢i¢i¢i¢i¢i
			      C ;¢i¢i¢i¢i¢i¢i¢i¢i¢i¢i¢i¢i¢i  ¢i¢i¢i¢i¢i¢i¢i¢i  ¢i¢i¢i¢i¢i¢i¢i¢i¢i¢i¢i¢i¢i¢i
			      C ;¢i¢i¢i¢i¢i¢i¢i¢i¢i¢i¢i¢i¢i  ¢i¢i¢i¢i¢i¢i¢i¢i  ¢i¢i¢i¢i¢i¢i¢i¢i¢i¢i¢i¢i¢i¢i
			      C ;¢i¢i¢i¢i¢i¢i¢i¢i¢i¢i¢i¢i¢i¢i¢i¢i¢i¢i¢i¢i¢i¢i¢i¢i¢i¢i¢i¢i¢i¢i¢i¢i¢i¢i¢i¢i¢i¢i¢i
			      C 
			      C 
			      C 
			      C 	DrawSoldierA	MACRO Object, Fram
			      C 	
			      C 		.IF ( Object.Level == 1)
			      C 			DrawSoldierA1 Object.X, Fram
			      C 		.ELSEIF ( Object.Level == 2)
			      C 			DrawSoldierA2 Object.X, Fram
			      C 		.ELSEIF ( Object.Level == 3)
			      C 			DrawSoldierA3 Object.X, Fram
			      C 		.ENDIF
			      C 		
			      C 		ENDM
			      C 	
			      C 
			      C 
			      C 							        
 00000358 A3 BB 20 20 00      C 	SoldierA1_1_1		DB	"£»  ",0
 0000035D A2 70 A1 F7 20      C 	SoldierA1_1_2		DB	"¢p¡÷ ",0
	   00
 00000363 A3 4A 20 20 00      C 	SoldierA1_1_3		DB	"£J  ",0	
			      C            
 00000368 A3 BB 20 00	      C 	SoldierA1_2_1		DB	"£» ",0
 0000036C A2 70 A1 F7 00      C 	SoldierA1_2_2		DB	"¢p¡÷",0
 00000371 A2 CF 00	      C 	SoldierA1_2_3		DB	"¢Ï",0
			      C 
			      C 	DrawSoldierA1 MACRO X, Fram
			      C 		
			      C 		Translate X, 15
			      C 		.IF (Fram == 1)
			      C 			GraphDisplay SoldierA1_1_1
			      C 			GraphDisplay SoldierA1_1_2
			      C 			GraphDisplay SoldierA1_1_3
			      C 		.ELSEIF (Fram == 2)
			      C 			GraphDisplay SoldierA1_2_1
			      C 			GraphDisplay SoldierA1_2_2
			      C 			GraphDisplay SoldierA1_2_3
			      C 		.ENDIF
			      C 		
			      C 		ENDM
			      C 							          
 00000374 20 20 20 20 A3      C 	SoldierA2_1_1		DB "    £K     ",0
	   4B 20 20 20 20
	   20 00
 00000380 A1 F8 A2 70 A2      C 	SoldierA2_1_2		DB "¡ø¢p¢p¢p¡ù",0
	   70 A2 70 A1 F9
	   00
 0000038B 20 20 A2 AA A2      C 	SoldierA2_1_3		DB "  ¢ª¢f¢«  ",0
	   66 A2 AB 20 20
	   00
 00000396 20 20 20 20 A3      C 	SoldierA2_1_4		DB "    £J     ",0
	   4A 20 20 20 20
	   20 00
			      C 
			      C 
			      C 	DrawSoldierA2 MACRO X, Fram
			      C 		
			      C 		Translate X, 15
			      C 		.IF (Fram == 1)
			      C 			GraphDisplay SoldierA2_1_1
			      C 			GraphDisplay SoldierA2_1_2
			      C 			GraphDisplay SoldierA2_1_3
			      C 			GraphDisplay SoldierA2_1_4
			      C 		.ELSEIF (Fram == 2)
			      C 			GraphDisplay SoldierA2_1_1
			      C 			GraphDisplay SoldierA2_1_2
			      C 			GraphDisplay SoldierA2_1_3
			      C 			GraphDisplay SoldierA2_1_4
			      C 		.ENDIF
			      C 		
			      C 		ENDM
			      C 							              
 000003A2 20 20 20 20 20      C 	SoldierA3_1_1 		DB "      ¡¿       ",0
	   20 A1 BF 20 20
	   20 20 20 20 20
	   00
 000003B2 A2 AA A2 A9 A2      C 	SoldierA3_1_2 		DB "¢ª¢©¢p¢p¢p¢¨¢«",0
	   70 A2 70 A2 70
	   A2 A8 A2 AB 00
 000003C1 20 20 A2 AA F9      C 	SoldierA3_1_3 		DB "  ¢ªù÷¢pùõ¢«    ",0
	   F7 A2 70 F9 F5
	   A2 AB 20 20 20
	   20 00
 000003D2 20 20 20 20 20      C 	SoldierA3_1_4 		DB "     ¡¶¡¶       ",0
	   A1 B6 A1 B6 20
	   20 20 20 20 20
	   20 00
			      C 
			      C 	DrawSoldierA3 MACRO X, Fram
			      C 		
			      C 		Translate X, 14
			      C 		.IF (Fram == 1)
			      C 			GraphDisplay SoldierA3_1_1
			      C 			GraphDisplay SoldierA3_1_2
			      C 			GraphDisplay SoldierA3_1_3
			      C 			GraphDisplay SoldierA3_1_4
			      C 		.ELSEIF (Fram == 2)
			      C 			GraphDisplay SoldierA3_1_1
			      C 			GraphDisplay SoldierA3_1_2
			      C 			GraphDisplay SoldierA3_1_3
			      C 			GraphDisplay SoldierA3_1_4
			      C 		.ENDIF
			      C 		
			      C 		ENDM
			      C 	
			      C 		
			      C ;¢i¢i¢i¢i¢i¢i¢i¢i¢i¢i¢i¢i¢i¢i¢i¢i¢i¢i¢i¢i¢i¢i¢i¢i¢i¢i¢i¢i¢i¢i¢i¢i¢i¢i¢i¢i¢i¢i¢i
			      C ;¢i¢i¢i¢i¢i¢i¢i¢i¢i¢i¢i¢i¢i          ¢i¢i¢i¢i¢i¢i¢i¢i¢i¢i¢i¢i¢i¢i¢i¢i
			      C ;¢i¢i¢i¢i¢i¢i¢i¢i¢i¢i¢i¢i¢i  ¢i¢i¢i¢i¢i¢i  ¢i¢i¢i¢i¢i¢i¢i¢i¢i¢i¢i¢i¢i¢i¢i¢i
			      C ;¢i¢i¢i¢i¢i¢i¢i¢i¢i¢i¢i¢i¢i  ¢i¢i¢i¢i¢i¢i  ¢i¢i¢i¢i¢i¢i¢i¢i¢i¢i¢i¢i¢i¢i¢i¢i
			      C ;¢i¢i¢i¢i¢i¢i¢i¢i¢i¢i¢i¢i¢i  ¢i¢i¢i¢i¢i¢i  ¢i¢i¢i¢i¢i¢i¢i¢i¢i¢i¢i¢i¢i¢i¢i¢i
			      C ;¢i¢i¢i¢i¢i¢i¢i¢i¢i¢i¢i¢i¢i              ¢i¢i¢i¢i¢i¢i¢i¢i¢i¢i¢i¢i
			      C ;¢i¢i¢i¢i¢i¢i¢i¢i¢i¢i¢i¢i¢i  ¢i¢i¢i¢i¢i¢i¢i¢i¢i¢i  ¢i¢i¢i¢i¢i¢i¢i¢i¢i¢i¢i¢i
			      C ;¢i¢i¢i¢i¢i¢i¢i¢i¢i¢i¢i¢i¢i  ¢i¢i¢i¢i¢i¢i¢i¢i¢i¢i  ¢i¢i¢i¢i¢i¢i¢i¢i¢i¢i¢i¢i
			      C ;¢i¢i¢i¢i¢i¢i¢i¢i¢i¢i¢i¢i¢i  ¢i¢i¢i¢i¢i¢i¢i¢i¢i¢i  ¢i¢i¢i¢i¢i¢i¢i¢i¢i¢i¢i¢i
			      C ;¢i¢i¢i¢i¢i¢i¢i¢i¢i¢i¢i¢i¢i              ¢i¢i¢i¢i¢i¢i¢i¢i¢i¢i¢i¢i
			      C ;¢i¢i¢i¢i¢i¢i¢i¢i¢i¢i¢i¢i¢i¢i¢i¢i¢i¢i¢i¢i¢i¢i¢i¢i¢i¢i¢i¢i¢i¢i¢i¢i¢i¢i¢i¢i¢i¢i¢i
			      C 
			      C 
			      C 	DrawSoldierB	MACRO Object, Fram
			      C 	
			      C 		.IF ( Object.Level == 1)
			      C 			DrawSoldierB1 Object.X, Fram
			      C 		.ELSEIF ( Object.Level == 2)
			      C 			DrawSoldierB2 Object.X, Fram
			      C 		.ELSEIF ( Object.Level == 3)
			      C 			DrawSoldierB3 Object.X, Fram
			      C 		.ENDIF
			      C 		
			      C 		ENDM
			      C 	
			      C 
			      C 							    
 000003E3 A3 4E 20 20 00      C 	SoldierB1_1_1		DB	"£N  ",0
 000003E8 A2 70 F9 F7 00      C 	SoldierB1_1_2		DB	"¢pù÷",0
 000003ED A3 53 20 20 00      C 	SoldierB1_1_3		DB	"£S  ",0
			      C             
 000003F2 A3 4E 20 20 00      C 	SoldierB1_2_1		DB	"£N  ",0
 000003F7 A2 70 F9 F7 00      C 	SoldierB1_2_2		DB	"¢pù÷",0
 000003FC A2 E6 20 20 00      C 	SoldierB1_2_3		DB	"¢æ  ",0
			      C 
			      C 	DrawSoldierB1 MACRO X, Fram
			      C 
			      C 		Translate X, 15
			      C 		.IF (Fram == 1)
			      C 			GraphDisplay SoldierB1_1_1
			      C 			GraphDisplay SoldierB1_1_2
			      C 			GraphDisplay SoldierB1_1_3
			      C 		.ELSEIF (Fram == 2)     
			      C 			GraphDisplay SoldierB1_2_1
			      C 			GraphDisplay SoldierB1_2_2
			      C 			GraphDisplay SoldierB1_2_3
			      C 		.ENDIF
			      C 		ENDM
			      C 							    
 00000401 A3 5B 20 20 00      C 	SoldierB2_1_1		DB	"£[  ",0
 00000406 A2 70 F9 F7 00      C 	SoldierB2_1_2		DB	"¢pù÷",0
 0000040B A3 4A 20 20 00      C 	SoldierB2_1_3		DB	"£J  ",0
			      C 	
 00000410 A3 5B 20 20 00      C 	SoldierB2_2_1		DB	"£[  ",0
 00000415 A2 70 F9 F7 00      C 	SoldierB2_2_2		DB	"¢pù÷",0
 0000041A 49 20 20 00	      C 	SoldierB2_2_3		DB	"I  ",0
			      C 
			      C 
			      C 	DrawSoldierB2 MACRO X, Fram
			      C 
			      C 		Translate X, 15
			      C 		.IF (Fram == 1)
			      C 			GraphDisplay SoldierB2_1_1
			      C 			GraphDisplay SoldierB2_1_2
			      C 			GraphDisplay SoldierB2_1_3
			      C 		.ELSEIF (Fram == 2)     
			      C 			GraphDisplay SoldierB2_2_1
			      C 			GraphDisplay SoldierB2_2_2
			      C 			GraphDisplay SoldierB2_2_3
			      C 		.ENDIF
			      C 		ENDM
			      C 		
			      C 							     
 0000041E 20 20 A3 5A 20      C 	SoldierB3_1_1		DB	"  £Z ",0
	   00
 00000424 A3 58 A2 70 A3      C 	SoldierB3_1_2		DB	"£X¢p£X",0
	   58 00
 0000042B 20 20 A3 53 20      C 	SoldierB3_1_3		DB	"  £S ",0
	   00
			      C 	       
 00000431 20 20 A3 5A 20      C 	SoldierB3_2_1		DB	"  £Z ",0
	   00
 00000437 A3 58 A2 70 A2      C 	SoldierB3_2_2		DB	"£X¢p¢Ç",0
	   C7 00
 0000043E 20 20 49 20 00      C 	SoldierB3_2_3		DB	"  I ",0
			      C 	       
 00000443 20 20 A3 5A 20      C 	SoldierB3_3_1		DB	"  £Z ",0
	   00
 00000449 A3 58 A2 70 A2      C 	SoldierB3_3_2		DB	"£X¢p¢Ç",0
	   C7 00
 00000450 20 20 A3 53 20      C 	SoldierB3_3_3		DB	"  £S ",0
	   00
			      C 	       
 00000456 20 20 A3 5A 20      C 	SoldierB3_4_1		DB	"  £Z ",0
	   00
 0000045C A2 C7 A2 70 A3      C 	SoldierB3_4_2		DB	"¢Ç¢p£X",0
	   58 00
 00000463 20 20 49 20 00      C 	SoldierB3_4_3		DB	"  I ",0
			      C     
			      C 	DrawSoldierB3 MACRO X, Fram
			      C 
			      C 		Translate X, 15
			      C 		.IF (Fram == 1)
			      C 			GraphDisplay SoldierB3_1_1
			      C 			GraphDisplay SoldierB3_1_2
			      C 			GraphDisplay SoldierB3_1_3
			      C 		.ELSEIF (Fram == 2)     
			      C 			GraphDisplay SoldierB3_2_1
			      C 			GraphDisplay SoldierB3_2_2
			      C 			GraphDisplay SoldierB3_2_3
			      C 		.ELSEIF (Fram == 3)     
			      C 			GraphDisplay SoldierB3_3_1
			      C 			GraphDisplay SoldierB3_3_2
			      C 			GraphDisplay SoldierB3_3_3
			      C 		.ELSEIF (Fram == 4)     
			      C 			GraphDisplay SoldierB3_4_1
			      C 			GraphDisplay SoldierB3_4_2
			      C 			GraphDisplay SoldierB3_4_3
			      C 		.ENDIF
			      C 		ENDM
			      C 		
			      C 						
			      C 
			      C 
			      C 		
			      C ;¢i¢i¢i¢i¢i¢i¢i¢i¢i¢i¢i¢i¢i¢i¢i¢i¢i¢i¢i¢i¢i¢i¢i¢i¢i¢i¢i¢i¢i¢i¢i¢i¢i¢i¢i¢i¢i¢i¢i
			      C ;¢i¢i¢i¢i¢i¢i¢i¢i¢i¢i¢i¢i¢i             ¢i¢i¢i¢i¢i¢i¢i¢i¢i¢i¢i¢i¢i
			      C ;¢i¢i¢i¢i¢i¢i¢i¢i¢i¢i¢i¢i¢i  ¢i¢i¢i¢i¢i¢i¢i¢i¢i¢i¢i¢i¢i¢i¢i¢i¢i¢i¢i¢i¢i¢i¢i¢i
			      C ;¢i¢i¢i¢i¢i¢i¢i¢i¢i¢i¢i¢i¢i  ¢i¢i¢i¢i¢i¢i¢i¢i¢i¢i¢i¢i¢i¢i¢i¢i¢i¢i¢i¢i¢i¢i¢i¢i
			      C ;¢i¢i¢i¢i¢i¢i¢i¢i¢i¢i¢i¢i¢i  ¢i¢i¢i¢i¢i¢i¢i¢i¢i¢i¢i¢i¢i¢i¢i¢i¢i¢i¢i¢i¢i¢i¢i¢i
			      C ;¢i¢i¢i¢i¢i¢i¢i¢i¢i¢i¢i¢i¢i  ¢i¢i¢i¢i¢i¢i¢i¢i¢i¢i¢i¢i¢i¢i¢i¢i¢i¢i¢i¢i¢i¢i¢i¢i
			      C ;¢i¢i¢i¢i¢i¢i¢i¢i¢i¢i¢i¢i¢i  ¢i¢i¢i¢i¢i¢i¢i¢i¢i¢i¢i¢i¢i¢i¢i¢i¢i¢i¢i¢i¢i¢i¢i¢i
			      C ;¢i¢i¢i¢i¢i¢i¢i¢i¢i¢i¢i¢i¢i  ¢i¢i¢i¢i¢i¢i¢i¢i¢i¢i¢i¢i¢i¢i¢i¢i¢i¢i¢i¢i¢i¢i¢i¢i
			      C ;¢i¢i¢i¢i¢i¢i¢i¢i¢i¢i¢i¢i¢i  ¢i¢i¢i¢i¢i¢i¢i¢i¢i¢i¢i¢i¢i¢i¢i¢i¢i¢i¢i¢i¢i¢i¢i¢i
			      C ;¢i¢i¢i¢i¢i¢i¢i¢i¢i¢i¢i¢i¢i             ¢i¢i¢i¢i¢i¢i¢i¢i¢i¢i¢i¢i¢i
			      C ;¢i¢i¢i¢i¢i¢i¢i¢i¢i¢i¢i¢i¢i¢i¢i¢i¢i¢i¢i¢i¢i¢i¢i¢i¢i¢i¢i¢i¢i¢i¢i¢i¢i¢i¢i¢i¢i¢i¢i
			      C 
			      C 
			      C 
			      C 	DrawSoldierC	MACRO Object, Fram
			      C 		.IF ( Object.Level == 1)
			      C 			DrawSoldierC1 Object.X, Fram
			      C 		.ELSEIF ( Object.Level == 2)
			      C 			DrawSoldierC2 Object.X, Fram
			      C 		.ELSEIF ( Object.Level == 3)
			      C 			DrawSoldierC3 Object.X, Fram
			      C 		.ENDIF
			      C 		
			      C 		ENDM
			      C 
			      C 
			      C 							      
 00000468 20 20 A3 BB A3      C 		SoldierC1_1_1	DB "  £»£»  ",0
	   BB 20 20 00
 00000471 A1 69 A2 70 A2      C 		SoldierC1_1_2	DB "¡i¢p¢p¡j",0
	   70 A1 6A 00
 0000047A 20 20 A1 E4 A1      C 		SoldierC1_1_3	DB "  ¡ä¡ä  ",0
	   E4 20 20 00
			      C 		
 00000483 20 20 A2 E2 20      C 		SoldierC1_2_1	DB "  ¢â  ",0
	   20 00
 0000048A A1 69 A2 70 A2      C 		SoldierC1_2_2	DB "¡i¢p¢p¡j",0
	   70 A1 6A 00
 00000493 20 20 A1 E4 A1      C 		SoldierC1_2_3	DB "  ¡ä¡ä  ",0
	   E4 20 20 00
			      C 		
 0000049C 20 20 20 20 A2      C 		SoldierC1_3_1	DB "    ¢â  ",0
	   E2 20 20 00
 000004A5 A1 69 A2 70 A2      C 		SoldierC1_3_2	DB "¡i¢p¢p¡j",0
	   70 A1 6A 00
 000004AE 20 20 A1 E4 A1      C 		SoldierC1_3_3	DB "  ¡ä¡ä  ",0
	   E4 20 20 00
			      C 		
 000004B7 20 20 A2 E2 A2      C 		SoldierC1_4_1	DB "  ¢â¢â  ",0
	   E2 20 20 00
 000004C0 A1 69 A2 70 A2      C 		SoldierC1_4_2	DB "¡i¢p¢p¡j",0
	   70 A1 6A 00
 000004C9 20 20 A1 E4 A1      C 		SoldierC1_4_3	DB "  ¡ä¡ä  ",0
	   E4 20 20 00
			      C 
			      C 		DrawSoldierC1 MACRO X, Fram
			      C 
			      C 			Translate X, 15
			      C 			.IF (Fram == 1)
			      C 				GraphDisplay SoldierC1_1_1
			      C 				GraphDisplay SoldierC1_1_2
			      C 				GraphDisplay SoldierC1_1_3
			      C 			.ELSEIF (Fram == 2)     
			      C 				GraphDisplay SoldierC1_2_1
			      C 				GraphDisplay SoldierC1_2_2
			      C 				GraphDisplay SoldierC1_2_3
			      C 			.ELSEIF (Fram == 3)     
			      C 				GraphDisplay SoldierC1_3_1
			      C 				GraphDisplay SoldierC1_3_2
			      C 				GraphDisplay SoldierC1_3_3
			      C 			.ELSEIF (Fram == 4)     
			      C 				GraphDisplay SoldierC1_4_1
			      C 				GraphDisplay SoldierC1_4_2
			      C 				GraphDisplay SoldierC1_4_3
			      C 			.ENDIF
			      C 			ENDM
			      C 			
			      C 							        
 000004D2 20 20 A1 B6 A1      C 		SoldierC2_1_1	DB "  ¡¶¡¶    ",0
	   B6 20 20 20 20
	   00
 000004DD A2 A8 A2 70 A2      C 		SoldierC2_1_2	DB "¢¨¢p¢p¢©",0
	   70 A2 A9 00
 000004E6 A1 69 A3 BB A3      C 		SoldierC2_1_3	DB "¡i£»£»¡j  ",0
	   BB A1 6A 20 20
	   00
 000004F1 20 20 A2 45 A2      C 		SoldierC2_1_4	DB "  ¢E¢E  ",0
	   45 20 20 00
			      C 		
			      C 		DrawSoldierC2 MACRO X, Fram
			      C 
			      C 			Translate X, 14
			      C 			
			      C 			GraphDisplay SoldierC2_1_1
			      C 			GraphDisplay SoldierC2_1_2
			      C 			GraphDisplay SoldierC2_1_3
			      C 			GraphDisplay SoldierC2_1_4
			      C 			
			      C 			ENDM
			      C 							        
 000004FA 20 20 A2 A8 A2      C 		SoldierC3_1_1 	DB "  ¢¨¢©  ",0
	   A9 20 20 00
 00000503 A2 A8 A3 BB A3      C 		SoldierC3_1_2 	DB "¢¨£»£»¢©  ",0
	   BB A2 A9 20 20
	   00
 0000050E A1 69 A2 70 A2      C 		SoldierC3_1_3 	DB "¡i¢p¢p¡j  ",0
	   70 A1 6A 20 20
	   00
 00000519 20 20 A2 70 A2      C 		SoldierC3_1_4 	DB "  ¢p¢p  ",0
	   70 20 20 00
 00000522 20 20 A1 B6 A1      C 		SoldierC3_1_5 	DB "  ¡¶¡¶    ",0
	   B6 20 20 20 20
	   00
			      C   
			      C  		
			      C 		DrawSoldierC3 MACRO X, Fram
			      C 
			      C 			Translate X, 13
			      C 				GraphDisplay SoldierC3_1_1
			      C 				GraphDisplay SoldierC3_1_2
			      C 				GraphDisplay SoldierC3_1_3
			      C 				GraphDisplay SoldierC3_1_4
			      C 				GraphDisplay SoldierC3_1_5
			      C 			ENDM 
			      C   
			      C   
			      C   
			      C 
					INCLUDE	Graph_turret.inc
			      C ;	Version 3
			      C ;¢i¢i¢i¢i¢i¢i¢i¢i¢i¢i¢i¢i¢i¢i¢i¢i¢i¢i¢i¢i¢i¢i¢i¢i¢i¢i¢i¢i¢i¢i¢i¢i¢i¢i¢i¢i¢i¢i¢i
			      C ;This is a file defined Turrent .
			      C ;
			      C ;EXAMPLE
			      C ;	Turrent_1_1    DB     "	  ¢i¢i¢i¢i	 	",0
			      C ;	Turrent_1_2    DB     "	¢i¢i	  ¢i¢i 	",0
			      C ;	Turrent_1_3    DB     "	  ¢i¢i    ¢i¢i	",0
			      C ;	Turrent_1_4    DB     "		¢i¢i	  ¢i¢i",0
			      C ;	Turrent_1_5    DB     "		¢i ¢i¢i¢i¢i¢i¢i",0
			      C ;	Turrent_1_6    DB     "		¢i 		",0
			      C ;	Turrent_1_7    DB     "		¢i  		",0
			      C ;
			      C ;¢i¢i¢i¢i¢i¢i¢i¢i¢i¢i¢i¢i¢i¢i¢i¢i¢i¢i¢i¢i¢i¢i¢i¢i¢i¢i¢i¢i¢i¢i¢i¢i¢i¢i¢i¢i¢i¢i¢i
			      C 
 0000052D		      C .Data
			      C 
 0000052D 20 20 A1 EF 20      C 	Turrent_1_1 	DB "  ¡ï ",0
	   00
 00000533 20 20 A2 69 20      C 	Turrent_1_2 	DB "  ¢i ",0
	   00
 00000539 20 20 A2 69 20      C 	Turrent_1_3 	DB "  ¢i ",0
	   00
 0000053F A1 B6 A1 BF A1      C 	Turrent_1_4		DB "¡¶¡¿¡¶ ",0
	   B6 20 00
			      C 
			      C 	DrawTurrent MACRO X, Y
			      C 
			      C 		Translate X, Y
			      C 
			      C 		GraphDisplay Turrent_1_1
			      C 		GraphDisplay Turrent_1_2
			      C 		GraphDisplay Turrent_1_3
			      C 		GraphDisplay Turrent_1_4
			      C 
			      C 		ENDM
			      C 
					INCLUDE	Graph_Monster.inc
			      C ;	Version 3
 00000547		      C .Data
			      C 
			      C 
			      C ;¢i¢i¢i¢i¢i¢i¢i¢i¢i¢i¢i¢i¢i¢i¢i¢i¢i¢i¢i¢i¢i¢i¢i¢i¢i¢i¢i¢i¢i¢i¢i¢i¢i¢i¢i¢i¢i¢i¢i
			      C ;¢i¢i¢i¢i¢i¢i¢i¢i¢i¢i¢i¢i¢i¢i¢i¢i¢i¢i  ¢i¢i¢i¢i¢i¢i¢i¢i¢i¢i¢i¢i¢i¢i¢i¢i¢i¢i¢i
			      C ;¢i¢i¢i¢i¢i¢i¢i¢i¢i¢i¢i¢i¢i¢i¢i¢i¢i    ¢i¢i¢i¢i¢i¢i¢i¢i¢i¢i¢i¢i¢i¢i¢i¢i¢i¢i
			      C ;¢i¢i¢i¢i¢i¢i¢i¢i¢i¢i¢i¢i¢i¢i¢i¢i  ¢i¢i  ¢i¢i¢i¢i¢i¢i¢i¢i¢i¢i¢i¢i¢i¢i¢i¢i¢i
			      C ;¢i¢i¢i¢i¢i¢i¢i¢i¢i¢i¢i¢i¢i¢i¢i¢i  ¢i¢i  ¢i¢i¢i¢i¢i¢i¢i¢i¢i¢i¢i¢i¢i¢i¢i¢i¢i
			      C ;¢i¢i¢i¢i¢i¢i¢i¢i¢i¢i¢i¢i¢i¢i¢i  ¢i¢i¢i¢i  ¢i¢i¢i¢i¢i¢i¢i¢i¢i¢i¢i¢i¢i¢i¢i¢i
			      C ;¢i¢i¢i¢i¢i¢i¢i¢i¢i¢i¢i¢i¢i¢i¢i  ¢i¢i¢i¢i  ¢i¢i¢i¢i¢i¢i¢i¢i¢i¢i¢i¢i¢i¢i¢i¢i
			      C ;¢i¢i¢i¢i¢i¢i¢i¢i¢i¢i¢i¢i¢i¢i          ¢i¢i¢i¢i¢i¢i¢i¢i¢i¢i¢i¢i¢i¢i¢i
			      C ;¢i¢i¢i¢i¢i¢i¢i¢i¢i¢i¢i¢i¢i  ¢i¢i¢i¢i¢i¢i¢i¢i  ¢i¢i¢i¢i¢i¢i¢i¢i¢i¢i¢i¢i¢i¢i
			      C ;¢i¢i¢i¢i¢i¢i¢i¢i¢i¢i¢i¢i¢i  ¢i¢i¢i¢i¢i¢i¢i¢i  ¢i¢i¢i¢i¢i¢i¢i¢i¢i¢i¢i¢i¢i¢i
			      C ;¢i¢i¢i¢i¢i¢i¢i¢i¢i¢i¢i¢i¢i¢i¢i¢i¢i¢i¢i¢i¢i¢i¢i¢i¢i¢i¢i¢i¢i¢i¢i¢i¢i¢i¢i¢i¢i¢i¢i
			      C 
			      C 
			      C 	DrawMonsterA	MACRO	Object, Fram
			      C 		
			      C 		.IF ( Object.Level == 1)
			      C 			DrawMonsterA1 Object.X, Fram
			      C 		.ELSEIF ( Object.Level == 2)
			      C 			DrawMonsterA2 Object.X, Fram
			      C 		.ELSEIF ( Object.Level == 3)
			      C 			DrawMonsterA3 Object.X, Fram
			      C 		.ENDIF
			      C 		
			      C 		ENDM
			      C 
			      C 
			      C 
			      C 
 00000547 20 A2 AC A2 AD      C 	MonsterA1_1_1 		DB 		" ¢¬¢­ " ,0
	   20 00
 0000054E A1 FC A1 FC A1      C 	MonsterA1_1_2 		DB 		"¡ü¡ü¡ü  "	,0
	   FC 20 20 00
 00000557 F9 F5 A1 F3 F9      C 	MonsterA1_1_3 		DB 		"ùõ¡óù÷" ,0
	   F7 00
 0000055E 20 20 A2 70 00      C 	MonsterA1_1_4 		DB 		"  ¢p" ,0
			      C 
			      C 	DrawMonsterA1 MACRO X, Fram
			      C 
			      C 		Translate X, 14
			      C 		.IF (Fram == 1)
			      C 			GraphDisplay MonsterA1_1_1
			      C 			GraphDisplay MonsterA1_1_2
			      C 			GraphDisplay MonsterA1_1_3
			      C 			GraphDisplay MonsterA1_1_4
			      C 		.ELSEIF  (Fram == 2)
			      C 			GraphDisplay MonsterA1_1_1
			      C 			GraphDisplay MonsterA1_1_2
			      C 			GraphDisplay MonsterA1_1_3
			      C 			GraphDisplay MonsterA1_1_4
			      C 		.ENDIF
			      C 		ENDM
			      C 		
			      C 		
			      C 
 00000563 20 A2 A8 A2 A9      C 	MonsterA2_1_1 		DB	" ¢¨¢©",0
	   00
 00000569 A1 FC A1 F3 A1      C 	MonsterA2_1_2 		DB	"¡ü¡ó¡ü  ",0
	   FC 20 20 00
 00000572 F9 E3 A2 70 F9      C 	MonsterA2_1_3 		DB	"ùã¢pùå ",0
	   E5 20 00
 0000057A 20 20 A1 FC 09      C 	MonsterA2_1_4 		DB	"  ¡ü	  ",0
	   20 20 00
			      C 		
			      C 
			      C 	DrawMonsterA2 MACRO X, Fram
			      C 
			      C 		Translate X, 14
			      C 		.IF (Fram == 1)
			      C 			GraphDisplay MonsterA2_1_1
			      C 			GraphDisplay MonsterA2_1_2
			      C 			GraphDisplay MonsterA2_1_3
			      C 			GraphDisplay MonsterA2_1_4
			      C 			
			      C 		.ELSEIF  (Fram == 2)
			      C 			GraphDisplay MonsterA2_1_1
			      C 			GraphDisplay MonsterA2_1_2
			      C 			GraphDisplay MonsterA2_1_3
			      C 			GraphDisplay MonsterA2_1_4
			      C 		.ENDIF
			      C 		ENDM
			      C 
			      C 
 00000582 20 20 20 A1 B6      C 	MonsterA3_1_1 	DB "   ¡¶   ",0
	   20 20 20 00
 0000058B 20 A2 A8 A2 70      C 	MonsterA3_1_2 	DB " ¢¨¢p¢©",0
	   A2 A9 00
 00000593 20 A1 FC A1 B9      C 	MonsterA3_1_3 	DB " ¡ü¡¹¡ü   ",0
	   A1 FC 20 20 20
	   00
 0000059E 20 A1 FC A2 45      C 	MonsterA3_1_4 	DB " ¡ü¢E¡ü  ",0
	   A1 FC 20 20 00
 000005A8 F9 E3 20 A1 F3      C 	MonsterA3_1_5 	DB "ùã ¡ó ùå",0
	   20 F9 E5 00
 000005B1 20 20 20 A1 BF      C 	MonsterA3_1_6 	DB "   ¡¿  ",0
	   20 20 00
			      C 			
			      C 
			      C 	DrawMonsterA3 MACRO X, Fram
			      C 
			      C 		Translate X, 12
			      C 		.IF (Fram == 1)
			      C 			GraphDisplay MonsterA3_1_1
			      C 			GraphDisplay MonsterA3_1_2
			      C 			GraphDisplay MonsterA3_1_3
			      C 			GraphDisplay MonsterA3_1_4
			      C 			GraphDisplay MonsterA3_1_5
			      C 			GraphDisplay MonsterA3_1_6
			      C 		.ELSEIF  (Fram == 2)
			      C 			GraphDisplay MonsterA3_1_1
			      C 			GraphDisplay MonsterA3_1_2
			      C 			GraphDisplay MonsterA3_1_3
			      C 			GraphDisplay MonsterA3_1_4
			      C 			GraphDisplay MonsterA3_1_5
			      C 			GraphDisplay MonsterA3_1_6
			      C 		.ENDIF
			      C 		ENDM
			      C 	
			      C 		
			      C 	
			      C 
			      C 		
			      C ;¢i¢i¢i¢i¢i¢i¢i¢i¢i¢i¢i¢i¢i¢i¢i¢i¢i¢i¢i¢i¢i¢i¢i¢i¢i¢i¢i¢i¢i¢i¢i¢i¢i¢i¢i¢i¢i¢i¢i
			      C ;¢i¢i¢i¢i¢i¢i¢i¢i¢i¢i¢i¢i¢i          ¢i¢i¢i¢i¢i¢i¢i¢i¢i¢i¢i¢i¢i¢i¢i¢i
			      C ;¢i¢i¢i¢i¢i¢i¢i¢i¢i¢i¢i¢i¢i  ¢i¢i¢i¢i¢i¢i  ¢i¢i¢i¢i¢i¢i¢i¢i¢i¢i¢i¢i¢i¢i¢i¢i
			      C ;¢i¢i¢i¢i¢i¢i¢i¢i¢i¢i¢i¢i¢i  ¢i¢i¢i¢i¢i¢i  ¢i¢i¢i¢i¢i¢i¢i¢i¢i¢i¢i¢i¢i¢i¢i¢i
			      C ;¢i¢i¢i¢i¢i¢i¢i¢i¢i¢i¢i¢i¢i  ¢i¢i¢i¢i¢i¢i  ¢i¢i¢i¢i¢i¢i¢i¢i¢i¢i¢i¢i¢i¢i¢i¢i
			      C ;¢i¢i¢i¢i¢i¢i¢i¢i¢i¢i¢i¢i¢i              ¢i¢i¢i¢i¢i¢i¢i¢i¢i¢i¢i¢i
			      C ;¢i¢i¢i¢i¢i¢i¢i¢i¢i¢i¢i¢i¢i  ¢i¢i¢i¢i¢i¢i¢i¢i¢i¢i  ¢i¢i¢i¢i¢i¢i¢i¢i¢i¢i¢i¢i
			      C ;¢i¢i¢i¢i¢i¢i¢i¢i¢i¢i¢i¢i¢i  ¢i¢i¢i¢i¢i¢i¢i¢i¢i¢i  ¢i¢i¢i¢i¢i¢i¢i¢i¢i¢i¢i¢i
			      C ;¢i¢i¢i¢i¢i¢i¢i¢i¢i¢i¢i¢i¢i  ¢i¢i¢i¢i¢i¢i¢i¢i¢i¢i  ¢i¢i¢i¢i¢i¢i¢i¢i¢i¢i¢i¢i
			      C ;¢i¢i¢i¢i¢i¢i¢i¢i¢i¢i¢i¢i¢i              ¢i¢i¢i¢i¢i¢i¢i¢i¢i¢i¢i¢i
			      C ;¢i¢i¢i¢i¢i¢i¢i¢i¢i¢i¢i¢i¢i¢i¢i¢i¢i¢i¢i¢i¢i¢i¢i¢i¢i¢i¢i¢i¢i¢i¢i¢i¢i¢i¢i¢i¢i¢i¢i
			      C 
			      C 
			      C 	DrawMonsterB	MACRO	Object, Fram
			      C 		
			      C 		.IF ( Object.Level == 1)
			      C 			DrawMonsterB1 Object.X, Fram
			      C 		.ELSEIF ( Object.Level == 2)
			      C 			DrawMonsterB2 Object.X, Fram
			      C 		.ELSEIF ( Object.Level == 3)
			      C 			DrawMonsterB3 Object.X, Fram
			      C 		.ENDIF
			      C 		
			      C 		ENDM
			      C 
			      C 
			      C 
 000005B9 20 20 20 20 00      C 	MonsterB1_1_1    	DB     	"    ",0
 000005BE 20 20 20 20 00      C 	MonsterB1_1_2    	DB     	"    ",0
 000005C3 3D A1 F3 3D 00      C 	MonsterB1_1_3   	DB     	"=¡ó=",0
			      C 	       
 000005C8 20 20 20 20 00      C 	MonsterB1_2_1    	DB     	"    ",0
 000005CD 3D A1 F3 3D 00      C 	MonsterB1_2_2    	DB     	"=¡ó=",0
 000005D2 20 20 20 20 00      C 	MonsterB1_2_3    	DB     	"    ",0
			      C 	       
 000005D7 3D A1 F3 3D 00      C 	MonsterB1_3_1    	DB     	"=¡ó=",0
 000005DC 20 20 20 20 00      C 	MonsterB1_3_2    	DB     	"    ",0
 000005E1 20 20 20 20 00      C 	MonsterB1_3_3    	DB     	"    ",0
			      C 		
			      C 
			      C 	DrawMonsterB1 MACRO X, Fram
			      C 
			      C 		Translate X, 15
			      C 		.IF (Fram == 1 || Fram == 5)
			      C 			GraphDisplay MonsterB1_1_1
			      C 			GraphDisplay MonsterB1_1_2
			      C 			GraphDisplay MonsterB1_1_3
			      C 		.ELSEIF  (Fram == 2 || Fram == 4)
			      C 			GraphDisplay MonsterB1_2_1
			      C 			GraphDisplay MonsterB1_2_2
			      C 			GraphDisplay MonsterB1_2_3
			      C 		.ELSE
			      C 			GraphDisplay MonsterB1_3_1
			      C 			GraphDisplay MonsterB1_3_2
			      C 			GraphDisplay MonsterB1_3_3
			      C 		.ENDIF
			      C 		ENDM
			      C 
 000005E6 20 20 20 20 20      C 	MonsterB2_1_1		DB "      ",0
	   20 00
 000005ED 20 20 20 20 20      C 	MonsterB2_1_2		DB "      ",0
	   20 00
 000005F4 20 20 A1 E5 20      C 	MonsterB2_1_3		DB "  ¡å   ",0
	   20 20 00
 000005FC 3C 3D A1 F3 3D      C 	MonsterB2_1_4		DB "<=¡ó=>",0
	   3E 00
 00000603 20 20 A1 D0 20      C 	MonsterB2_1_5		DB "  ¡Ð  ",0
	   20 00
			      C 	
 0000060A 20 20 20 20 20      C 	MonsterB2_2_1		DB "      ",0
	   20 00
 00000611 20 20 A1 E5 20      C 	MonsterB2_2_2		DB "  ¡å   ",0
	   20 20 00
 00000619 3C 3D A1 F3 3D      C 	MonsterB2_2_3		DB "<=¡ó=>",0
	   3E 00
 00000620 20 20 A1 D0 20      C 	MonsterB2_2_4		DB "  ¡Ð  ",0
	   20 00
 00000627 20 20 20 20 20      C 	MonsterB2_2_5		DB "      ",0
	   20 00
			      C 	
 0000062E 20 20 A1 E5 20      C 	MonsterB2_3_1		DB "  ¡å   ",0
	   20 20 00
 00000636 3C 3D A1 F3 3D      C 	MonsterB2_3_2		DB "<=¡ó=>",0
	   3E 00
 0000063D 20 20 A1 D0 20      C 	MonsterB2_3_3		DB "  ¡Ð  ",0
	   20 00
 00000644 20 20 20 20 20      C 	MonsterB2_3_4		DB "      ",0
	   20 00
 0000064B 20 20 20 20 20      C 	MonsterB2_3_5		DB "      ",0
	   20 00
			      C 
			      C 	DrawMonsterB2 MACRO X, Fram
			      C 
			      C 		Translate X, 13
			      C 		.IF (Fram == 1 || Fram == 5)
			      C 			GraphDisplay MonsterB2_1_1
			      C 			GraphDisplay MonsterB2_1_2
			      C 			GraphDisplay MonsterB2_1_3
			      C 			GraphDisplay MonsterB2_1_4
			      C 			GraphDisplay MonsterB2_1_5
			      C 		.ELSEIF  (Fram == 2 || Fram == 4)
			      C 			GraphDisplay MonsterB2_2_1
			      C 			GraphDisplay MonsterB2_2_2
			      C 			GraphDisplay MonsterB2_2_3
			      C 			GraphDisplay MonsterB2_2_4
			      C 			GraphDisplay MonsterB2_2_5
			      C 		.ELSE
			      C 			GraphDisplay MonsterB2_3_1
			      C 			GraphDisplay MonsterB2_3_2
			      C 			GraphDisplay MonsterB2_3_3
			      C 			GraphDisplay MonsterB2_3_4
			      C 			GraphDisplay MonsterB2_3_5
			      C 		.ENDIF
			      C 		ENDM
			      C 		
			      C 
 00000652 20 20 20 20 20      C 		MonsterB3_1_1 		DB "       ",0
	   20 20 00
 0000065A 20 20 20 20 20      C 		MonsterB3_1_2 		DB "       ",0
	   20 20 00
 00000662 20 20 A3 5A 20      C 		MonsterB3_1_3 		DB "  £Z    ",0
	   20 20 20 00
 0000066B A1 D9 A1 F3 A1      C 		MonsterB3_1_4 		DB "¡Ù¡ó¡Ø ",0
	   D8 20 00
 00000673 20 20 F9 DE 20      C 		MonsterB3_1_5 		DB "  ùÞ  	",0
	   20 09 00
			      C 
 0000067B 20 20 20 20 20      C 		MonsterB3_2_1 		DB "       ",0
	   20 20 00
 00000683 20 20 A3 5A 20      C 		MonsterB3_2_2 		DB "  £Z    ",0
	   20 20 20 00
 0000068C A1 D9 A1 F3 A1      C 		MonsterB3_2_3 		DB "¡Ù¡ó¡Ø ",0
	   D8 20 00
 00000694 20 20 F9 DE 20      C 		MonsterB3_2_4 		DB "  ùÞ  	",0
	   20 09 00
 0000069C 20 20 20 20 20      C 		MonsterB3_2_5 		DB "       ",0
	   20 20 00
			      C 
 000006A4 20 20 A3 5A 20      C 		MonsterB3_3_1 		DB "  £Z    ",0
	   20 20 20 00
 000006AD A1 D9 A1 F3 A1      C 		MonsterB3_3_2 		DB "¡Ù¡ó¡Ø ",0
	   D8 20 00
 000006B5 20 20 F9 DE 20      C 		MonsterB3_3_3 		DB "  ùÞ  	",0
	   20 09 00
 000006BD 20 20 20 20 20      C 		MonsterB3_3_4 		DB "       ",0
	   20 20 00
 000006C5 20 20 20 20 20      C 		MonsterB3_3_5 		DB "       ",0
	   20 20 00
			      C 
			      C 	DrawMonsterB3 MACRO X, Fram
			      C 
			      C 		Translate X, 13
			      C 		.IF (Fram == 1 || Fram == 5)
			      C 			GraphDisplay MonsterB3_1_1
			      C 			GraphDisplay MonsterB3_1_2
			      C 			GraphDisplay MonsterB3_1_3
			      C 			GraphDisplay MonsterB3_1_4
			      C 			GraphDisplay MonsterB3_1_5
			      C 		.ELSEIF  (Fram == 2 || Fram == 4)
			      C 			GraphDisplay MonsterB3_2_1
			      C 			GraphDisplay MonsterB3_2_2
			      C 			GraphDisplay MonsterB3_2_3
			      C 			GraphDisplay MonsterB3_2_4
			      C 			GraphDisplay MonsterB3_2_5
			      C 		.ELSE
			      C 			GraphDisplay MonsterB3_3_1
			      C 			GraphDisplay MonsterB3_3_2
			      C 			GraphDisplay MonsterB3_3_3
			      C 			GraphDisplay MonsterB3_3_4
			      C 			GraphDisplay MonsterB3_3_5
			      C 		.ENDIF
			      C 		ENDM		
			      C 		
			      C 		
			      C 		
			      C 		
			      C 		
			      C ;¢i¢i¢i¢i¢i¢i¢i¢i¢i¢i¢i¢i¢i¢i¢i¢i¢i¢i¢i¢i¢i¢i¢i¢i¢i¢i¢i¢i¢i¢i¢i¢i¢i¢i¢i¢i¢i¢i¢i
			      C ;¢i¢i¢i¢i¢i¢i¢i¢i¢i¢i¢i¢i¢i             ¢i¢i¢i¢i¢i¢i¢i¢i¢i¢i¢i¢i¢i
			      C ;¢i¢i¢i¢i¢i¢i¢i¢i¢i¢i¢i¢i¢i  ¢i¢i¢i¢i¢i¢i¢i¢i¢i¢i¢i¢i¢i¢i¢i¢i¢i¢i¢i¢i¢i¢i¢i¢i
			      C ;¢i¢i¢i¢i¢i¢i¢i¢i¢i¢i¢i¢i¢i  ¢i¢i¢i¢i¢i¢i¢i¢i¢i¢i¢i¢i¢i¢i¢i¢i¢i¢i¢i¢i¢i¢i¢i¢i
			      C ;¢i¢i¢i¢i¢i¢i¢i¢i¢i¢i¢i¢i¢i  ¢i¢i¢i¢i¢i¢i¢i¢i¢i¢i¢i¢i¢i¢i¢i¢i¢i¢i¢i¢i¢i¢i¢i¢i
			      C ;¢i¢i¢i¢i¢i¢i¢i¢i¢i¢i¢i¢i¢i  ¢i¢i¢i¢i¢i¢i¢i¢i¢i¢i¢i¢i¢i¢i¢i¢i¢i¢i¢i¢i¢i¢i¢i¢i
			      C ;¢i¢i¢i¢i¢i¢i¢i¢i¢i¢i¢i¢i¢i  ¢i¢i¢i¢i¢i¢i¢i¢i¢i¢i¢i¢i¢i¢i¢i¢i¢i¢i¢i¢i¢i¢i¢i¢i
			      C ;¢i¢i¢i¢i¢i¢i¢i¢i¢i¢i¢i¢i¢i  ¢i¢i¢i¢i¢i¢i¢i¢i¢i¢i¢i¢i¢i¢i¢i¢i¢i¢i¢i¢i¢i¢i¢i¢i
			      C ;¢i¢i¢i¢i¢i¢i¢i¢i¢i¢i¢i¢i¢i  ¢i¢i¢i¢i¢i¢i¢i¢i¢i¢i¢i¢i¢i¢i¢i¢i¢i¢i¢i¢i¢i¢i¢i¢i
			      C ;¢i¢i¢i¢i¢i¢i¢i¢i¢i¢i¢i¢i¢i             ¢i¢i¢i¢i¢i¢i¢i¢i¢i¢i¢i¢i¢i
			      C ;¢i¢i¢i¢i¢i¢i¢i¢i¢i¢i¢i¢i¢i¢i¢i¢i¢i¢i¢i¢i¢i¢i¢i¢i¢i¢i¢i¢i¢i¢i¢i¢i¢i¢i¢i¢i¢i¢i¢i
			      C 
			      C 
			      C 
			      C 
			      C 
			      C 	DrawMonsterC	MACRO	Object, Fram
			      C 		
			      C 		.IF ( Object.Level == 1)
			      C 			DrawMonsterC1 Object.X, Fram
			      C 		.ELSEIF ( Object.Level == 2)
			      C 			DrawMonsterC2 Object.X
			      C 		.ELSEIF ( Object.Level == 3)
			      C 			DrawMonsterC3 Object.X, Fram
			      C 		.ENDIF
			      C 		
			      C 		ENDM
			      C 
			      C 
 000006CD A3 BB A2 70 A3      C 	MonsterC1_1_1		DB "£»¢p£»  ",0
	   BB 20 20 00
 000006D6 A2 70 A2 70 A2      C 	MonsterC1_1_2		DB "¢p¢p¢p",0
	   70 00
			      C 		
			      C 
			      C 	DrawMonsterC1 MACRO X, Fram
			      C 
			      C 		Translate X, 16
			      C 
			      C 		GraphDisplay MonsterC1_1_1
			      C 		GraphDisplay MonsterC1_1_2
			      C 		
			      C 		ENDM
			      C 
 000006DD A1 B6 20 20 20      C 	MonsterC2_1_1		DB "¡¶    ¡¶  ",0   
	   20 A1 B6 20 20
	   00
 000006E8 A2 70 A2 70 A2      C 	MonsterC2_1_2		DB "¢p¢p¢p¢p",0
	   70 A2 70 00
 000006F1 A2 70 A3 BB A3      C 	MonsterC2_1_3		DB "¢p£»£»¢p  ",0
	   BB A2 70 20 20
	   00
 000006FC 20 20 20 20 20      C 	MonsterC2_1_4		DB "        ",0
	   20 20 20 00
 00000705 A2 70 A2 70 A2      C 	MonsterC2_1_5		DB "¢p¢p¢p¢p",0
	   70 A2 70 00
			      C 	
 0000070E 20 20 20 20 20      C 	MonsterC2_2_1		DB "        ",0
	   20 20 20 00
 00000717 A1 B6 20 20 20      C 	MonsterC2_2_2		DB "¡¶    ¡¶  ",0   
	   20 A1 B6 20 20
	   00
 00000722 A2 70 A2 70 A2      C 	MonsterC2_2_3		DB "¢p¢p¢p¢p",0
	   70 A2 70 00
 0000072B A2 70 A3 BB A3      C 	MonsterC2_2_4		DB "¢p£»£»¢p  ",0
	   BB A2 70 20 20
	   00
 00000736 A2 70 A2 70 A2      C 	MonsterC2_2_5		DB "¢p¢p¢p¢p",0
	   70 A2 70 00
			      C 
			      C 	DrawMonsterC2 MACRO X
			      C 
			      C 		Translate X, 13
			      C 		
			      C 		.IF ( Beats2x == 1 )
			      C 			GraphDisplay MonsterC2_2_1
			      C 			GraphDisplay MonsterC2_2_2
			      C 			GraphDisplay MonsterC2_2_3
			      C 			GraphDisplay MonsterC2_2_4
			      C 			GraphDisplay MonsterC2_2_5
			      C 		.ELSEIF ( Beats2x == 2 )
			      C 			GraphDisplay MonsterC2_1_1
			      C 			GraphDisplay MonsterC2_1_2
			      C 			GraphDisplay MonsterC2_1_3
			      C 			GraphDisplay MonsterC2_1_4
			      C 			GraphDisplay MonsterC2_1_5
			      C 		.ENDIF
			      C 		ENDM
			      C 
			      C 
 0000073F 20 20 20 20 A2      C 		MonsterC3_1_1		DB "    ¢¬¢@     ",0
	   AC A2 40 20 20
	   20 20 20 00
 0000074D 20 20 A2 A8 A2      C 		MonsterC3_1_2		DB "  ¢¨¢p¢p¢©  ",0
	   70 A2 70 A2 A9
	   20 20 00
 0000075A 20 20 A2 70 A1      C 		MonsterC3_1_3		DB "  ¢p¡¿¡¿¢p      ",0
	   BF A1 BF A2 70
	   20 20 20 20 20
	   20 00
 0000076B A2 A8 A2 70 A3      C 		MonsterC3_1_4		DB "¢¨¢p£»£»¢p¢©  ",0
	   BB A3 BB A2 70
	   A2 A9 20 20 00
 0000077A A2 AB A2 70 A2      C 		MonsterC3_1_5		DB "¢«¢p¢p¢p¢p¢ª",0
	   70 A2 70 A2 70
	   A2 AA 00
 00000787 20 20 A1 BF A1      C 		MonsterC3_1_6		DB "  ¡¿¡¿¡¿¡¿      ",0
	   BF A1 BF A1 BF
	   20 20 20 20 20
	   20 00
			      C 
 00000798 20 20 20 20 A2      C 		MonsterC3_2_1		DB "    ¢¬¢@     ",0
	   AC A2 40 20 20
	   20 20 20 00
 000007A6 20 20 A2 A8 A2      C 		MonsterC3_2_2		DB "  ¢¨¢p¢p¢©  ",0
	   70 A2 70 A2 A9
	   20 20 00
 000007B3 20 20 A2 70 A1      C 		MonsterC3_2_3		DB "  ¢p¡¿¡¿¢p      ",0
	   BF A1 BF A2 70
	   20 20 20 20 20
	   20 00
 000007C4 A2 70 A2 70 A3      C 		MonsterC3_2_4		DB "¢p¢p£»£»¢p¢p  ",0
	   BB A3 BB A2 70
	   A2 70 20 20 00
 000007D3 20 20 A2 70 A2      C 		MonsterC3_2_5		DB "  ¢p¢p¢p¢p  ",0
	   70 A2 70 A2 70
	   20 20 00
 000007E0 20 20 A1 BF A1      C 		MonsterC3_2_6		DB "  ¡¿¡¿¡¿¡¿      ",0
	   BF A1 BF A1 BF
	   20 20 20 20 20
	   20 00
			      C 
 000007F1 20 20 20 20 A2      C 		MonsterC3_3_1		DB "    ¢¬¢@     ",0
	   AC A2 40 20 20
	   20 20 20 00
 000007FF 20 20 A2 A8 A2      C 		MonsterC3_3_2		DB "  ¢¨¢p¢p¢©  ",0
	   70 A2 70 A2 A9
	   20 20 00
 0000080C A2 A9 A2 70 A1      C 		MonsterC3_3_3		DB "¢©¢p¡¿¡¿¢p¢¨     ",0
	   BF A1 BF A2 70
	   A2 A8 20 20 20
	   20 20 00
 0000081E A2 AA A2 70 A3      C 		MonsterC3_3_4		DB "¢ª¢p£»£»¢p¢«",0
	   BB A3 BB A2 70
	   A2 AB 00
 0000082B 20 20 A2 70 A2      C 		MonsterC3_3_5		DB "  ¢p¢p¢p¢p  ",0
	   70 A2 70 A2 70
	   20 20 00
 00000838 20 20 A1 BF A1      C 		MonsterC3_3_6		DB "  ¡¿¡¿¡¿¡¿      ",0
	   BF A1 BF A1 BF
	   20 20 20 20 20
	   20 00
			      C 
			      C 
			      C 
			      C 
			      C 	DrawMonsterC3 MACRO X, Fram
			      C 
			      C 		Translate X, 12
			      C 		.IF (Fram == 1 || Fram == 5)
			      C 			GraphDisplay MonsterC3_1_1
			      C 			GraphDisplay MonsterC3_1_2
			      C 			GraphDisplay MonsterC3_1_3
			      C 			GraphDisplay MonsterC3_1_4
			      C 			GraphDisplay MonsterC3_1_5
			      C 			GraphDisplay MonsterC3_1_6
			      C 		.ELSEIF  (Fram == 2 || Fram == 4)
			      C 			GraphDisplay MonsterC3_2_1
			      C 			GraphDisplay MonsterC3_2_2
			      C 			GraphDisplay MonsterC3_2_3
			      C 			GraphDisplay MonsterC3_2_4
			      C 			GraphDisplay MonsterC3_2_5
			      C 			GraphDisplay MonsterC3_2_6
			      C 		.ELSE
			      C 			GraphDisplay MonsterC3_3_1
			      C 			GraphDisplay MonsterC3_3_2
			      C 			GraphDisplay MonsterC3_3_3
			      C 			GraphDisplay MonsterC3_3_4
			      C 			GraphDisplay MonsterC3_3_5
			      C 			GraphDisplay MonsterC3_3_6
			      C 		.ENDIF
			      C 		ENDM		
			      C 
					INCLUDE	Graph_StartUp.inc
			      C ;	Version 3
 0000084E		      C .Code
			      C 
			      C 
			      C 
			      C 	StartUpLogo 	MACRO
			      C 		CLS
			      C 		SettingColor 	gray
			      C 		Translate		0,0
			      C 		GraphDisplay 	StartUp_0
			      C 		GraphDisplay 	StartUp_1
			      C 		GraphDisplay 	StartUp_2
			      C 		GraphDisplay 	StartUp_3
			      C 		GraphDisplay 	StartUp_4
			      C 		GraphDisplay 	StartUp_5
			      C 		GraphDisplay 	StartUp_6
			      C 		GraphDisplay 	StartUp_7
			      C 		GraphDisplay 	StartUp_8
			      C 		GraphDisplay 	StartUp_9
			      C 		GraphDisplay 	StartUp_10
			      C 		GraphDisplay 	StartUp_11
			      C 		GraphDisplay 	StartUp_12
			      C 		GraphDisplay 	StartUp_13
			      C 		GraphDisplay 	StartUp_14
			      C 		GraphDisplay 	StartUp_15
			      C 		GraphDisplay 	StartUp_16
			      C 		GraphDisplay 	StartUp_17
			      C 		GraphDisplay 	StartUp_18
			      C 		GraphDisplay 	StartUp_19
			      C 		GraphDisplay 	StartUp_20
			      C 		GraphDisplay 	StartUp_21
			      C 		GraphDisplay 	StartUp_22
			      C 		GraphDisplay 	StartUp_23
			      C 		GraphDisplay 	StartUp_24
			      C 		GraphDisplay 	StartUp_25
			      C 		GraphDisplay 	StartUp_26
			      C 		GraphDisplay 	StartUp_27
			      C 		GraphDisplay 	StartUp_28
			      C 		GraphDisplay 	StartUp_29
			      C 		Translate 0,0
			      C 		AnyKeyToContinue
			      C 		ENDM
			      C 		
			      C 
 0000084E A2 70 A2 70 A2      C 	StartUp_0 	DB "¢p¢p¢p¢p¢p¢p¢p¢p¢p¢p¢p¢p¢p¢p¢p¢p¢p¢p¢p¢p¢p¢p¢p¢p¢p¢p¢p¢p¢p¢p¢p¢p¢p¢p¢p¢p¢p¢p¢p¢p¢p¢p¢p¢p¢p¢p¢p¢p¢p¢p¢p¢p¢p¢p¢p¢p¢p¢p¢p¢p",0
	   70 A2 70 A2 70
	   A2 70 A2 70 A2
	   70 A2 70 A2 70
	   A2 70 A2 70 A2
	   70 A2 70 A2 70
	   A2 70 A2 70 A2
	   70 A2 70 A2 70
	   A2 70 A2 70 A2
	   70 A2 70 A2 70
	   A2 70 A2 70 A2
	   70 A2 70 A2 70
	   A2 70 A2 70 A2
	   70 A2 70 A2 70
	   A2 70 A2 70 A2
	   70 A2 70 A2 70
	   A2 70 A2 70 A2
	   70 A2 70 A2 70
	   A2 70 A2 70 A2
	   70 A2 70 A2 70
	   A2 70 A2 70 A2
	   70 A2 70 A2 70
	   A2 70 A2 70 A2
	   70 A2 70 A2 70
	   00
 000008C7 A2 70 A2 70 A2      C 	StartUp_1 	DB "¢p¢p¢p¢p¢p¢p¢p¢p¢p¢p¢p¢p¢p¢p¢p¢p¢p¢p¢p¢p¢p¢p¢p¢p¢p¢p¢p¢p¢p¢p¢p¢p¢p¢p¢p¢p¢p¢p¢p¢p¢p¢p¢p¢p¢p¢p¢p¢p¢p¢p¢p¢p¢p¢p¢p¢p¢p¢p¢p¢p",0
	   70 A2 70 A2 70
	   A2 70 A2 70 A2
	   70 A2 70 A2 70
	   A2 70 A2 70 A2
	   70 A2 70 A2 70
	   A2 70 A2 70 A2
	   70 A2 70 A2 70
	   A2 70 A2 70 A2
	   70 A2 70 A2 70
	   A2 70 A2 70 A2
	   70 A2 70 A2 70
	   A2 70 A2 70 A2
	   70 A2 70 A2 70
	   A2 70 A2 70 A2
	   70 A2 70 A2 70
	   A2 70 A2 70 A2
	   70 A2 70 A2 70
	   A2 70 A2 70 A2
	   70 A2 70 A2 70
	   A2 70 A2 70 A2
	   70 A2 70 A2 70
	   A2 70 A2 70 A2
	   70 A2 70 A2 70
	   00
 00000940 A2 70 A2 70 A2      C 	StartUp_2 	DB "¢p¢p¢p¢p¢p¢p¢p¢p                    ¢p¢p¢p¢p¢p¢p¢p¢p¢p¢p¢p¢p¢p¢p¢p¢p¢p¢p  ¢p¢p¢p¢p¢p¢p¢p¢p        ¢p¢p¢p¢p¢p¢p¢p¢p¢p¢p¢p",0
	   70 A2 70 A2 70
	   A2 70 A2 70 A2
	   70 20 20 20 20
	   20 20 20 20 20
	   20 20 20 20 20
	   20 20 20 20 20
	   20 A2 70 A2 70
	   A2 70 A2 70 A2
	   70 A2 70 A2 70
	   A2 70 A2 70 A2
	   70 A2 70 A2 70
	   A2 70 A2 70 A2
	   70 A2 70 A2 70
	   A2 70 20 20 A2
	   70 A2 70 A2 70
	   A2 70 A2 70 A2
	   70 A2 70 A2 70
	   20 20 20 20 20
	   20 20 20 A2 70
	   A2 70 A2 70 A2
	   70 A2 70 A2 70
	   A2 70 A2 70 A2
	   70 A2 70 A2 70
	   00
 000009B9 A2 70 A2 70 A2      C 	StartUp_3 	DB "¢p¢p¢p¢p¢p¢p¢p¢p    ¢p        ¢p    ¢p¢p¢p¢p¢p¢p¢p¢p¢p¢p      ¢p¢p¢p¢p¢p  ¢p              ¢p    ¢p¢p            ¢p¢p¢p¢p",0
	   70 A2 70 A2 70
	   A2 70 A2 70 A2
	   70 20 20 20 20
	   A2 70 20 20 20
	   20 20 20 20 20
	   A2 70 20 20 20
	   20 A2 70 A2 70
	   A2 70 A2 70 A2
	   70 A2 70 A2 70
	   A2 70 A2 70 A2
	   70 20 20 20 20
	   20 20 A2 70 A2
	   70 A2 70 A2 70
	   A2 70 20 20 A2
	   70 20 20 20 20
	   20 20 20 20 20
	   20 20 20 20 20
	   A2 70 20 20 20
	   20 A2 70 A2 70
	   20 20 20 20 20
	   20 20 20 20 20
	   20 20 A2 70 A2
	   70 A2 70 A2 70
	   00
 00000A32 A2 70 A2 70 A2      C 	StartUp_4 	DB "¢p¢p¢p¢p    ¢p¢p  ¢p¢p¢p    ¢p¢p¢p  ¢p¢p¢p¢p¢p      ¢p¢p¢p      ¢p¢p¢p¢p  ¢p              ¢p    ¢p    ¢p¢p¢p    ¢p¢p¢p¢p",0
	   70 A2 70 20 20
	   20 20 A2 70 A2
	   70 20 20 A2 70
	   A2 70 A2 70 20
	   20 20 20 A2 70
	   A2 70 A2 70 20
	   20 A2 70 A2 70
	   A2 70 A2 70 A2
	   70 20 20 20 20
	   20 20 A2 70 A2
	   70 A2 70 20 20
	   20 20 20 20 A2
	   70 A2 70 A2 70
	   A2 70 20 20 A2
	   70 20 20 20 20
	   20 20 20 20 20
	   20 20 20 20 20
	   A2 70 20 20 20
	   20 A2 70 20 20
	   20 20 A2 70 A2
	   70 A2 70 20 20
	   20 20 A2 70 A2
	   70 A2 70 A2 70
	   00
 00000AAB A2 70 A2 70 A2      C 	StartUp_5 	DB "¢p¢p¢p¢p    ¢p¢p  ¢p¢p¢p    ¢p¢p¢p  ¢p¢p¢p¢p¢p        ¢p¢p      ¢p¢p¢p¢p  ¢p    ¢p  ¢p    ¢p    ¢p    ¢p¢p¢p    ¢p¢p¢p¢p",0
	   70 A2 70 20 20
	   20 20 A2 70 A2
	   70 20 20 A2 70
	   A2 70 A2 70 20
	   20 20 20 A2 70
	   A2 70 A2 70 20
	   20 A2 70 A2 70
	   A2 70 A2 70 A2
	   70 20 20 20 20
	   20 20 20 20 A2
	   70 A2 70 20 20
	   20 20 20 20 A2
	   70 A2 70 A2 70
	   A2 70 20 20 A2
	   70 20 20 20 20
	   A2 70 20 20 A2
	   70 20 20 20 20
	   A2 70 20 20 20
	   20 A2 70 20 20
	   20 20 A2 70 A2
	   70 A2 70 20 20
	   20 20 A2 70 A2
	   70 A2 70 A2 70
	   00
 00000B24 A2 70 A2 70 A2      C 	StartUp_6 	DB "¢p¢p¢p¢p      ¢p¢p¢p¢p¢p    ¢p¢p¢p¢p¢p¢p¢p¢p    ¢p¢p  ¢p  ¢p    ¢p¢p¢p¢p  ¢p  ¢p¢p  ¢p¢p  ¢p    ¢p    ¢p¢p¢p¢p¢p¢p¢p¢p¢p",0
	   70 A2 70 20 20
	   20 20 20 20 A2
	   70 A2 70 A2 70
	   A2 70 A2 70 20
	   20 20 20 A2 70
	   A2 70 A2 70 A2
	   70 A2 70 A2 70
	   A2 70 A2 70 20
	   20 20 20 A2 70
	   A2 70 20 20 A2
	   70 20 20 A2 70
	   20 20 20 20 A2
	   70 A2 70 A2 70
	   A2 70 20 20 A2
	   70 20 20 A2 70
	   A2 70 20 20 A2
	   70 A2 70 20 20
	   A2 70 20 20 20
	   20 A2 70 20 20
	   20 20 A2 70 A2
	   70 A2 70 A2 70
	   A2 70 A2 70 A2
	   70 A2 70 A2 70
	   00
 00000B9D A2 70 A2 70 A2      C 	StartUp_7 	DB "¢p¢p¢p¢p            ¢p¢p    ¢p            ¢p  ¢p¢p¢p  ¢p  ¢p¢p    ¢p¢p¢p  ¢p  ¢p¢p  ¢p¢p  ¢p    ¢p    ¢p¢p¢p¢p¢p¢p¢p¢p¢p",0
	   70 A2 70 20 20
	   20 20 20 20 20
	   20 20 20 20 20
	   A2 70 A2 70 20
	   20 20 20 A2 70
	   20 20 20 20 20
	   20 20 20 20 20
	   20 20 A2 70 20
	   20 A2 70 A2 70
	   A2 70 20 20 A2
	   70 20 20 A2 70
	   A2 70 20 20 20
	   20 A2 70 A2 70
	   A2 70 20 20 A2
	   70 20 20 A2 70
	   A2 70 20 20 A2
	   70 A2 70 20 20
	   A2 70 20 20 20
	   20 A2 70 20 20
	   20 20 A2 70 A2
	   70 A2 70 A2 70
	   A2 70 A2 70 A2
	   70 A2 70 A2 70
	   00
 00000C16 A2 70 A2 70 A2      C 	StartUp_8 	DB "¢p¢p¢p¢p    ¢p¢p¢p  ¢p¢p    ¢p¢p    ¢p¢p¢p¢p  ¢p¢p¢p  ¢p  ¢p¢p    ¢p¢p¢p  ¢p  ¢p¢p  ¢p¢p  ¢p    ¢p¢p    ¢p¢p¢p¢p¢p¢p¢p¢p",0
	   70 A2 70 20 20
	   20 20 A2 70 A2
	   70 A2 70 20 20
	   A2 70 A2 70 20
	   20 20 20 A2 70
	   A2 70 20 20 20
	   20 A2 70 A2 70
	   A2 70 A2 70 20
	   20 A2 70 A2 70
	   A2 70 20 20 A2
	   70 20 20 A2 70
	   A2 70 20 20 20
	   20 A2 70 A2 70
	   A2 70 20 20 A2
	   70 20 20 A2 70
	   A2 70 20 20 A2
	   70 A2 70 20 20
	   A2 70 20 20 20
	   20 A2 70 A2 70
	   20 20 20 20 A2
	   70 A2 70 A2 70
	   A2 70 A2 70 A2
	   70 A2 70 A2 70
	   00
 00000C8F A2 70 A2 70 A2      C 	StartUp_9 	DB "¢p¢p¢p¢p    ¢p¢p¢p  ¢p¢p    ¢p¢p    ¢p¢p¢p¢p          ¢p  ¢p¢p¢p    ¢p¢p  ¢p¢p¢p¢p  ¢p¢p¢p¢p    ¢p¢p¢p    ¢p¢p¢p¢p¢p¢p¢p",0
	   70 A2 70 20 20
	   20 20 A2 70 A2
	   70 A2 70 20 20
	   A2 70 A2 70 20
	   20 20 20 A2 70
	   A2 70 20 20 20
	   20 A2 70 A2 70
	   A2 70 A2 70 20
	   20 20 20 20 20
	   20 20 20 20 A2
	   70 20 20 A2 70
	   A2 70 A2 70 20
	   20 20 20 A2 70
	   A2 70 20 20 A2
	   70 A2 70 A2 70
	   A2 70 20 20 A2
	   70 A2 70 A2 70
	   A2 70 20 20 20
	   20 A2 70 A2 70
	   A2 70 20 20 20
	   20 A2 70 A2 70
	   A2 70 A2 70 A2
	   70 A2 70 A2 70
	   00
 00000D08 A2 70 A2 70 A2      C 	StartUp_10 	DB "¢p¢p¢p¢p    ¢p¢p¢p  ¢p¢p    ¢p¢p    ¢p¢p¢p    ¢p¢p¢p  ¢p  ¢p¢p¢p    ¢p¢p  ¢p¢p¢p¢p  ¢p¢p¢p¢p    ¢p¢p¢p¢p    ¢p¢p¢p¢p¢p¢p",0
	   70 A2 70 20 20
	   20 20 A2 70 A2
	   70 A2 70 20 20
	   A2 70 A2 70 20
	   20 20 20 A2 70
	   A2 70 20 20 20
	   20 A2 70 A2 70
	   A2 70 20 20 20
	   20 A2 70 A2 70
	   A2 70 20 20 A2
	   70 20 20 A2 70
	   A2 70 A2 70 20
	   20 20 20 A2 70
	   A2 70 20 20 A2
	   70 A2 70 A2 70
	   A2 70 20 20 A2
	   70 A2 70 A2 70
	   A2 70 20 20 20
	   20 A2 70 A2 70
	   A2 70 A2 70 20
	   20 20 20 A2 70
	   A2 70 A2 70 A2
	   70 A2 70 A2 70
	   00
 00000D81 A2 70 A2 70 A2      C 	StartUp_11 	DB "¢p¢p¢p¢p    ¢p¢p¢p  ¢p¢p    ¢p¢p    ¢p¢p¢p    ¢p¢p¢p  ¢p  ¢p¢p¢p¢p    ¢p  ¢p¢p¢p¢p  ¢p¢p¢p¢p    ¢p¢p¢p¢p¢p    ¢p¢p¢p¢p¢p",0
	   70 A2 70 20 20
	   20 20 A2 70 A2
	   70 A2 70 20 20
	   A2 70 A2 70 20
	   20 20 20 A2 70
	   A2 70 20 20 20
	   20 A2 70 A2 70
	   A2 70 20 20 20
	   20 A2 70 A2 70
	   A2 70 20 20 A2
	   70 20 20 A2 70
	   A2 70 A2 70 A2
	   70 20 20 20 20
	   A2 70 20 20 A2
	   70 A2 70 A2 70
	   A2 70 20 20 A2
	   70 A2 70 A2 70
	   A2 70 20 20 20
	   20 A2 70 A2 70
	   A2 70 A2 70 A2
	   70 20 20 20 20
	   A2 70 A2 70 A2
	   70 A2 70 A2 70
	   00
 00000DFA A2 70 A2 70 A2      C 	StartUp_12 	DB "¢p¢p¢p¢p            ¢p¢p    ¢p¢p    ¢p¢p    ¢p¢p¢p¢p  ¢p  ¢p¢p¢p¢p    ¢p  ¢p¢p¢p¢p  ¢p¢p¢p¢p    ¢p¢p¢p¢p¢p¢p    ¢p¢p¢p¢p",0
	   70 A2 70 20 20
	   20 20 20 20 20
	   20 20 20 20 20
	   A2 70 A2 70 20
	   20 20 20 A2 70
	   A2 70 20 20 20
	   20 A2 70 A2 70
	   20 20 20 20 A2
	   70 A2 70 A2 70
	   A2 70 20 20 A2
	   70 20 20 A2 70
	   A2 70 A2 70 A2
	   70 20 20 20 20
	   A2 70 20 20 A2
	   70 A2 70 A2 70
	   A2 70 20 20 A2
	   70 A2 70 A2 70
	   A2 70 20 20 20
	   20 A2 70 A2 70
	   A2 70 A2 70 A2
	   70 A2 70 20 20
	   20 20 A2 70 A2
	   70 A2 70 A2 70
	   00
 00000E73 A2 70 A2 70 A2      C 	StartUp_13 	DB "¢p¢p¢p¢p            ¢p¢p    ¢p¢p    ¢p¢p    ¢p¢p¢p¢p  ¢p  ¢p¢p¢p¢p¢p      ¢p¢p¢p¢p  ¢p¢p¢p¢p    ¢p¢p¢p¢p¢p¢p¢p  ¢p¢p¢p¢p",0
	   70 A2 70 20 20
	   20 20 20 20 20
	   20 20 20 20 20
	   A2 70 A2 70 20
	   20 20 20 A2 70
	   A2 70 20 20 20
	   20 A2 70 A2 70
	   20 20 20 20 A2
	   70 A2 70 A2 70
	   A2 70 20 20 A2
	   70 20 20 A2 70
	   A2 70 A2 70 A2
	   70 A2 70 20 20
	   20 20 20 20 A2
	   70 A2 70 A2 70
	   A2 70 20 20 A2
	   70 A2 70 A2 70
	   A2 70 20 20 20
	   20 A2 70 A2 70
	   A2 70 A2 70 A2
	   70 A2 70 A2 70
	   20 20 A2 70 A2
	   70 A2 70 A2 70
	   00
 00000EEC A2 70 A2 70 A2      C 	StartUp_14 	DB "¢p¢p¢p¢p    ¢p¢p¢p  ¢p¢p    ¢p¢p    ¢p¢p  ¢p¢p    ¢p  ¢p  ¢p¢p¢p¢p¢p      ¢p¢p¢p¢p  ¢p¢p¢p¢p    ¢p  ¢p¢p¢p¢p¢p  ¢p¢p¢p¢p",0
	   70 A2 70 20 20
	   20 20 A2 70 A2
	   70 A2 70 20 20
	   A2 70 A2 70 20
	   20 20 20 A2 70
	   A2 70 20 20 20
	   20 A2 70 A2 70
	   20 20 A2 70 A2
	   70 20 20 20 20
	   A2 70 20 20 A2
	   70 20 20 A2 70
	   A2 70 A2 70 A2
	   70 A2 70 20 20
	   20 20 20 20 A2
	   70 A2 70 A2 70
	   A2 70 20 20 A2
	   70 A2 70 A2 70
	   A2 70 20 20 20
	   20 A2 70 20 20
	   A2 70 A2 70 A2
	   70 A2 70 A2 70
	   20 20 A2 70 A2
	   70 A2 70 A2 70
	   00
 00000F65 A2 70 A2 70 A2      C 	StartUp_15 	DB "¢p¢p¢p¢p    ¢p¢p¢p  ¢p¢p    ¢p¢p    ¢p¢p  ¢p¢p¢p  ¢p  ¢p  ¢p¢p¢p¢p¢p¢p    ¢p¢p¢p¢p  ¢p¢p¢p¢p    ¢p    ¢p¢p¢p    ¢p¢p¢p¢p",0
	   70 A2 70 20 20
	   20 20 A2 70 A2
	   70 A2 70 20 20
	   A2 70 A2 70 20
	   20 20 20 A2 70
	   A2 70 20 20 20
	   20 A2 70 A2 70
	   20 20 A2 70 A2
	   70 A2 70 20 20
	   A2 70 20 20 A2
	   70 20 20 A2 70
	   A2 70 A2 70 A2
	   70 A2 70 A2 70
	   20 20 20 20 A2
	   70 A2 70 A2 70
	   A2 70 20 20 A2
	   70 A2 70 A2 70
	   A2 70 20 20 20
	   20 A2 70 20 20
	   20 20 A2 70 A2
	   70 A2 70 20 20
	   20 20 A2 70 A2
	   70 A2 70 A2 70
	   00
 00000FDE A2 70 A2 70 A2      C 	StartUp_16 	DB "¢p¢p¢p¢p    ¢p¢p¢p  ¢p¢p    ¢p¢p    ¢p¢p¢p¢p¢p¢p  ¢p  ¢p¢p¢p¢p¢p¢p¢p¢p¢p¢p¢p¢p¢p¢p  ¢p¢p¢p¢p    ¢p¢p            ¢p¢p¢p¢p",0
	   70 A2 70 20 20
	   20 20 A2 70 A2
	   70 A2 70 20 20
	   A2 70 A2 70 20
	   20 20 20 A2 70
	   A2 70 20 20 20
	   20 A2 70 A2 70
	   A2 70 A2 70 A2
	   70 A2 70 20 20
	   A2 70 20 20 A2
	   70 A2 70 A2 70
	   A2 70 A2 70 A2
	   70 A2 70 A2 70
	   A2 70 A2 70 A2
	   70 A2 70 A2 70
	   A2 70 20 20 A2
	   70 A2 70 A2 70
	   A2 70 20 20 20
	   20 A2 70 A2 70
	   20 20 20 20 20
	   20 20 20 20 20
	   20 20 A2 70 A2
	   70 A2 70 A2 70
	   00
 00001057 A2 70 A2 70 A2      C 	StartUp_17 	DB "¢p¢p¢p¢p    ¢p¢p    ¢p¢p    ¢p¢p    ¢p¢p¢p¢p¢p    ¢p  ¢p¢p¢p¢p¢p¢p¢p¢p¢p¢p¢p¢p¢p      ¢p¢p¢p    ¢p¢p¢p¢p¢p¢p¢p¢p¢p¢p¢p¢p",0
	   70 A2 70 20 20
	   20 20 A2 70 A2
	   70 20 20 20 20
	   A2 70 A2 70 20
	   20 20 20 A2 70
	   A2 70 20 20 20
	   20 A2 70 A2 70
	   A2 70 A2 70 A2
	   70 20 20 20 20
	   A2 70 20 20 A2
	   70 A2 70 A2 70
	   A2 70 A2 70 A2
	   70 A2 70 A2 70
	   A2 70 A2 70 A2
	   70 A2 70 A2 70
	   20 20 20 20 20
	   20 A2 70 A2 70
	   A2 70 20 20 20
	   20 A2 70 A2 70
	   A2 70 A2 70 A2
	   70 A2 70 A2 70
	   A2 70 A2 70 A2
	   70 A2 70 A2 70
	   00
 000010D0 A2 70 A2 70 A2      C 	StartUp_18 	DB "¢p¢p¢p¢p    ¢p¢p      ¢p    ¢p                    ¢p  ¢p¢p¢p¢p¢p¢p¢p¢p¢p¢p¢p¢p          ¢p¢p    ¢p¢p¢p¢p¢p¢p¢p¢p¢p¢p¢p¢p",0
	   70 A2 70 20 20
	   20 20 A2 70 A2
	   70 20 20 20 20
	   20 20 A2 70 20
	   20 20 20 A2 70
	   20 20 20 20 20
	   20 20 20 20 20
	   20 20 20 20 20
	   20 20 20 20 20
	   A2 70 20 20 A2
	   70 A2 70 A2 70
	   A2 70 A2 70 A2
	   70 A2 70 A2 70
	   A2 70 A2 70 A2
	   70 A2 70 20 20
	   20 20 20 20 20
	   20 20 20 A2 70
	   A2 70 20 20 20
	   20 A2 70 A2 70
	   A2 70 A2 70 A2
	   70 A2 70 A2 70
	   A2 70 A2 70 A2
	   70 A2 70 A2 70
	   00
 00001149 A2 70 A2 70 A2      C 	StartUp_19 	DB "¢p¢p¢p¢p    ¢p        ¢p    ¢p¢p¢p¢p¢p¢p¢p¢p¢p¢p¢p¢p  ¢p¢p¢p¢p¢p¢p¢p¢p¢p¢p¢p¢p¢p¢p¢p¢p¢p¢p¢p    ¢p¢p¢p¢p¢p¢p¢p¢p¢p¢p¢p¢p",0
	   70 A2 70 20 20
	   20 20 A2 70 20
	   20 20 20 20 20
	   20 20 A2 70 20
	   20 20 20 A2 70
	   A2 70 A2 70 A2
	   70 A2 70 A2 70
	   A2 70 A2 70 A2
	   70 A2 70 A2 70
	   A2 70 20 20 A2
	   70 A2 70 A2 70
	   A2 70 A2 70 A2
	   70 A2 70 A2 70
	   A2 70 A2 70 A2
	   70 A2 70 A2 70
	   A2 70 A2 70 A2
	   70 A2 70 A2 70
	   A2 70 20 20 20
	   20 A2 70 A2 70
	   A2 70 A2 70 A2
	   70 A2 70 A2 70
	   A2 70 A2 70 A2
	   70 A2 70 A2 70
	   00
 000011C2 A2 70 A2 70 A2      C 	StartUp_20 	DB "¢p¢p¢p¢p    ¢p¢p¢p¢p¢p¢p¢p¢p¢p¢p¢p¢p¢p¢p¢p¢p¢p¢p¢p¢p  ¢p¢p¢p¢p¢p¢p¢p¢p¢p¢p¢p¢p¢p¢p¢p¢p¢p¢p¢p    ¢p¢p¢p¢p¢p¢p¢p¢p¢p¢p¢p¢p",0
	   70 A2 70 20 20
	   20 20 A2 70 A2
	   70 A2 70 A2 70
	   A2 70 A2 70 A2
	   70 A2 70 A2 70
	   A2 70 A2 70 A2
	   70 A2 70 A2 70
	   A2 70 A2 70 A2
	   70 A2 70 A2 70
	   A2 70 20 20 A2
	   70 A2 70 A2 70
	   A2 70 A2 70 A2
	   70 A2 70 A2 70
	   A2 70 A2 70 A2
	   70 A2 70 A2 70
	   A2 70 A2 70 A2
	   70 A2 70 A2 70
	   A2 70 20 20 20
	   20 A2 70 A2 70
	   A2 70 A2 70 A2
	   70 A2 70 A2 70
	   A2 70 A2 70 A2
	   70 A2 70 A2 70
	   00
 0000123B A2 70 A2 70 A2      C 	StartUp_21 	DB "¢p¢p¢p¢p    ¢p¢p¢p¢p¢p¢p¢p¢p¢p¢p¢p¢p¢p¢p¢p¢p¢p¢p¢p¢p¢p¢p¢p¢p¢p¢p¢p¢p¢p¢p¢p¢p¢p¢p¢p¢p¢p¢p¢p¢p    ¢p¢p¢p¢p¢p¢p¢p¢p¢p¢p¢p¢p",0
	   70 A2 70 20 20
	   20 20 A2 70 A2
	   70 A2 70 A2 70
	   A2 70 A2 70 A2
	   70 A2 70 A2 70
	   A2 70 A2 70 A2
	   70 A2 70 A2 70
	   A2 70 A2 70 A2
	   70 A2 70 A2 70
	   A2 70 A2 70 A2
	   70 A2 70 A2 70
	   A2 70 A2 70 A2
	   70 A2 70 A2 70
	   A2 70 A2 70 A2
	   70 A2 70 A2 70
	   A2 70 A2 70 A2
	   70 A2 70 A2 70
	   A2 70 20 20 20
	   20 A2 70 A2 70
	   A2 70 A2 70 A2
	   70 A2 70 A2 70
	   A2 70 A2 70 A2
	   70 A2 70 A2 70
	   00
 000012B4 A2 70 A2 70 A2      C 	StartUp_22 	DB "¢p¢p¢p¢p    ¢p¢p¢p¢p¢p¢p¢p¢p¢p¢p¢p¢p¢p¢p¢p¢p¢p¢p¢p¢p¢p¢p¢p¢p¢p¢p¢p¢p¢p¢p¢p¢p¢p¢p¢p¢p¢p¢p¢p        ¢p¢p¢p¢p¢p¢p¢p¢p¢p¢p¢p",0
	   70 A2 70 20 20
	   20 20 A2 70 A2
	   70 A2 70 A2 70
	   A2 70 A2 70 A2
	   70 A2 70 A2 70
	   A2 70 A2 70 A2
	   70 A2 70 A2 70
	   A2 70 A2 70 A2
	   70 A2 70 A2 70
	   A2 70 A2 70 A2
	   70 A2 70 A2 70
	   A2 70 A2 70 A2
	   70 A2 70 A2 70
	   A2 70 A2 70 A2
	   70 A2 70 A2 70
	   A2 70 A2 70 A2
	   70 A2 70 A2 70
	   20 20 20 20 20
	   20 20 20 A2 70
	   A2 70 A2 70 A2
	   70 A2 70 A2 70
	   A2 70 A2 70 A2
	   70 A2 70 A2 70
	   00
 0000132D A2 70 A2 70 A2      C 	StartUp_23 	DB "¢p¢p¢p¢p¢p¢p¢p¢p¢p¢p¢p¢p¢p¢p¢p¢p¢p¢p¢p¢p¢p¢p¢p¢p¢p¢p¢p¢p¢p¢p¢p¢p¢p¢p¢p¢p¢p¢p¢p¢p¢p¢p¢p¢p¢p¢p¢p¢p¢p¢p¢p¢p¢p¢p¢p¢p¢p¢p¢p¢p",0
	   70 A2 70 A2 70
	   A2 70 A2 70 A2
	   70 A2 70 A2 70
	   A2 70 A2 70 A2
	   70 A2 70 A2 70
	   A2 70 A2 70 A2
	   70 A2 70 A2 70
	   A2 70 A2 70 A2
	   70 A2 70 A2 70
	   A2 70 A2 70 A2
	   70 A2 70 A2 70
	   A2 70 A2 70 A2
	   70 A2 70 A2 70
	   A2 70 A2 70 A2
	   70 A2 70 A2 70
	   A2 70 A2 70 A2
	   70 A2 70 A2 70
	   A2 70 A2 70 A2
	   70 A2 70 A2 70
	   A2 70 A2 70 A2
	   70 A2 70 A2 70
	   A2 70 A2 70 A2
	   70 A2 70 A2 70
	   00
 000013A6 A2 70 A2 70 A2      C 	StartUp_24 	DB "¢p¢p¢p¢p¢p¢p¢p¢p¢p¢p¢p¢p¢p¢p¢p¢p¢p¢p¢p¢p¢p¢p¢p¢p¢p¢p¢p¢p¢p¢p¢p¢p¢p¢p¢p¢p¢p¢p¢p¢p¢p¢p¢p¢p¢p¢p¢p¢p¢p¢p¢p¢p¢p¢p¢p¢p¢p¢p¢p¢p",0
	   70 A2 70 A2 70
	   A2 70 A2 70 A2
	   70 A2 70 A2 70
	   A2 70 A2 70 A2
	   70 A2 70 A2 70
	   A2 70 A2 70 A2
	   70 A2 70 A2 70
	   A2 70 A2 70 A2
	   70 A2 70 A2 70
	   A2 70 A2 70 A2
	   70 A2 70 A2 70
	   A2 70 A2 70 A2
	   70 A2 70 A2 70
	   A2 70 A2 70 A2
	   70 A2 70 A2 70
	   A2 70 A2 70 A2
	   70 A2 70 A2 70
	   A2 70 A2 70 A2
	   70 A2 70 A2 70
	   A2 70 A2 70 A2
	   70 A2 70 A2 70
	   A2 70 A2 70 A2
	   70 A2 70 A2 70
	   00
 0000141F A2 70 A2 70 A2      C 	StartUp_25 	DB "¢p¢p¢p¢p¢p¢p¢p¢p¢p¢p¢p¢p¢p¢p¢p¢p¢p¢p¢p¢p                                      ¢p¢p¢p¢p¢p¢p¢p¢p¢p¢p¢p¢p¢p¢p¢p¢p¢p¢p¢p¢p¢p",0
	   70 A2 70 A2 70
	   A2 70 A2 70 A2
	   70 A2 70 A2 70
	   A2 70 A2 70 A2
	   70 A2 70 A2 70
	   A2 70 A2 70 A2
	   70 A2 70 A2 70
	   20 20 20 20 20
	   20 20 20 20 20
	   20 20 20 20 20
	   20 20 20 20 20
	   20 20 20 20 20
	   20 20 20 20 20
	   20 20 20 20 20
	   20 20 20 A2 70
	   A2 70 A2 70 A2
	   70 A2 70 A2 70
	   A2 70 A2 70 A2
	   70 A2 70 A2 70
	   A2 70 A2 70 A2
	   70 A2 70 A2 70
	   A2 70 A2 70 A2
	   70 A2 70 A2 70
	   00
 00001498 A2 70 A2 70 A2      C 	StartUp_26 	DB "¢p¢p¢p¢p¢p¢p¢p¢p¢p¢p¢p¢p¢p¢p¢p¢p¢p¢p¢p¢p¡m¡iThe Adventure Starts From Here¡j¡n¢p¢p¢p¢p¢p¢p¢p¢p¢p¢p¢p¢p¢p¢p¢p¢p¢p¢p¢p¢p¢p",0
	   70 A2 70 A2 70
	   A2 70 A2 70 A2
	   70 A2 70 A2 70
	   A2 70 A2 70 A2
	   70 A2 70 A2 70
	   A2 70 A2 70 A2
	   70 A2 70 A2 70
	   A1 6D A1 69 54
	   68 65 20 41 64
	   76 65 6E 74 75
	   72 65 20 53 74
	   61 72 74 73 20
	   46 72 6F 6D 20
	   48 65 72 65 A1
	   6A A1 6E A2 70
	   A2 70 A2 70 A2
	   70 A2 70 A2 70
	   A2 70 A2 70 A2
	   70 A2 70 A2 70
	   A2 70 A2 70 A2
	   70 A2 70 A2 70
	   A2 70 A2 70 A2
	   70 A2 70 A2 70
	   00
 00001511 A2 70 A2 70 A2      C 	StartUp_27 	DB "¢p¢p¢p¢p¢p¢p¢p¢p¢p¢p¢p¢p¢p¢p¢p¢p¢p¢p¢p¢p                                      ¢p¢p¢p¢p¢p¢p¢p¢p¢p¢p¢p¢p¢p¢p¢p¢p¢p¢p¢p¢p¢p",0
	   70 A2 70 A2 70
	   A2 70 A2 70 A2
	   70 A2 70 A2 70
	   A2 70 A2 70 A2
	   70 A2 70 A2 70
	   A2 70 A2 70 A2
	   70 A2 70 A2 70
	   20 20 20 20 20
	   20 20 20 20 20
	   20 20 20 20 20
	   20 20 20 20 20
	   20 20 20 20 20
	   20 20 20 20 20
	   20 20 20 20 20
	   20 20 20 A2 70
	   A2 70 A2 70 A2
	   70 A2 70 A2 70
	   A2 70 A2 70 A2
	   70 A2 70 A2 70
	   A2 70 A2 70 A2
	   70 A2 70 A2 70
	   A2 70 A2 70 A2
	   70 A2 70 A2 70
	   00
 0000158A A2 70 A2 70 A2      C 	StartUp_28 	DB "¢p¢p¢p¢p¢p¢p¢p¢p¢p¢p¢p¢p¢p¢p¢p¢p¢p¢p¢p¢p¢p¢p¢p¢p¢p¢p¢p¢p¢p¢p¢p¢p¢p¢p¢p¢p¢p¢p¢p¢p¢p¢p¢p¢p¢p¢p¢p¢p¢p¢p¢p¢p¢p¢p¢p¢p¢p¢p¢p¢p",0
	   70 A2 70 A2 70
	   A2 70 A2 70 A2
	   70 A2 70 A2 70
	   A2 70 A2 70 A2
	   70 A2 70 A2 70
	   A2 70 A2 70 A2
	   70 A2 70 A2 70
	   A2 70 A2 70 A2
	   70 A2 70 A2 70
	   A2 70 A2 70 A2
	   70 A2 70 A2 70
	   A2 70 A2 70 A2
	   70 A2 70 A2 70
	   A2 70 A2 70 A2
	   70 A2 70 A2 70
	   A2 70 A2 70 A2
	   70 A2 70 A2 70
	   A2 70 A2 70 A2
	   70 A2 70 A2 70
	   A2 70 A2 70 A2
	   70 A2 70 A2 70
	   A2 70 A2 70 A2
	   70 A2 70 A2 70
	   00
 00001603 A2 70 A2 70 A2      C 	StartUp_29 	DB "¢p¢p¢p¢p¢p¢p¢p¢p¢p¢p¢p¢p¢p¢p¢p¢p¢p¢p¢p¢p¢p¢p¢p¢p¢p¢p¢p¢p¢p¢p¢p¢p¢p¢p¢p¢p¢p¢p¢p¢p¢p¢p¢p¢p¢p¢p¢p¢p¢p¢p¢p¢p¢p¢p¢p¢p¢p¢p¢p¢p",0
	   70 A2 70 A2 70
	   A2 70 A2 70 A2
	   70 A2 70 A2 70
	   A2 70 A2 70 A2
	   70 A2 70 A2 70
	   A2 70 A2 70 A2
	   70 A2 70 A2 70
	   A2 70 A2 70 A2
	   70 A2 70 A2 70
	   A2 70 A2 70 A2
	   70 A2 70 A2 70
	   A2 70 A2 70 A2
	   70 A2 70 A2 70
	   A2 70 A2 70 A2
	   70 A2 70 A2 70
	   A2 70 A2 70 A2
	   70 A2 70 A2 70
	   A2 70 A2 70 A2
	   70 A2 70 A2 70
	   A2 70 A2 70 A2
	   70 A2 70 A2 70
	   A2 70 A2 70 A2
	   70 A2 70 A2 70
	   00
			      C 
					
					INCLUDE	Object.inc
			      C ;	Version 3
 00000849		      C .Data
			      C 
			      C 	
 = CALL Register	      C 	RegisterObjects	EQU <CALL Register>
 = CALL DrawingSoldiers	      C 	DrawSoldiers 	EQU <CALL DrawingSoldiers>
 = CALL Init		      C 	Initial 		EQU <CALL Init>
			      C 	
			      C 
 = BuildSoldier UserSoldier   C 	BuildUserSoldierA EQU <BuildSoldier UserSoldiers, 0, 1>
   s, 0, 1
 = BuildSoldier UserSoldier   C 	BuildUserSoldierB EQU <BuildSoldier UserSoldiers, 0, 2>
   s, 0, 2
 = BuildSoldier UserSoldier   C 	BuildUserSoldierC EQU <BuildSoldier UserSoldiers, 0, 3>
   s, 0, 3
			      C 
 = BuildSoldier CompSoldier   C 	BuildCompSoldierA EQU <BuildSoldier CompSoldiers, 1, 1>
   s, 1, 1
 = BuildSoldier CompSoldier   C 	BuildCompSoldierB EQU <BuildSoldier CompSoldiers, 1, 2>
   s, 1, 2
 = BuildSoldier CompSoldier   C 	BuildCompSoldierC EQU <BuildSoldier CompSoldiers, 1, 3>
   s, 1, 3
			      C 
			      C 
 0000002C		      C 	Soldier STRUCT
 00000000  00000000	      C 		HP			DWORD 0
 00000004  00000000	      C 		X			DWORD 0
 00000008  00000000	      C 		Y 			DWORD 0
 0000000C  00000000	      C 		ATK			DWORD 0
			      C 
 00000010  00000000	      C 		Level		DWORD 0
 00000014  00000000	      C 		Arms		DWORD 0
 00000018  00000000	      C 		League		DWORD 0
			      C 
 0000001C  00000000	      C 		State		DWORD 0
 00000020  00000000	      C 		WaitFor		DWORD 0
 00000024  00000000	      C 		AttackTo	DWORD 0
 00000028  00000000	      C 		Alive		DWORD 0
			      C 	Soldier ENDS
			      C 
			      C 
 00000849  00000008 [	      C 	UserSoldiers	Soldier	8 DUP(<0,0,0,0,0,0,0,0,0,0,0>)
	    00000000
	    00000000
	    00000000
	    00000000
	    00000000
	    00000000
	    00000000
	    00000000
	    00000000
	    00000000
	    00000000
	   ]
 000009A9  00000008 [	      C 	CompSoldiers	Soldier	8 DUP(<0,0,0,0,0,0,0,0,0,0,0>)
	    00000000
	    00000000
	    00000000
	    00000000
	    00000000
	    00000000
	    00000000
	    00000000
	    00000000
	    00000000
	    00000000
	   ]
			      C 
			      C 	
 00000B09 0000000C	      C 	UserSoldier_Height	DWORD	12, 11, 11,	;A
	   0000000B
	   0000000B
	   0000000C
	   0000000C
	   0000000C
	   0000000C
	   0000000B
	   0000000A
			      C 								12, 12, 12,	;B
			      C 								12, 11, 10	;C
			      C 
 00000B2D 00000005	      C 	UserSoldier_Width	DWORD	5, 12, 16,	;A
	   0000000C
	   00000010
	   00000005
	   00000005
	   00000006
	   00000009
	   00000008
	   0000000A
			      C 								5, 5, 6,	;B
			      C 								9, 8, 10	;C
			      C 
 00000B51 0000000B	      C 	CompSoldier_Height	DWORD	11, 11, 9,	;A
	   0000000B
	   00000009
	   0000000C
	   0000000A
	   0000000A
	   0000000D
	   0000000A
	   00000009
			      C 								12, 10, 10,	;B
			      C 								13, 10, 9	;C
			      C 
 00000B75 00000005	      C 	CompSoldier_Width	DWORD	5, 12, 16,	;A
	   0000000C
	   00000010
	   00000003
	   00000003
	   00000003
	   00000003
	   00000004
	   00000005
			      C 								3, 3, 3,	;B
			      C 								3, 4, 5		;C
			      C 
			      C 
 00000B99 0000000A	      C 	Soldier_HP			DWORD	10, 20, 30,	;A
	   00000014
	   0000001E
	   00000008
	   00000010
	   00000018
	   0000000E
	   0000001C
	   0000002A
			      C 								8, 	16, 24,	;B
			      C 								14, 28, 42	;C
			      C 
 00000BBD 00000002	      C 	Soldier_Attack		DWORD	2, 4, 	6,	;A
	   00000004
	   00000006
	   00000004
	   00000008
	   0000000C
	   00000005
	   0000000A
	   0000000F
			      C 								4, 8, 	12,	;B
			      C 								5, 10, 	15		;C
			      C 
 00000BE1 00000004	      C 	Soldier_Buffer		DWORD	4, 6, 7,	;A
	   00000006
	   00000007
	   00000005
	   00000007
	   00000008
	   00000006
	   00000008
	   00000009
			      C 								5, 7, 8,	;B
			      C 								6, 8, 9		;C
			      C 
 00000C05 00000064	      C 	Soldier_Money		DWORD	100, 100, 100,	;A
	   00000064
	   00000064
	   0000012C
	   0000012C
	   0000012C
	   00000258
	   00000258
	   00000258
			      C 								300, 300, 300,	;B
			      C 								600, 600, 600	;C
			      C 
			      C 
			      C 
			      C 	ObjectOffset MACRO ID
			      C 		MOV EAX, (SIZEOF Soldier)
			      C 		MOV EBX, ID
			      C 		MUL EBX
			      C 		MOV EBX, EAX
			      C 	ENDM
			      C 
			      C ;;;;;;;;;;;;;;;;;;;;;;;;;;;;;;;;
			      C ;;;;						;;;;
			      C ;;;;	Getter / Setter 	;;;;
			      C ;;;;						;;;;
			      C ;;;;;;;;;;;;;;;;;;;;;;;;;;;;;;;;
			      C 	GettingSoldierLevel		MACRO	Object, ID, StoreTo
			      C 		PUSHA
			      C 			ObjectOffset 	ID
			      C 			CopyFrom 		StoreTo, Object[EBX].Level
			      C 		POPA
			      C 		ENDM
			      C 	SettingSoldierLevel		MACRO	Object, ID, Number
			      C 		PUSHA
			      C 			ObjectOffset 	ID
			      C 			CopyFrom		Object[EBX].Level, Number
			      C 		POPA
			      C 		ENDM
			      C 
			      C 	GettingSoldierX		MACRO	Object, ID, StoreTo
			      C 		PUSHA
			      C 			ObjectOffset 	ID
			      C 			CopyFrom 		StoreTo, Object[EBX].X
			      C 		POPA
			      C 		ENDM
			      C 	SettingSoldierX		MACRO	Object, ID, Number
			      C 		PUSHA
			      C 			ObjectOffset 	ID
			      C 			CopyFrom		Object[EBX].X, Number
			      C 		POPA
			      C 		ENDM
			      C 
			      C 	GettingSoldierY		MACRO	Object, ID, StoreTo
			      C 		PUSHA
			      C 			ObjectOffset 	ID
			      C 			CopyFrom 		StoreTo, Object[EBX].Y
			      C 		POPA
			      C 		ENDM
			      C 	SettingSoldierY		MACRO	Object, ID, Number
			      C 		PUSHA
			      C 			ObjectOffset 	ID
			      C 			CopyFrom  		Object[EBX].Y, Number
			      C 		POPA
			      C 		ENDM
			      C 
			      C 	GettingSoldierState		MACRO	Object, ID, StoreTo
			      C 		PUSHA
			      C 			ObjectOffset 	ID
			      C 			CopyFrom 		StoreTo, Object[EBX].State
			      C 		POPA
			      C 		ENDM
			      C 	SettingSoldierState		MACRO	Object, ID, Number
			      C 		PUSHA
			      C 			ObjectOffset 	ID
			      C 			CopyFrom  		Object[EBX].State, Number
			      C 		POPA
			      C 		ENDM
			      C 
			      C 	GettingSoldierWaitFor		MACRO	Object, ID, StoreTo
			      C 		PUSHA
			      C 			ObjectOffset 	ID
			      C 			CopyFrom 		StoreTo, Object[EBX].WaitFor
			      C 		POPA
			      C 		ENDM
			      C 	SettingSoldierWaitFor		MACRO	Object, ID, Number
			      C 		PUSHA
			      C 			ObjectOffset 	ID
			      C 			CopyFrom  		Object[EBX].WaitFor, Number
			      C 		POPA
			      C 		ENDM
			      C 
			      C 	GettingSoldierAttackTo		MACRO	Object, ID, StoreTo
			      C 		PUSHA
			      C 			ObjectOffset 	ID
			      C 			CopyFrom 		StoreTo, Object[EBX].AttackTo
			      C 		POPA
			      C 		ENDM
 00000C29 41 74 74 61 63      C 	Attacking DB "Attacking",0
	   6B 69 6E 67 00
			      C 	SettingSoldierAttackTo		MACRO	Object, ID, Number
			      C 		PUSHA
			      C 			ObjectOffset 	ID
			      C 			CopyFrom  		Object[EBX].AttackTo, Number
			      C 		POPA
			      C 		ENDM
			      C 
			      C 
			      C 	GettingSoldierHeight	MACRO	Object, ID, StoreTo
			      C 		PUSHA
			      C 			ObjectOffset 	ID
			      C 			.IF Object[EBX].League == 0
			      C 				CounterSoldierOffset Object
			      C 				CopyFrom 		StoreTo, UserSoldier_Height[EAX]
			      C 			.ELSE
			      C 				CounterSoldierOffset Object
			      C 				CopyFrom 		StoreTo, CompSoldier_Height[EAX]
			      C 			.ENDIF
			      C 		POPA
			      C 		ENDM
			      C 	;SettingSoldierHeight	MACRO	Object, ID, Number
			      C 	;	PUSHA
			      C 	;		ObjectOffset 	ID
			      C 	;		CopyFrom  		Object[EBX].SHeight, Number
			      C 	;	POPA
			      C 	;	ENDM
			      C 
			      C 
			      C 	CounterSoldierOffsetIndex	MACRO Arms, Level
			      C 		MOV EAX, Arms
			      C 		DEC EAX
			      C 		MOV EDX, 12
			      C 		MUL EDX
			      C 		MOV EDX, EAX
			      C 		MOV EAX, Level
			      C 		DEC EAX
			      C 		SHL EAX, 2
			      C 		ADD EAX, EDX
			      C 		ENDM
			      C 
			      C 	CounterSoldierOffset	MACRO Object
			      C 		MOV EAX, Object[EBX].Arms
			      C 		DEC EAX
			      C 		MOV EDX, 12
			      C 		MUL EDX
			      C 		MOV EDX, EAX
			      C 		MOV EAX, Object[EBX].Level
			      C 		DEC EAX
			      C 		SHL EAX, 2
			      C 		ADD EAX, EDX
			      C 				; 0 	12	24
			      C 				; 0		0	0
			      C 				
			      C 				; 0 	12	24
			      C 				; 4		4	4
			      C 
			      C 				; 0 	12	24
			      C 				; 8		8	8
			      C 		ENDM
			      C 	;GettingSoldierHeight	MACRO	Object, ID, StoreTo
			      C 	;	PUSHA
			      C 	;		ObjectOffset 	ID
			      C 	;		.IF( Object[EBX].League == 0)
			      C 	;			CopyFrom StoreTo, UserSoldier_Height[EAX]
			      C 	;		.ELSE
			      C 	;			CopyFrom StoreTo, CompSoldier_Height[EAX]
			      C 	;		.ENDIF
			      C 	;	POPA
			      C 	;	ENDM
			      C 	GettingSoldierWidth		MACRO	Object, ID, StoreTo
			      C 		PUSHA
			      C 			ObjectOffset 	ID
			      C 			CounterSoldierOffset Object
			      C 			.IF( Object[EBX].League == 0)
			      C 				CopyFrom StoreTo, UserSoldier_Width[EAX]
			      C 			.ELSE
			      C 				CopyFrom StoreTo, CompSoldier_Width[EAX]
			      C 			.ENDIF
			      C 		POPA
			      C 		ENDM
			      C 
			      C 	GettingSoldierHP		MACRO	Object, ID, StoreTo
			      C 		PUSHA
			      C 			ObjectOffset 	ID
			      C 			CopyFrom 		StoreTo, Object[EBX].HP
			      C 		POPA
			      C 		ENDM
			      C 
 00000C33 00000000	      C 	Blood_Percent_100X		DWORD ?
 00000C37 00000000	      C 	Blood_Percent_75X		DWORD ?
 00000C3B 00000000	      C 	Blood_Percent_50X		DWORD ?
 00000C3F 00000000	      C 	Blood_Percent_25X		DWORD ?
 00000C43 00000000	      C 	Blood_Percent_Current 	DWORD ?
			      C 	GettingSoldierPercentHP	MACRO	Object, ID, StoreTo
			      C 		PUSHA
			      C 			GettingSoldierHP Object, ID, Blood_Percent_Current
			      C 			GettingSoldierInitialHP	Object,	ID,	Blood_Percent_100X
			      C 
			      C 			MOV EAX, Blood_Percent_100X
			      C 			MOV EBX, Blood_Percent_Current
			      C 			.IF( EAX == Blood_Percent_Current )
			      C 				CopyFrom StoreTo, 4
			      C 			.ELSE
			      C 				MOV ECX, 2
			      C 				DIV ECX
			      C 				.IF( EAX < Blood_Percent_Current )
			      C 					CopyFrom StoreTo, 3
			      C 				.ELSEIF( EAX == Blood_Percent_Current )
			      C 					CopyFrom StoreTo, 2
			      C 				.ELSE
			      C 					CopyFrom StoreTo, 1
			      C 				.ENDIF
			      C 			.ENDIF
			      C 		POPA
			      C 		ENDM
			      C 	SettingSoldierHP		MACRO	Object, ID, Blood
			      C 		PUSHA
			      C 			ObjectOffset 	ID
			      C 			CopyFrom  		Object[EBX].HP, Blood
			      C 		POPA
			      C 		ENDM
			      C 	SettingSoldierInitialHP		MACRO	Object, ID
			      C 		PUSHA
			      C 			ObjectOffset 	ID
			      C 			CounterSoldierOffset Object
			      C 			CopyFrom 		Object[EBX].HP, Soldier_HP[EAX]
			      C 		POPA
			      C 		ENDM
			      C 
			      C 	GettingSoldierInitialHP		MACRO	Object, ID, StoreTo
			      C 		PUSHA
			      C 			ObjectOffset 	ID
			      C 			CounterSoldierOffset Object
			      C 			CopyFrom 		StoreTo, Soldier_HP[EAX]
			      C 		POPA
			      C 		ENDM
			      C 
			      C 	GettingSoldierAttack	MACRO	Object, ID,	StoreTo
			      C 		PUSHA
			      C 			ObjectOffset 	ID
			      C 			CounterSoldierOffset Object
			      C 			CopyFrom 		StoreTo, Soldier_Attack[EAX]
			      C 		POPA
			      C 		ENDM
			      C 
			      C 	GettingSoldierMoney	MACRO	Object, ID,	StoreTo
			      C 		PUSHA
			      C 			ObjectOffset 	ID
			      C 			CounterSoldierOffset Object
			      C 			CopyFrom 		StoreTo, Soldier_Money[EAX]
			      C 		POPA
			      C 		ENDM
			      C 
			      C 	GettingSoldierMoneyByIndex	MACRO	Arms,	Level, StoreTo
			      C 		PUSHA
			      C 			CounterSoldierOffsetIndex 	Arms, Level
			      C 			CopyFrom 		StoreTo, Soldier_Money[EAX]
			      C 		POPA
			      C 		ENDM
			      C 
			      C 	SettingSoldierAttack	MACRO	Object, ID
			      C 		PUSHA
			      C 			ObjectOffset 	ID
			      C 			CounterSoldierOffset Object
			      C 			CopyFrom 		Object[EBX].ATK, Soldier_Attack[EAX]
			      C 		POPA
			      C 		ENDM
			      C 
			      C 	GettingSoldierArms		MACRO	Object, ID, StoreTo
			      C 		PUSHA
			      C 			ObjectOffset 	ID
			      C 			CopyFrom 		StoreTo, Object[EBX].Arms
			      C 		POPA
			      C 		ENDM
			      C 	SettingSoldierArms		MACRO	Object, ID, Kinds
			      C 		PUSHA
			      C 			ObjectOffset 	ID
			      C 			CopyFrom  		Object[EBX].Arms, Kinds
			      C 		POPA
			      C 		ENDM
			      C 	GettingSoldierLeague		MACRO	Object, ID, StoreTo
			      C 		PUSHA
			      C 			ObjectOffset 	ID
			      C 			CopyFrom 		StoreTo, Object[EBX].League
			      C 		POPA
			      C 		ENDM
			      C 	SettingSoldierLeague		MACRO	Object, ID, Kinds
			      C 		PUSHA
			      C 			ObjectOffset 	ID
			      C 			CopyFrom  		Object[EBX].League, Kinds
			      C 		POPA
			      C 		ENDM
			      C 
			      C 	GettingSoldierAlive		MACRO	Object, ID, StoreTo
			      C 		PUSHA
			      C 			ObjectOffset 	ID
			      C 			CopyFrom 		StoreTo, Object[EBX].Alive
			      C 		POPA
			      C 		ENDM
			      C 	SettingSoldierAlive		MACRO	Object, ID, SAlive
			      C 		PUSHA
			      C 			ObjectOffset 	ID
			      C 			CopyFrom  		Object[EBX].Alive, SAlive
			      C 		POPA
			      C 		ENDM
			      C 
			      C 
			      C 	GettingSoldierTime	MACRO	Arms, Level, StoreTo
			      C 		PUSHA
			      C 			CounterSoldierOffsetIndex Arms, Level
			      C 			CopyFrom 		StoreTo, Soldier_Buffer[EAX]
			      C 		POPA
			      C 		ENDM
			      C 
			      C 
			      C 	DestorySoldier 		MACRO	Object,	ID
			      C 		PUSHA
			      C 
			      C 			SettingSoldierAlive		Object, ID, 0
			      C 			SettingSoldierArms 		Object, ID, 0
			      C 			SettingSoldierX	 		Object, ID, 0
			      C 			SettingSoldierLeague	Object, ID, 0
			      C 			SettingSoldierLevel		Object, ID, 0
			      C 			SettingSoldierWaitFor	Object, ID, 0
			      C 			SettingSoldierAttackTo	Object, ID, 0
			      C 			SettingSoldierHP		Object, ID, 0
			      C 
			      C 		POPA
			      C 		ENDM
 0000167C		      C .Code
			      C 	
 0000167C		      C 	Init PROC
 0000167C  60		      C 		PUSHA
			      C 			LoopTimes 0
 0000167D  B9 00000000	     1C 		MOV 	ECX,	0
 00001682		      C 			EACH:
			      C 				SettingSoldierX 	UserSoldiers, ECX, 0
 00001682  60		     1C 		PUSHA
 00001683  B8 0000002C	     2C 		MOV EAX, (SIZEOF Soldier)
 00001688  8B D9	     2C 		MOV EBX, ECX
 0000168A  F7 E3	     2C 		MUL EBX
 0000168C  8B D8	     2C 		MOV EBX, EAX
 0000168E  50		     2C 		PUSH EAX
 0000168F  B8 00000000	     2C 			MOV EAX, 0
 00001694  89 83 0000084D R  2C 			MOV UserSoldiers[EBX].X, 	EAX
 0000169A  58		     2C 		POP EAX
 0000169B  61		     1C 		POPA
			      C 				SettingSoldierAlive UserSoldiers, ECX, 0
 0000169C  60		     1C 		PUSHA
 0000169D  B8 0000002C	     2C 		MOV EAX, (SIZEOF Soldier)
 000016A2  8B D9	     2C 		MOV EBX, ECX
 000016A4  F7 E3	     2C 		MUL EBX
 000016A6  8B D8	     2C 		MOV EBX, EAX
 000016A8  50		     2C 		PUSH EAX
 000016A9  B8 00000000	     2C 			MOV EAX, 0
 000016AE  89 83 00000871 R  2C 			MOV UserSoldiers[EBX].Alive, 	EAX
 000016B4  58		     2C 		POP EAX
 000016B5  61		     1C 		POPA
			      C 
			      C 				NextInc	8, EACH
 000016B6  41		     1C 		INC ECX
 000016B7  83 F9 08	     1C 		CMP ECX, 8
 000016BA  7C C6	     1C 		JL EACH
 000016BC  61		      C 		POPA
 000016BD  C3		      C 		RET
 000016BE		      C 	Init ENDP
			      C 
			      C 
					INCLUDE	Status.inc
			      C ;	Version 3
 00000C47		      C .Data
 00000C47 000001F4	      C 	UserMoney		DWORD 	500
			      C 	
 00000C4B 00000001	      C 	Gaming			DWORD 	1
 00000C4F 00000000	      C 	DebugMode 		DWORD	0
			      C 
 00000C53 41 74 6C 61 6E      C 	AtlantisTitle 	DB 		"Atlantis",0
	   74 69 73 00
 00000C5C 54 68 65 20 62      C 	AtlantisSize	DB		"The best window size is 120 X 30,",0ah,"Press any key if you adjust done.",0
	   65 73 74 20 77
	   69 6E 64 6F 77
	   20 73 69 7A 65
	   20 69 73 20 31
	   32 30 20 58 20
	   33 30 2C 0A 50
	   72 65 73 73 20
	   61 6E 79 20 6B
	   65 79 20 69 66
	   20 79 6F 75 20
	   61 64 6A 75 73
	   74 20 64 6F 6E
	   65 2E 00
			      C 
			      C 	StartUp MACRO
			      C 		CLS
			      C 		INVOKE		SetConsoleTitle, 	OFFSET AtlantisTitle
			      C 		DefaultColor
			      C 		Translate 	0,5
			      C 		WriteSAtCenter 	30,	30, AtlantisSize
			      C 		Translate 	0,0
			      C 		AnyKeyToContinue
			      C 	ENDM
			      C 
 00000CA0 00000000	      C 	SetterBuffer 	DWORD ?
 00000CA4 00000000	      C 	GetterHandler 	DWORD ?
			      C 
 00000CA8 00000000	      C 	User_Curr_Soldier DWORD ?
 00000CAC 00000000	      C 	Comp_Curr_Soldier DWORD ?
			      C 
 00000CB0 00000001	      C 	UserCurrLevel 	DWORD	1
 00000CB4 00000001	      C 	CompCurrLevel 	DWORD	1
			      C 
 00000CB8 00000000	      C 	UserLevelUpFlag	DWORD	0
 00000CBC 00000000	      C 	CompLevelUpFlag	DWORD	0
			      C 
			      C 
 00000CC0 00000001	      C 	Beats6x 	DWORD 	1
 00000CC4 00000001	      C 	Beats5x 	DWORD 	1
 00000CC8 00000001	      C 	Beats4x 	DWORD 	1
 00000CCC 00000001	      C 	Beats3x 	DWORD 	1
 00000CD0 00000001	      C 	Beats2x 	DWORD 	1
			      C 	
			      C 
			      C 	Beats MACRO
			      C 		TimerCheck 	Timer_UserBuild,		Beats2x,	UserBuildTimerCheck
			      C 		TimerCheck 	Timer_CompBuild,		Beats2x,	CompBuildTimerCheck
			      C 		TimerCheck 	UserAttackTimer,		Beats2x,	UserAttack
			      C 		TimerCheck 	CompAttackTimer,		Beats2x,	CompAttack
			      C 		TimerCheck 	MoneyIncrementTimer,	Beats4x,	MoneyIncrement
			      C 		
			      C 		INC Beats2x
			      C 		INC Beats3x
			      C 		INC Beats4x
			      C 		INC Beats5x
			      C 		INC Beats6x
			      C 		.IF Beats2x == 3
			      C 			CopyFrom Beats2x, 1
			      C 		.ENDIF
			      C 		.IF Beats3x == 4
			      C 			CopyFrom Beats3x, 1
			      C 		.ENDIF
			      C 		.IF Beats4x == 5
			      C 			CopyFrom Beats4x, 1
			      C 		.ENDIF
			      C 		.IF Beats5x == 6
			      C 			INC Timer1
			      C 			CopyFrom Beats5x, 1
			      C 		.ENDIF
			      C 		.IF Beats6x == 7
			      C 			CopyFrom Beats6x, 1
			      C 		.ENDIF
			      C 	ENDM
			      C 
			      C 	TimerCheck MACRO	Timer,	BeatsX,	CallBack
			      C 		.IF( Timer > 0 && BeatsX == 1)
			      C 			INC Timer
			      C 			CallBack
			      C 		.ENDIF
			      C 		ENDM
			      C 
			      C 	TimerInc MACRO	Timer,	BeatsX
			      C 		.IF( Timer > 0 && BeatsX == 1)
			      C 			INC Timer
			      C 		.ENDIF
			      C 		ENDM
			      C 
			      C 
			      C 	TimerBeat MACRO	Timer,	BeatsX
			      C 		.IF( BeatsX == 1)
			      C 			INC Timer
			      C 		.ENDIF
			      C 		ENDM
			      C 
 00000CD4 00000000	      C 	ClearOn 	DWORD 0
 00000CD8 00000000	      C 	Building	DWORD 0
			      C 
			      C 
			      C 
 00000CDC 00000000	      C 	Timer1				DWORD 0
 00000CE0 00000000	      C 	Timer_UserBuild		DWORD 0
 00000CE4 00000000	      C 	Timer_CompBuild		DWORD 0
 00000CE8 00000000	      C 	Timer_Build_Goal 	DWORD 0
			      C 
 00000CEC 00000000	      C 	EnoughTimer			DWORD 0
			      C 
 00000CF0 00000000	      C 	UserAttackTimer		DWORD 0
 00000CF4 00000000	      C 	CompAttackTimer		DWORD 0
			      C 
			      C 
 00000CF8 00000000	      C 	User_BuildQueue		DWORD	0,0,0,0,0,-1	;5 DUP(0)
	   00000000
	   00000000
	   00000000
	   00000000
	   FFFFFFFF
 00000D10 00000000	      C 	Comp_BuildQueue		DWORD	0,0,0,0,0,-1	;5 DUP(0)
	   00000000
	   00000000
	   00000000
	   00000000
	   FFFFFFFF
			      C 
 00000D28 00000001	      C 	MoneyIncrementTimer DWORD 1
			      C 	MoneyIncrement		MACRO
			      C 		PUSHAD
			      C 			MOV EAX, 30
			      C 			AddBy UserMoney, EAX
			      C 		POPAD
			      C 		ENDM
			      C 
			      C 
			      C 	UserBuildTimerCheck MACRO
			      C 		PUSHA
			      C 			MOV ESI, OFFSET User_BuildQueue
			      C 			MOV EAX, [ESI]		;Arms
			      C 			GettingSoldierTime EAX,	UserCurrLevel, GetterHandler
			      C 			MOV EAX,	GetterHandler
			      C 			CopyFrom 	Timer_Build_Goal, 	GetterHandler
			      C 			CopyFrom 	Building, [ESI]
			      C 			.IF( Timer_UserBuild == EAX )
			      C 				TriggleBuild 0, [ESI]
			      C 				POPArray 	User_BuildQueue
			      C 				MOV EAX, User_BuildQueue
			      C 				.IF( EAX != 0 )
			      C 					CopyFrom Timer_UserBuild, 1
			      C 				.ELSE
			      C 					CopyFrom Timer_UserBuild, 	0
			      C 					CopyFrom Timer_Build_Goal, 	0
			      C 					CopyFrom Building, 0
			      C 				.ENDIF
			      C 			.ENDIF
			      C 		POPA
			      C 		ENDM
			      C 
			      C 	CompBuildTimerCheck MACRO
			      C 		PUSHA
			      C 			MOV ESI, OFFSET Comp_BuildQueue
			      C 			MOV EAX, [ESI]
			      C 			GettingSoldierTime EAX,	CompCurrLevel, GetterHandler
			      C 			MOV EAX,	GetterHandler 
			      C 			.IF( Timer_CompBuild == EAX )
			      C 				TriggleBuild 1, [ESI]
			      C 				POPArray Comp_BuildQueue
			      C 				MOV EAX, Comp_BuildQueue
			      C 				.IF( EAX != 0 )
			      C 					CopyFrom Timer_CompBuild, 1
			      C 				.ELSE
			      C 					CopyFrom Timer_CompBuild, 0
			      C 				.ENDIF
			      C 			.ENDIF
			      C 		POPA
			      C 		ENDM
			      C 
			      C 	
			      C ;;;;;;;;;;;;;;;;;;;;;;;;;;;;;;;;
			      C ;;;;						;;;;
			      C ;;;;	Dump 	 Soldiers 	;;;;
			      C ;;;;						;;;;
			      C ;;;;;;;;;;;;;;;;;;;;;;;;;;;;;;;;
 00000D2C		      C .Data
			      C 	DumpList MACRO 
			      C 		CopyFrom DebugMode, 1
			      C 		CALL DumpSoldierList
			      C 		ENDM
			      C 	DumpBothList MACRO 
			      C 		CopyFrom DebugMode, 1
			      C 		CALL DumpBothSoldierList
			      C 		ENDM
			      C 	DumpSoldier 	MACRO	Object, ID
			      C 		ObjectOffset ID
			      C 		Write  09H
			      C 		WriteD	Object[EBX].HP
			      C 		Write  09H
			      C 		WriteD	Object[EBX].X
			      C 		Write  09H
			      C 		WriteD	Object[EBX].Y
			      C 		Write  09H
			      C 		WriteD	Object[EBX].ATK
			      C 		Write  09H
			      C 		WriteD	Object[EBX].Level
			      C 		Write  09H
			      C 		WriteD	Object[EBX].ARMS
			      C 		Write  09H
			      C 		WriteD	Object[EBX].League
			      C 		Write  09H
			      C 		WriteI	Object[EBX].AttackTo
			      C 		Write  09H
			      C 		WriteI	Object[EBX].WaitFor
			      C 		Write  09H
			      C 		WriteI	Object[EBX].State
			      C 		Write  09H
			      C 		WriteD	Object[EBX].Alive
			      C 		Write  09H
			      C 	ENDM
			      C 	DumpBoth 	MACRO	ID
			      C 		ObjectOffset ID
			      C 		Write  09H
			      C 		WriteD	UserSoldiers[EBX].HP
			      C 		Write  09H
			      C 		WriteD	UserSoldiers[EBX].X
			      C 		Write  09H
			      C 		WriteD	UserSoldiers[EBX].Y
			      C 		Write  09H
			      C 		WriteI	UserSoldiers[EBX].AttackTo
			      C 		Write  09H
			      C 		WriteI	UserSoldiers[EBX].WaitFor
			      C 		Write  09H
			      C 		WriteD	UserSoldiers[EBX].Alive
			      C 		Write  09H
			      C 		WriteD	CompSoldiers[EBX].HP
			      C 		Write  09H
			      C 		WriteD	CompSoldiers[EBX].X
			      C 		Write  09H
			      C 		WriteD	CompSoldiers[EBX].Y
			      C 		Write  09H
			      C 		WriteI	CompSoldiers[EBX].AttackTo
			      C 		Write  09H
			      C 		WriteI	CompSoldiers[EBX].WaitFor
			      C 		Write  09H
			      C 		WriteD	CompSoldiers[EBX].Alive
			      C 		Write  09H
			      C 
			      C ;		WriteD	Object[EBX].ATK
			      C ;		Write  09H
			      C ;		WriteD	Object[EBX].Level
			      C ;		Write  09H
			      C ;		WriteD	Object[EBX].ARMS
			      C ;		Write  09H
			      C ;		WriteD	Object[EBX].League
			      C ;		Write  09H
			      C ;		WriteI	Object[EBX].State
			      C 	ENDM
			      C 
 00000D2C 0A 49 44 09 48      C 	TableHead DB 	0AH,
	   50 09 58 09 59
	   09 41 54 4B 09
	   4C 65 76 65 6C
	   09 41 52 09 4C
	   65 61 67 09 41
	   74 74 61 63 6B
	   09 57 61 69 74
	   09 53 74 61 74
	   65 09 41 6C 69
	   76 65 09 00
			      C 					"ID",		09H,
			      C 					"HP",		09H,
			      C 					"X",		09H,
			      C 					"Y",		09H,
			      C 					"ATK",		09H,
			      C 					"Level",	09H,
			      C 					"AR",		09H,
			      C 					"Leag",		09H,
			      C 					"Attack",	09H,
			      C 					"Wait",		09H,
			      C 					"State",	09H,
			      C 					"Alive",	09H, 0
 00000D62 0A 49 44 09 48      C 	TableHeadBoth DB 	0AH,
	   50 09 58 09 59
	   09 41 74 74 61
	   63 6B 09 57 61
	   69 74 09 41 6C
	   69 76 65 09 48
	   50 09 58 09 59
	   09 41 74 74 61
	   63 6B 09 57 61
	   69 74 09 41 6C
	   69 76 65 09 00
			      C 					"ID",		09H,
			      C 					"HP",		09H,
			      C 					"X",		09H,
			      C 					"Y",		09H,
			      C 					"Attack",	09H,
			      C 					"Wait",		09H,
			      C 					"Alive",	09H,
			      C 					"HP",		09H,
			      C 					"X",		09H,
			      C 					"Y",		09H,
			      C 					"Attack",	09H,
			      C 					"Wait",		09H,
			      C 					"Alive",	09H,0
			      C 
 000016BE		      C .Code
 000016BE		      C 	DumpSoldierList		PROC
 000016BE  60		      C 		PUSHA
			      C 			Translate 5, 20
 000016BF  8A 15 00000002 R  1C 		MOV  	dl, CurrentPointX
 000016C5  8A 35 00000003 R  1C 		MOV  	dh, CurrentPointY
 000016CB  88 15 00000000 R  1C 		MOV		LastPointX,	dl
 000016D1  88 35 00000001 R  1C 		MOV 	LastPointY,	dh
 000016D7  B2 05	     1C 		MOV  	dl, BYTE PTR 5
 000016D9  B6 14	     1C 		MOV  	dh, BYTE PTR 20
 000016DB  88 15 00000002 R  1C 		MOV 	CurrentPointX,	dl
 000016E1  88 35 00000003 R  1C 		MOV 	CurrentPointY,	dh
 000016E7  E8 00000000 E     1C 		CALL 	Gotoxy  
			      C 			CopyFrom DebugMode, 1
 000016EC  50		     1C 		PUSH EAX
 000016ED  B8 00000001	     1C 			MOV EAX, 1
 000016F2  A3 00000C4F R     1C 			MOV DebugMode, 	EAX
 000016F7  58		     1C 		POP EAX
			      C 			WriteS TableHead
 000016F8  52		     1C 		PUSH EDX
 000016F9  51		     1C 		PUSH ECX
 000016FA  56		     1C 		PUSH ESI
 000016FB  BA 00000D2C R     1C 			MOV EDX, OFFSET TableHead
 00001700  E8 00000000 E     1C 			CALL WriteString
 00001705  59		     1C 		POP ECX
 00001706  59		     1C 		POP ECX
 00001707  5E		     1C 		POP ESI
			      C 			LoopTimes 0
 00001708  B9 00000000	     1C 		MOV 	ECX,	0
 0000170D		      C 			DSs:
			      C 				NL
 0000170D  50		     1C 		PUSH 	EAX
 0000170E  B8 0000000A	     1C 			MOV 	EAX,	0AH
 00001713  E8 00000000 E     1C 			CALL 	WriteChar
 00001718  58		     1C 		POP 	EAX
			      C 				WriteD ECX
 00001719  50		     1C 		PUSH 	EAX
 0000171A  8B C1	     1C 			MOV 	EAX,	ECX
 0000171C  E8 00000000 E     1C 			CALL 	WriteDec
 00001721  58		     1C 		POP 	EAX
			      C 				DumpSoldier UserSoldiers, ECX
 00001722  B8 0000002C	     2C 		MOV EAX, (SIZEOF Soldier)
 00001727  8B D9	     2C 		MOV EBX, ECX
 00001729  F7 E3	     2C 		MUL EBX
 0000172B  8B D8	     2C 		MOV EBX, EAX
 0000172D  50		     2C 		PUSH 	EAX
 0000172E  B8 00000009	     2C 			MOV 	EAX,	09H
 00001733  E8 00000000 E     2C 			CALL 	WriteChar
 00001738  58		     2C 		POP 	EAX
 00001739  50		     2C 		PUSH 	EAX
 0000173A  8B 83 00000849 R  2C 			MOV 	EAX,	UserSoldiers[EBX].HP
 00001740  E8 00000000 E     2C 			CALL 	WriteDec
 00001745  58		     2C 		POP 	EAX
 00001746  50		     2C 		PUSH 	EAX
 00001747  B8 00000009	     2C 			MOV 	EAX,	09H
 0000174C  E8 00000000 E     2C 			CALL 	WriteChar
 00001751  58		     2C 		POP 	EAX
 00001752  50		     2C 		PUSH 	EAX
 00001753  8B 83 0000084D R  2C 			MOV 	EAX,	UserSoldiers[EBX].X
 00001759  E8 00000000 E     2C 			CALL 	WriteDec
 0000175E  58		     2C 		POP 	EAX
 0000175F  50		     2C 		PUSH 	EAX
 00001760  B8 00000009	     2C 			MOV 	EAX,	09H
 00001765  E8 00000000 E     2C 			CALL 	WriteChar
 0000176A  58		     2C 		POP 	EAX
 0000176B  50		     2C 		PUSH 	EAX
 0000176C  8B 83 00000851 R  2C 			MOV 	EAX,	UserSoldiers[EBX].Y
 00001772  E8 00000000 E     2C 			CALL 	WriteDec
 00001777  58		     2C 		POP 	EAX
 00001778  50		     2C 		PUSH 	EAX
 00001779  B8 00000009	     2C 			MOV 	EAX,	09H
 0000177E  E8 00000000 E     2C 			CALL 	WriteChar
 00001783  58		     2C 		POP 	EAX
 00001784  50		     2C 		PUSH 	EAX
 00001785  8B 83 00000855 R  2C 			MOV 	EAX,	UserSoldiers[EBX].ATK
 0000178B  E8 00000000 E     2C 			CALL 	WriteDec
 00001790  58		     2C 		POP 	EAX
 00001791  50		     2C 		PUSH 	EAX
 00001792  B8 00000009	     2C 			MOV 	EAX,	09H
 00001797  E8 00000000 E     2C 			CALL 	WriteChar
 0000179C  58		     2C 		POP 	EAX
 0000179D  50		     2C 		PUSH 	EAX
 0000179E  8B 83 00000859 R  2C 			MOV 	EAX,	UserSoldiers[EBX].Level
 000017A4  E8 00000000 E     2C 			CALL 	WriteDec
 000017A9  58		     2C 		POP 	EAX
 000017AA  50		     2C 		PUSH 	EAX
 000017AB  B8 00000009	     2C 			MOV 	EAX,	09H
 000017B0  E8 00000000 E     2C 			CALL 	WriteChar
 000017B5  58		     2C 		POP 	EAX
 000017B6  50		     2C 		PUSH 	EAX
 000017B7  8B 83 0000085D R  2C 			MOV 	EAX,	UserSoldiers[EBX].ARMS
 000017BD  E8 00000000 E     2C 			CALL 	WriteDec
 000017C2  58		     2C 		POP 	EAX
 000017C3  50		     2C 		PUSH 	EAX
 000017C4  B8 00000009	     2C 			MOV 	EAX,	09H
 000017C9  E8 00000000 E     2C 			CALL 	WriteChar
 000017CE  58		     2C 		POP 	EAX
 000017CF  50		     2C 		PUSH 	EAX
 000017D0  8B 83 00000861 R  2C 			MOV 	EAX,	UserSoldiers[EBX].League
 000017D6  E8 00000000 E     2C 			CALL 	WriteDec
 000017DB  58		     2C 		POP 	EAX
 000017DC  50		     2C 		PUSH 	EAX
 000017DD  B8 00000009	     2C 			MOV 	EAX,	09H
 000017E2  E8 00000000 E     2C 			CALL 	WriteChar
 000017E7  58		     2C 		POP 	EAX
 000017E8  50		     2C 		PUSH 	EAX
 000017E9  8B 83 0000086D R  2C 			MOV 	EAX,	UserSoldiers[EBX].AttackTo
 000017EF  E8 00000000 E     2C 			CALL 	WriteInt
 000017F4  58		     2C 		POP 	EAX
 000017F5  50		     2C 		PUSH 	EAX
 000017F6  B8 00000009	     2C 			MOV 	EAX,	09H
 000017FB  E8 00000000 E     2C 			CALL 	WriteChar
 00001800  58		     2C 		POP 	EAX
 00001801  50		     2C 		PUSH 	EAX
 00001802  8B 83 00000869 R  2C 			MOV 	EAX,	UserSoldiers[EBX].WaitFor
 00001808  E8 00000000 E     2C 			CALL 	WriteInt
 0000180D  58		     2C 		POP 	EAX
 0000180E  50		     2C 		PUSH 	EAX
 0000180F  B8 00000009	     2C 			MOV 	EAX,	09H
 00001814  E8 00000000 E     2C 			CALL 	WriteChar
 00001819  58		     2C 		POP 	EAX
 0000181A  50		     2C 		PUSH 	EAX
 0000181B  8B 83 00000865 R  2C 			MOV 	EAX,	UserSoldiers[EBX].State
 00001821  E8 00000000 E     2C 			CALL 	WriteInt
 00001826  58		     2C 		POP 	EAX
 00001827  50		     2C 		PUSH 	EAX
 00001828  B8 00000009	     2C 			MOV 	EAX,	09H
 0000182D  E8 00000000 E     2C 			CALL 	WriteChar
 00001832  58		     2C 		POP 	EAX
 00001833  50		     2C 		PUSH 	EAX
 00001834  8B 83 00000871 R  2C 			MOV 	EAX,	UserSoldiers[EBX].Alive
 0000183A  E8 00000000 E     2C 			CALL 	WriteDec
 0000183F  58		     2C 		POP 	EAX
 00001840  50		     2C 		PUSH 	EAX
 00001841  B8 00000009	     2C 			MOV 	EAX,	09H
 00001846  E8 00000000 E     2C 			CALL 	WriteChar
 0000184B  58		     2C 		POP 	EAX
			      C 				NextInc	8, DSs
 0000184C  41		     1C 		INC ECX
 0000184D  83 F9 08	     1C 		CMP ECX, 8
 00001850  0F 8C FFFFFEB7    1C 		JL DSs
			      C 			TranslatePrevious
 00001856  8A 15 00000000 R  1C 		MOV  	dl, LastPointX
 0000185C  8A 35 00000001 R  1C 		MOV  	dh, LastPointY
 00001862  88 15 00000002 R  1C 		MOV 	CurrentPointX,	dl
 00001868  88 35 00000003 R  1C 		MOV 	CurrentPointY,	dh
 0000186E  E8 00000000 E     1C 		CALL 	Gotoxy 
 00001873  61		      C 		POPA
			      C 
 00001874  C3		      C 		RET
 00001875		      C 	DumpSoldierList		ENDP
 00001875		      C 	DumpBothSoldierList		PROC
 00001875  60		      C 		PUSHA
			      C 			Translate 5, 20
 00001876  8A 15 00000002 R  1C 		MOV  	dl, CurrentPointX
 0000187C  8A 35 00000003 R  1C 		MOV  	dh, CurrentPointY
 00001882  88 15 00000000 R  1C 		MOV		LastPointX,	dl
 00001888  88 35 00000001 R  1C 		MOV 	LastPointY,	dh
 0000188E  B2 05	     1C 		MOV  	dl, BYTE PTR 5
 00001890  B6 14	     1C 		MOV  	dh, BYTE PTR 20
 00001892  88 15 00000002 R  1C 		MOV 	CurrentPointX,	dl
 00001898  88 35 00000003 R  1C 		MOV 	CurrentPointY,	dh
 0000189E  E8 00000000 E     1C 		CALL 	Gotoxy  
			      C 			CopyFrom DebugMode, 1
 000018A3  50		     1C 		PUSH EAX
 000018A4  B8 00000001	     1C 			MOV EAX, 1
 000018A9  A3 00000C4F R     1C 			MOV DebugMode, 	EAX
 000018AE  58		     1C 		POP EAX
			      C 			WriteS TableHeadBoth
 000018AF  52		     1C 		PUSH EDX
 000018B0  51		     1C 		PUSH ECX
 000018B1  56		     1C 		PUSH ESI
 000018B2  BA 00000D62 R     1C 			MOV EDX, OFFSET TableHeadBoth
 000018B7  E8 00000000 E     1C 			CALL WriteString
 000018BC  59		     1C 		POP ECX
 000018BD  59		     1C 		POP ECX
 000018BE  5E		     1C 		POP ESI
			      C 			LoopTimes 0
 000018BF  B9 00000000	     1C 		MOV 	ECX,	0
 000018C4		      C 			DSs:
			      C 				NL
 000018C4  50		     1C 		PUSH 	EAX
 000018C5  B8 0000000A	     1C 			MOV 	EAX,	0AH
 000018CA  E8 00000000 E     1C 			CALL 	WriteChar
 000018CF  58		     1C 		POP 	EAX
			      C 				WriteD ECX
 000018D0  50		     1C 		PUSH 	EAX
 000018D1  8B C1	     1C 			MOV 	EAX,	ECX
 000018D3  E8 00000000 E     1C 			CALL 	WriteDec
 000018D8  58		     1C 		POP 	EAX
			      C 				DumpBoth ECX
 000018D9  B8 0000002C	     2C 		MOV EAX, (SIZEOF Soldier)
 000018DE  8B D9	     2C 		MOV EBX, ECX
 000018E0  F7 E3	     2C 		MUL EBX
 000018E2  8B D8	     2C 		MOV EBX, EAX
 000018E4  50		     2C 		PUSH 	EAX
 000018E5  B8 00000009	     2C 			MOV 	EAX,	09H
 000018EA  E8 00000000 E     2C 			CALL 	WriteChar
 000018EF  58		     2C 		POP 	EAX
 000018F0  50		     2C 		PUSH 	EAX
 000018F1  8B 83 00000849 R  2C 			MOV 	EAX,	UserSoldiers[EBX].HP
 000018F7  E8 00000000 E     2C 			CALL 	WriteDec
 000018FC  58		     2C 		POP 	EAX
 000018FD  50		     2C 		PUSH 	EAX
 000018FE  B8 00000009	     2C 			MOV 	EAX,	09H
 00001903  E8 00000000 E     2C 			CALL 	WriteChar
 00001908  58		     2C 		POP 	EAX
 00001909  50		     2C 		PUSH 	EAX
 0000190A  8B 83 0000084D R  2C 			MOV 	EAX,	UserSoldiers[EBX].X
 00001910  E8 00000000 E     2C 			CALL 	WriteDec
 00001915  58		     2C 		POP 	EAX
 00001916  50		     2C 		PUSH 	EAX
 00001917  B8 00000009	     2C 			MOV 	EAX,	09H
 0000191C  E8 00000000 E     2C 			CALL 	WriteChar
 00001921  58		     2C 		POP 	EAX
 00001922  50		     2C 		PUSH 	EAX
 00001923  8B 83 00000851 R  2C 			MOV 	EAX,	UserSoldiers[EBX].Y
 00001929  E8 00000000 E     2C 			CALL 	WriteDec
 0000192E  58		     2C 		POP 	EAX
 0000192F  50		     2C 		PUSH 	EAX
 00001930  B8 00000009	     2C 			MOV 	EAX,	09H
 00001935  E8 00000000 E     2C 			CALL 	WriteChar
 0000193A  58		     2C 		POP 	EAX
 0000193B  50		     2C 		PUSH 	EAX
 0000193C  8B 83 0000086D R  2C 			MOV 	EAX,	UserSoldiers[EBX].AttackTo
 00001942  E8 00000000 E     2C 			CALL 	WriteInt
 00001947  58		     2C 		POP 	EAX
 00001948  50		     2C 		PUSH 	EAX
 00001949  B8 00000009	     2C 			MOV 	EAX,	09H
 0000194E  E8 00000000 E     2C 			CALL 	WriteChar
 00001953  58		     2C 		POP 	EAX
 00001954  50		     2C 		PUSH 	EAX
 00001955  8B 83 00000869 R  2C 			MOV 	EAX,	UserSoldiers[EBX].WaitFor
 0000195B  E8 00000000 E     2C 			CALL 	WriteInt
 00001960  58		     2C 		POP 	EAX
 00001961  50		     2C 		PUSH 	EAX
 00001962  B8 00000009	     2C 			MOV 	EAX,	09H
 00001967  E8 00000000 E     2C 			CALL 	WriteChar
 0000196C  58		     2C 		POP 	EAX
 0000196D  50		     2C 		PUSH 	EAX
 0000196E  8B 83 00000871 R  2C 			MOV 	EAX,	UserSoldiers[EBX].Alive
 00001974  E8 00000000 E     2C 			CALL 	WriteDec
 00001979  58		     2C 		POP 	EAX
 0000197A  50		     2C 		PUSH 	EAX
 0000197B  B8 00000009	     2C 			MOV 	EAX,	09H
 00001980  E8 00000000 E     2C 			CALL 	WriteChar
 00001985  58		     2C 		POP 	EAX
 00001986  50		     2C 		PUSH 	EAX
 00001987  8B 83 000009A9 R  2C 			MOV 	EAX,	CompSoldiers[EBX].HP
 0000198D  E8 00000000 E     2C 			CALL 	WriteDec
 00001992  58		     2C 		POP 	EAX
 00001993  50		     2C 		PUSH 	EAX
 00001994  B8 00000009	     2C 			MOV 	EAX,	09H
 00001999  E8 00000000 E     2C 			CALL 	WriteChar
 0000199E  58		     2C 		POP 	EAX
 0000199F  50		     2C 		PUSH 	EAX
 000019A0  8B 83 000009AD R  2C 			MOV 	EAX,	CompSoldiers[EBX].X
 000019A6  E8 00000000 E     2C 			CALL 	WriteDec
 000019AB  58		     2C 		POP 	EAX
 000019AC  50		     2C 		PUSH 	EAX
 000019AD  B8 00000009	     2C 			MOV 	EAX,	09H
 000019B2  E8 00000000 E     2C 			CALL 	WriteChar
 000019B7  58		     2C 		POP 	EAX
 000019B8  50		     2C 		PUSH 	EAX
 000019B9  8B 83 000009B1 R  2C 			MOV 	EAX,	CompSoldiers[EBX].Y
 000019BF  E8 00000000 E     2C 			CALL 	WriteDec
 000019C4  58		     2C 		POP 	EAX
 000019C5  50		     2C 		PUSH 	EAX
 000019C6  B8 00000009	     2C 			MOV 	EAX,	09H
 000019CB  E8 00000000 E     2C 			CALL 	WriteChar
 000019D0  58		     2C 		POP 	EAX
 000019D1  50		     2C 		PUSH 	EAX
 000019D2  8B 83 000009CD R  2C 			MOV 	EAX,	CompSoldiers[EBX].AttackTo
 000019D8  E8 00000000 E     2C 			CALL 	WriteInt
 000019DD  58		     2C 		POP 	EAX
 000019DE  50		     2C 		PUSH 	EAX
 000019DF  B8 00000009	     2C 			MOV 	EAX,	09H
 000019E4  E8 00000000 E     2C 			CALL 	WriteChar
 000019E9  58		     2C 		POP 	EAX
 000019EA  50		     2C 		PUSH 	EAX
 000019EB  8B 83 000009C9 R  2C 			MOV 	EAX,	CompSoldiers[EBX].WaitFor
 000019F1  E8 00000000 E     2C 			CALL 	WriteInt
 000019F6  58		     2C 		POP 	EAX
 000019F7  50		     2C 		PUSH 	EAX
 000019F8  B8 00000009	     2C 			MOV 	EAX,	09H
 000019FD  E8 00000000 E     2C 			CALL 	WriteChar
 00001A02  58		     2C 		POP 	EAX
 00001A03  50		     2C 		PUSH 	EAX
 00001A04  8B 83 000009D1 R  2C 			MOV 	EAX,	CompSoldiers[EBX].Alive
 00001A0A  E8 00000000 E     2C 			CALL 	WriteDec
 00001A0F  58		     2C 		POP 	EAX
 00001A10  50		     2C 		PUSH 	EAX
 00001A11  B8 00000009	     2C 			MOV 	EAX,	09H
 00001A16  E8 00000000 E     2C 			CALL 	WriteChar
 00001A1B  58		     2C 		POP 	EAX
			      C 				NextInc	8, DSs
 00001A1C  41		     1C 		INC ECX
 00001A1D  83 F9 08	     1C 		CMP ECX, 8
 00001A20  0F 8C FFFFFE9E    1C 		JL DSs
			      C 			TranslatePrevious
 00001A26  8A 15 00000000 R  1C 		MOV  	dl, LastPointX
 00001A2C  8A 35 00000001 R  1C 		MOV  	dh, LastPointY
 00001A32  88 15 00000002 R  1C 		MOV 	CurrentPointX,	dl
 00001A38  88 35 00000003 R  1C 		MOV 	CurrentPointY,	dh
 00001A3E  E8 00000000 E     1C 		CALL 	Gotoxy 
 00001A43  61		      C 		POPA
			      C 
 00001A44  C3		      C 		RET
 00001A45		      C 	DumpBothSoldierList		ENDP
			      C 
			      C 
			      C 	
			      C ;;;;;;;;;;;;;;;;;;;;;;;;;;;;;;;;
			      C ;;;;						;;;;
			      C ;;;;	Game 	 End 	 	;;;;
			      C ;;;;						;;;;
			      C ;;;;;;;;;;;;;;;;;;;;;;;;;;;;;;;;
 00000D99		      C .Data
			      C 	UserWin MACRO
			      C 
			      C 		CopyFrom Gaming,	0
			      C 		ENDM
			      C 	CompWin MACRO
			      C 
			      C 		CopyFrom Gaming,	0
			      C 		ENDM
			      C 
			      C 
			      C 
					INCLUDE Collision.inc
			      C ;;;;;;;;;;;;;;;;;;;;;;;;;;;;;;;;
			      C ;;;;						;;;;
			      C ;;;;	   Collision 	    ;;;;
			      C ;;;;						;;;;
			      C ;;;;;;;;;;;;;;;;;;;;;;;;;;;;;;;;
			      C 
 00000D99		      C .DATA
 00000D99 00000000	      C Collision_A_X 	DWORD 	?
 00000D9D 00000000	      C Collision_B_X	DWORD 	?
 00000DA1 00000000	      C Collision_Check_ID	DWORD	?
			      C CollisionCheck MACRO 	Current
			      C 	PUSHA
			      C 		ObjectOffset Current
			      C 		.IF( UserSoldiers[EBX].Alive == 1)
			      C 			LoopTimes 	0
			      C 			CollisionChecking:
			      C 				CopyFrom Collision_Check_ID, ECX
			      C 				ObjectOffset Collision_Check_ID
			      C 				.IF( CompSoldiers[EBX].Alive == 1 )					
			      C 					Collision	Current,	Collision_Check_ID,	GetterHandler
			      C 					.IF	GetterHandler == 1
			      C 						;MOV ECX, 0
			      C 					.ENDIF
			      C 				.ENDIF
			      C 			NEXTINC 7, 	CollisionChecking
			      C 		.ENDIF
			      C 	POPA
			      C 	ENDM
			      C CastleAttackCheck MACRO Object, ID
			      C 	PUSHAD
			      C 		ObjectOffset ID
			      C 		.IF Object[EBX].League == 0
			      C 			GettingSoldierX UserSoldiers, ID, GetterHandler
			      C 			.IF GetterHandler >= 95
			      C 				SettingSoldierAttackTo 	UserSoldiers,	ID,	8
			      C 			.ENDIF
			      C 		.ELSE
			      C 			GettingSoldierX CompSoldiers, ID, GetterHandler
			      C 			.IF GetterHandler <= 25
			      C 				SettingSoldierAttackTo 	CompSoldiers,	ID,	8
			      C 			.ENDIF
			      C 		.ENDIF
			      C 	POPAD
			      C 	ENDM
			      C UserWaitStackCheck MACRO 	Current
			      C 	PUSHA
			      C 		SettingSoldierWaitFor 	UserSoldiers,	Current,	-1
			      C 		LoopTimes 	0
			      C 		UserWattingChecking:
			      C 			ObjectOffset ECX
			      C 			.IF (UserSoldiers[EBX].Alive == 1)
			      C 				.IF Current != ECX
			      C 					WaitStack	0, Current,	ECX,	GetterHandler
			      C 					.IF	GetterHandler == 1
			      C 						;MOV ECX, 0
			      C 					.ENDIF
			      C 				.ENDIF
			      C 			.ENDIF
			      C 			NEXTINC 7,	UserWattingChecking
			      C 	POPA
			      C 	ENDM
			      C CompWaitStackCheck MACRO 	Current
			      C 	PUSHA
			      C 		SettingSoldierWaitFor 	CompSoldiers,	Current,	-1
			      C 		LoopTimes 	0
			      C 		CompWattingChecking:
			      C 			ObjectOffset ECX
			      C 			.IF (CompSoldiers[EBX].Alive == 1)
			      C 				.IF Current != ECX
			      C 					WaitStack	1, Current,	ECX,	GetterHandler
			      C 					.IF	GetterHandler == 1
			      C 						;MOV ECX, 0
			      C 					.ENDIF
			      C 				.ENDIF
			      C 			.ENDIF
			      C 			NEXTINC 7,	CompWattingChecking
			      C 	POPA
			      C 	ENDM
			      C 
			      C Collision	MACRO	UserSoldier, CompSoldier, Call_Back_Val
			      C 	PUSHA
			      C 		;	Get User Soldier Current X Coord in ID
			      C 		GettingSoldierX		UserSoldiers,			UserSoldier,			Collision_A_X
			      C 		;	Get Computer Soldier Current X Coord in ID
			      C 		GettingSoldierX		CompSoldiers,			CompSoldier,			Collision_B_X
			      C 
			      C 		MOV		EAX,	Collision_A_X
			      C 		MOV 	EBX,	Collision_B_X
			      C 		
			      C 		MOV 	EDX,	EBX
			      C 		SUB 	EDX,	EAX
			      C 
			      C 		GettingSoldierWidth UserSoldiers, UserSoldier, GetterHandler
			      C 		MOV ECX, GetterHandler
			      C 		.IF	( EAX != 0 && EBX !=0 )
			      C 			.IF	( EDX < ECX )
			      C 
			      C 
			      C 				;;;;;;;;;;;;;;;;;;;;;;;;;;;;;;;;;;;;;;
			      C 				;;
			      C 				;; 	THIS IS A DEBUG CODE FOR Collision
			      C 				;; 	IF ANY PROBLEM OCCURED
			      C 				;;	 	REMOVE " COMMENT " TO DEBUG
			      C 				;;
			      C 				;;;;;;;;;;;;;;;;;;;;;;;;;;;;;;;;;;;;;;
			      C 
			      C 				;DEBUG SECTION START
			      C 				COMMENT #
			      C 				DefaultColor
			      C 				WriteSAtCenter	60,	10,	Attacking
			      C 				Translate 20,10
			      C 				Write '['
			      C 				WriteI UserSoldier
			      C 				Write '-'
			      C 				WriteI CompSoldier
			      C 				Write ']'
			      C 				AnyKeyToContinue
			      C 				SettingColor Black
			      C 				WriteSAtCenter	60,	10,	Attacking
			      C 				Translate 20,10
			      C 				Write '['
			      C 				WriteI UserSoldier
			      C 				Write '-'
			      C 				WriteI CompSoldier
			      C 				Write ']'
			      C 				DefaultColor
			      C 				TranslatePrevious
			      C 
			      C 				#
			      C 				;DEBUG SECTION CLOSE
			      C 
			      C 				SettingSoldierAttackTo 	UserSoldiers,	UserSoldier,	CompSoldier
			      C 				SettingSoldierAttackTo 	CompSoldiers,	CompSoldier,	UserSoldier
			      C 				CopyFrom	Call_Back_Val,	1
			      C 			.ElSE
			      C 				CopyFrom	Call_Back_Val,	0
			      C 			.ENDIF
			      C 		.ENDIF
			      C 	POPA
			      C 	ENDM	
			      C 
			      C WaitStack	MACRO	League,	Soldier, FrontSoldier,	Call_Back_Val
			      C 	PUSHA
			      C 
			      C 		MOV EDX,	League
			      C 		.IF( EDX == 0)
			      C 			GettingSoldierX		UserSoldiers,			Soldier,			Collision_A_X
			      C 			GettingSoldierX		UserSoldiers,			FrontSoldier,		Collision_B_X
			      C 		.ElSE
			      C 			GettingSoldierX		CompSoldiers,			Soldier,			Collision_A_X
			      C 			GettingSoldierX		CompSoldiers,			FrontSoldier,		Collision_B_X
			      C 		.ENDIF
			      C 
			      C 		MOV		EAX,	Collision_A_X
			      C 		MOV		EBX,	Collision_B_X
			      C 		.IF	( EBX > EAX && Soldier != FrontSoldier && EDX == 0)
			      C 			CopyFrom 	SetterBuffer,	EBX
			      C 			SUB 		SetterBuffer, 	EAX
			      C 			GettingSoldierWidth UserSoldiers, Soldier, GetterHandler
			      C 			MOV ECX, GetterHandler
			      C 			.IF	( SetterBuffer < ECX )
			      C 				SettingSoldierWaitFor 	UserSoldiers,	Soldier,	FrontSoldier
			      C 				CopyFrom	Call_Back_Val,	1
			      C 			.ElSE
			      C 				CopyFrom	Call_Back_Val,	0
			      C 			.ENDIF
			      C 		.ELSEIF ( EBX < EAX && Soldier != FrontSoldier && EDX == 1 )
			      C 			CopyFrom 	SetterBuffer,	EAX
			      C 			SUB 		SetterBuffer, 	EBX
			      C 
			      C 			GettingSoldierWidth CompSoldiers, Soldier, GetterHandler
			      C 			MOV ECX, GetterHandler
			      C 			.IF	( SetterBuffer < ECX )
			      C 				SettingSoldierWaitFor 	CompSoldiers,	Soldier,	FrontSoldier
			      C 				CopyFrom	Call_Back_Val,	1
			      C 			.ElSE
			      C 				CopyFrom	Call_Back_Val,	0
			      C 			.ENDIF
			      C 		.ENDIF
			      C 
			      C 			
			      C 	POPA
			      C 	ENDM	
			      C 
					INCLUDE Attack.inc
			      C ;	Version 3
 00000DA5		      C .Data
			      C 
 00000DA5 00000000	      C 	UserAttackSoldier	DWORD	?
 00000DA9 00000000	      C 	CompAttackSoldier	DWORD	?
			      C 	
 00000DAD 00000000	      C 	UserAttackTarget	DWORD	?
 00000DB1 00000000	      C 	CompAttackTarget	DWORD	?
			      C 
 00000DB5 00000000	      C 	UserATK	DWORD	?
 00000DB9 00000000	      C 	CompATK	DWORD	?
			      C 
 00000DBD 00000000	      C 	UserHP	DWORD	?
 00000DC1 00000000	      C 	CompHP	DWORD	?
			      C 
 00000DC5 00001388	      C 	UserCastleHP	DWORD	5000
 00000DC9 00001388	      C 	CompCastleHP	DWORD	5000
			      C 
			      C 	AttackToUserCastle MACRO
			      C 
			      C 		GettingSoldierAttack	CompSoldiers, 	CompAttackSoldier,	CompATK
			      C 		
			      C 		MOV EAX, CompATK
			      C 		.IF( UserCastleHP > EAX )
			      C 			SubBy UserCastleHP,	CompATK
			      C 		.ELSE
			      C 			CompWin
			      C 		.ENDIF
			      C 
			      C 		ENDM
			      C 	AttackToCompCastle MACRO
			      C 		GettingSoldierAttack	UserSoldiers, 	UserAttackSoldier,	UserATK
			      C 		
			      C 		MOV EAX, UserATK
			      C 		.IF( CompCastleHP > EAX )
			      C 			SubBy CompCastleHP,	UserATK
			      C 		.ELSE
			      C 			UserWin
			      C 		.ENDIF
			      C 
			      C 		ENDM
			      C 
			      C 
			      C 	UserAttack MACRO
			      C 		PUSHAD
			      C 		.IF( UserAttackTarget < 8 && UserAttackTarget >= 0 )
			      C 
			      C 			GettingSoldierAttack	UserSoldiers, 	UserAttackSoldier,	UserATK
			      C 			GettingSoldierHP		CompSoldiers, 	UserAttackTarget,	CompHP
			      C 			
			      C 			MOV EAX,	UserATK
			      C 			.IF( CompHP > EAX )
			      C 				SubBy CompHP,	UserATK
			      C 				SettingSoldierHP		CompSoldiers,	UserAttackTarget,	CompHP
			      C 			.ELSE
			      C 				GettingSoldierMoney 	CompSoldiers,	UserAttackTarget, GetterHandler
			      C 				MOV 	EDX, 	0
			      C 				MOV 	EAX,	GetterHandler
			      C 				MOV 	ECX,	2
			      C 				DIV		ECX
			      C 				AddBy 	UserMoney, EAX
			      C 				DestorySoldier CompSoldiers, UserAttackTarget
			      C 				SettingSoldierAttackTo	UserSoldiers,	UserAttackSoldier,	-1
			      C 				ResetAttack
			      C 				CollisionCheck	 	UserAttackSoldier
			      C 			.ENDIF
			      C 		.ELSEIF ( UserAttackTarget == 8 )
			      C 			AttackToCompCastle
			      C 		.ENDIF	
			      C 
			      C 		POPAD
			      C 		ENDM
			      C 
			      C 	CompAttack MACRO
			      C 		PUSHAD
			      C 
			      C 		.IF( CompAttackTarget < 8 && CompAttackTarget >= 0 )
			      C 
			      C 			GettingSoldierAttack	CompSoldiers, 	CompAttackSoldier,	CompATK
			      C 			GettingSoldierHP		UserSoldiers, 	CompAttackTarget,	UserHP
			      C 			
			      C 			MOV EAX, CompATK
			      C 			.IF( UserHP > EAX )
			      C 				SubBy UserHP,	CompATK
			      C 				SettingSoldierHP		UserSoldiers,	CompAttackTarget,	UserHP
			      C 			.ELSE
			      C 				DestorySoldier UserSoldiers, CompAttackTarget
			      C 				SettingSoldierAttackTo	CompSoldiers,	CompAttackSoldier,	-1
			      C 				ResetAttack
			      C 			.ENDIF
			      C 
			      C 		.ELSEIF( CompAttackTarget == 8 )
			      C 			AttackToUserCastle
			      C 		.ENDIF	
			      C 
			      C 		POPAD
			      C 		ENDM
			      C 
			      C 	ResetAttack 	MACRO
			      C 
			      C 		MOV UserAttackTimer		,0
			      C 		MOV CompAttackTimer		,0
			      C 		MOV UserAttackSoldier	,0
			      C 		MOV CompAttackSoldier	,0
			      C 		MOV UserAttackTarget	,0
			      C 		MOV CompAttackTarget	,0
			      C 		MOV UserATK	,0
			      C 		MOV CompATK	,0
			      C 		MOV UserHP	,0
			      C 		MOV CompHP	,0
			      C 		ENDM
			      C 
					INCLUDE	Draw.inc
			      C ;	Version 3
 00000DCD		      C .Data
			      C 
			      C 
			      C 	Draw MACRO
			      C 		DrawCastle	 	0, 0
			      C 		DrawCastle		1, 103
			      C 		DrawCastleHP	0
			      C 		DrawCastleHP	1
			      C 		DrawMoney
			      C 		DrawSoldiers
			      C 		PanelDisplay
			      C 		
			      C 
			      C 		Collision		0,	0,	GetterHandler
			      C 		ENDM
			      C 
			      C 	Clear MACRO
			      C 		SettingColor 	Black
			      C 		CopyFrom		ClearOn, 1
			      C 		;Draw
			      C 		.IF( UserLevelUpFlag == 1 )
			      C 			DrawCastle	 	0, 0
			      C 		.ENDIF
			      C 		.IF( CompLevelUpFlag == 1 )
			      C 			DrawCastle		1, 103
			      C 		.ENDIF
			      C 		DrawMoney
			      C 		DrawSoldiers
			      C 		PanelDisplay
			      C 		DrawCastleHP	0
			      C 		DrawCastleHP	1
			      C 
			      C 		DefaultColor
			      C 		CopyFrom		ClearOn, 0
			      C 		ENDM
			      C 
			      C 	PanelDisplay MACRO
			      C 		.IF DebugMode == 0
			      C 			DrawInfo
			      C 			NoEnough_Dialog
			      C 			.IF( Timer_UserBuild > 0)
			      C 				Building_Dialog Beats6x
			      C 				;DrawLoading 	Beats4x
			      C 			.ENDIF
			      C 			;DumpArray UserSoldierQueue
			      C 		.ENDIF
			      C 
			      C 		ENDM
			      C 
			      C 	GraphDisplay MACRO String
			      C 			PUSH EDX
			      C 				WriteS 	String
			      C 			POP  EDX
			      C 			INC  DH
			      C 			Call GoToXY
			      C 		ENDM
			      C 
			      C ;;;;;;;;;;;;;;;;;;;;;;;;;;;;;;;;
			      C ;;;;						;;;;
			      C ;;;;	Drawing Soldiers 	;;;;
			      C ;;;;						;;;;
			      C ;;;;;;;;;;;;;;;;;;;;;;;;;;;;;;;;
 00000DCD		      C .Data
			      C 	SoldierOn	MACRO Object, ID
			      C 		ObjectOffset ID
			      C 		.IF (Object[EBX].Alive == 1)
			      C 			DrawHP Object, ID
			      C 			.IF (Object[EBX].League == 0) 
			      C 				
			      C 				.IF (Object[EBX].Arms == 1) 
			      C 					DrawSoldierA Object[EBX], Beats2x
			      C 				.ELSEIF (Object[EBX].Arms == 2) 
			      C 					DrawSoldierB Object[EBX], Beats2x
			      C 				.ELSEIF (Object[EBX].Arms == 3) 
			      C 					DrawSoldierC Object[EBX], Beats4x
			      C 				.ENDIF
			      C 
			      C 			.ELSEIF (Object[EBX].League == 1) 
			      C 
			      C 				.IF (Object[EBX].Arms == 1) 
			      C 					DrawMonsterA Object[EBX], Beats2x
			      C 				.ELSEIF (Object[EBX].Arms == 2) 
			      C 					DrawMonsterB Object[EBX], Beats4x
			      C 				.ELSEIF (Object[EBX].Arms == 3) 
			      C 					DrawMonsterC Object[EBX], Beats4x
			      C 				.ENDIF
			      C 
			      C 			.ENDIF
			      C 			;WriteD MonsterWidth[((Object[EBX].Level-1)*4)+((Object[EBX].Arms-1)*12)]
			      C 			;WriteD ID
			      C 			;GettingSoldierWidth Object, ID, GetterHandler
			      C 			;WriteD GetterHandler
			      C 		.ENDIF
			      C 		ENDM
			      C 
 00000DCD 00000000	      C 	HPLine 			DWORD ?
 00000DD1 00000000	      C 	HPLineX			DWORD ?
 00000DD5 00000000	      C 	HPLineY			DWORD ?
			      C 	DrawHP MACRO Object, ID
			      C 		PUSHAD
			      C 			GettingSoldierX 		Object, ID,	HPLineX
			      C 			GettingSoldierHeight	Object, ID, HPLineY
			      C 			ObjectOffset ID
			      C 			GettingSoldierHP 		Object, ID,	HPLine
			      C 			GettingSoldierPercentHP Object, ID,	GetterHandler
			      C 			DrawHPBar HPLine, GetterHandler
			      C 		POPAD
			      C 		ENDM
			      C 	DrawHPBar  	 MACRO	HP, Length
			      C 		PUSHAD
			      C 			Translate HPLineX, HPLineY
			      C 			WriteD HP
			      C 			Write '['
			      C 			MOV ECX, Length
			      C 			.IF ECX == 1
			      C 				SettingColor Red
			      C 				Write 'I'
			      C 				Write ' '
			      C 				Write ' '
			      C 				Write ' '
			      C 			.ELSEIF ECX == 2
			      C 				SettingColor LightRed
			      C 				Write 'I'
			      C 				Write 'I'
			      C 				Write ' '
			      C 				Write ' '
			      C 			.ELSEIF ECX == 3
			      C 				SettingColor Green
			      C 				Write 'I'
			      C 				Write 'I'
			      C 				Write 'I'
			      C 				Write ' '
			      C 			.ELSEIF ECX == 4
			      C 				SettingColor LightGreen
			      C 				Write 'I'
			      C 				Write 'I'
			      C 				Write 'I'
			      C 				Write 'I'
			      C 			.ENDIF
			      C 			DefaultColor
			      C 			Write ']'
			      C 			TranslatePrevious
			      C 		POPAD
			      C 		ENDM
			      C 	DrawCastleHP MACRO	League
			      C 		PUSHAD
			      C 			MOV EAX, League
			      C 			.IF (EAX ==  0)
			      C 				CopyFrom HPLineX, 5
			      C 				CopyFrom HPLineY, 10
			      C 				MOV EBX, UserCastleHP
			      C 			.ELSE
			      C 				CopyFrom HPLineX, 105
			      C 				CopyFrom HPLineY, 10
			      C 				MOV EBX, CompCastleHP
			      C 			.ENDIF
			      C 			.IF EBX > 3750
			      C 				DrawHPBar EBX, 4
			      C 			.ELSEIF EBX > 2500
			      C 				DrawHPBar EBX, 3
			      C 			.ELSEIF EBX > 1250
			      C 				DrawHPBar EBX, 2
			      C 			.ELSE
			      C 				DrawHPBar EBX, 1
			      C 			.ENDIF
			      C 		POPAD
			      C 		ENDM
			      C 	DrawMoney		MACRO
			      C 		Translate 	60, 2
			      C 		SettingColor Yellow
			      C 		Write 	'$'
			      C 		WriteD 	UserMoney
			      C 		DefaultColor
			      C 		TranslatePrevious
			      C 		ENDM
 00001A45		      C .Code
 00001A45		      C 	DrawingSoldiers 	PROC
 00001A45  60		      C 		PUSHA
			      C 			LoopTimes 0
 00001A46  B9 00000000	     1C 		MOV 	ECX,	0
 00001A4B		      C 			DSs:
			      C 				SoldierOn	UserSoldiers, ECX
 00001A4B  B8 0000002C	     2C 		MOV EAX, (SIZEOF Soldier)
 00001A50  8B D9	     2C 		MOV EBX, ECX
 00001A52  F7 E3	     2C 		MUL EBX
 00001A54  8B D8	     2C 		MOV EBX, EAX
 00001A63  60		     2C 		PUSHAD
 00001A64  60		     3C 		PUSHA
 00001A65  B8 0000002C	     4C 		MOV EAX, (SIZEOF Soldier)
 00001A6A  8B D9	     4C 		MOV EBX, ECX
 00001A6C  F7 E3	     4C 		MUL EBX
 00001A6E  8B D8	     4C 		MOV EBX, EAX
 00001A70  50		     4C 		PUSH EAX
 00001A71  8B 83 0000084D R  4C 			MOV EAX, UserSoldiers[EBX].X
 00001A77  A3 00000DD1 R     4C 			MOV HPLineX, 	EAX
 00001A7C  58		     4C 		POP EAX
 00001A7D  61		     3C 		POPA
 00001A7E  60		     3C 		PUSHA
 00001A7F  B8 0000002C	     4C 		MOV EAX, (SIZEOF Soldier)
 00001A84  8B D9	     4C 		MOV EBX, ECX
 00001A86  F7 E3	     4C 		MUL EBX
 00001A88  8B D8	     4C 		MOV EBX, EAX
 00001A93  8B 83 0000085D R  4C 		MOV EAX, UserSoldiers[EBX].Arms
 00001A99  48		     4C 		DEC EAX
 00001A9A  BA 0000000C	     4C 		MOV EDX, 12
 00001A9F  F7 E2	     4C 		MUL EDX
 00001AA1  8B D0	     4C 		MOV EDX, EAX
 00001AA3  8B 83 00000859 R  4C 		MOV EAX, UserSoldiers[EBX].Level
 00001AA9  48		     4C 		DEC EAX
 00001AAA  C1 E0 02	     4C 		SHL EAX, 2
 00001AAD  03 C2	     4C 		ADD EAX, EDX
 00001AAF  50		     4C 		PUSH EAX
 00001AB0  8B 80 00000B09 R  4C 			MOV EAX, UserSoldier_Height[EAX]
 00001AB6  A3 00000DD5 R     4C 			MOV HPLineY, 	EAX
 00001ABB  58		     4C 		POP EAX
 00001ABE  8B 83 0000085D R  4C 		MOV EAX, UserSoldiers[EBX].Arms
 00001AC4  48		     4C 		DEC EAX
 00001AC5  BA 0000000C	     4C 		MOV EDX, 12
 00001ACA  F7 E2	     4C 		MUL EDX
 00001ACC  8B D0	     4C 		MOV EDX, EAX
 00001ACE  8B 83 00000859 R  4C 		MOV EAX, UserSoldiers[EBX].Level
 00001AD4  48		     4C 		DEC EAX
 00001AD5  C1 E0 02	     4C 		SHL EAX, 2
 00001AD8  03 C2	     4C 		ADD EAX, EDX
 00001ADA  50		     4C 		PUSH EAX
 00001ADB  8B 80 00000B51 R  4C 			MOV EAX, CompSoldier_Height[EAX]
 00001AE1  A3 00000DD5 R     4C 			MOV HPLineY, 	EAX
 00001AE6  58		     4C 		POP EAX
 00001AE7  61		     3C 		POPA
 00001AE8  B8 0000002C	     3C 		MOV EAX, (SIZEOF Soldier)
 00001AED  8B D9	     3C 		MOV EBX, ECX
 00001AEF  F7 E3	     3C 		MUL EBX
 00001AF1  8B D8	     3C 		MOV EBX, EAX
 00001AF3  60		     3C 		PUSHA
 00001AF4  B8 0000002C	     4C 		MOV EAX, (SIZEOF Soldier)
 00001AF9  8B D9	     4C 		MOV EBX, ECX
 00001AFB  F7 E3	     4C 		MUL EBX
 00001AFD  8B D8	     4C 		MOV EBX, EAX
 00001AFF  50		     4C 		PUSH EAX
 00001B00  8B 83 00000849 R  4C 			MOV EAX, UserSoldiers[EBX].HP
 00001B06  A3 00000DCD R     4C 			MOV HPLine, 	EAX
 00001B0B  58		     4C 		POP EAX
 00001B0C  61		     3C 		POPA
 00001B0D  60		     3C 		PUSHA
 00001B0E  60		     4C 		PUSHA
 00001B0F  B8 0000002C	     5C 		MOV EAX, (SIZEOF Soldier)
 00001B14  8B D9	     5C 		MOV EBX, ECX
 00001B16  F7 E3	     5C 		MUL EBX
 00001B18  8B D8	     5C 		MOV EBX, EAX
 00001B1A  50		     5C 		PUSH EAX
 00001B1B  8B 83 00000849 R  5C 			MOV EAX, UserSoldiers[EBX].HP
 00001B21  A3 00000C43 R     5C 			MOV Blood_Percent_Current, 	EAX
 00001B26  58		     5C 		POP EAX
 00001B27  61		     4C 		POPA
 00001B28  60		     4C 		PUSHA
 00001B29  B8 0000002C	     5C 		MOV EAX, (SIZEOF Soldier)
 00001B2E  8B D9	     5C 		MOV EBX, ECX
 00001B30  F7 E3	     5C 		MUL EBX
 00001B32  8B D8	     5C 		MOV EBX, EAX
 00001B34  8B 83 0000085D R  5C 		MOV EAX, UserSoldiers[EBX].Arms
 00001B3A  48		     5C 		DEC EAX
 00001B3B  BA 0000000C	     5C 		MOV EDX, 12
 00001B40  F7 E2	     5C 		MUL EDX
 00001B42  8B D0	     5C 		MOV EDX, EAX
 00001B44  8B 83 00000859 R  5C 		MOV EAX, UserSoldiers[EBX].Level
 00001B4A  48		     5C 		DEC EAX
 00001B4B  C1 E0 02	     5C 		SHL EAX, 2
 00001B4E  03 C2	     5C 		ADD EAX, EDX
 00001B50  50		     5C 		PUSH EAX
 00001B51  8B 80 00000B99 R  5C 			MOV EAX, Soldier_HP[EAX]
 00001B57  A3 00000C33 R     5C 			MOV Blood_Percent_100X, 	EAX
 00001B5C  58		     5C 		POP EAX
 00001B5D  61		     4C 		POPA
 00001B5E  A1 00000C33 R     3C 			MOV EAX, Blood_Percent_100X
 00001B63  8B 1D 00000C43 R  3C 			MOV EBX, Blood_Percent_Current
 00001B71  50		     4C 		PUSH EAX
 00001B72  B8 00000004	     4C 			MOV EAX, 4
 00001B77  A3 00000CA4 R     4C 			MOV GetterHandler, 	EAX
 00001B7C  58		     4C 		POP EAX
 00001B7F  B9 00000002	     3C 				MOV ECX, 2
 00001B84  F7 F1	     3C 				DIV ECX
 00001B8E  50		     4C 		PUSH EAX
 00001B8F  B8 00000003	     4C 			MOV EAX, 3
 00001B94  A3 00000CA4 R     4C 			MOV GetterHandler, 	EAX
 00001B99  58		     4C 		POP EAX
 00001BA4  50		     4C 		PUSH EAX
 00001BA5  B8 00000002	     4C 			MOV EAX, 2
 00001BAA  A3 00000CA4 R     4C 			MOV GetterHandler, 	EAX
 00001BAF  58		     4C 		POP EAX
 00001BB2  50		     4C 		PUSH EAX
 00001BB3  B8 00000001	     4C 			MOV EAX, 1
 00001BB8  A3 00000CA4 R     4C 			MOV GetterHandler, 	EAX
 00001BBD  58		     4C 		POP EAX
 00001BBE  61		     3C 		POPA
 00001BBF  60		     3C 		PUSHAD
 00001BC0  8A 15 00000002 R  4C 		MOV  	dl, CurrentPointX
 00001BC6  8A 35 00000003 R  4C 		MOV  	dh, CurrentPointY
 00001BCC  88 15 00000000 R  4C 		MOV		LastPointX,	dl
 00001BD2  88 35 00000001 R  4C 		MOV 	LastPointY,	dh
 00001BD8  8A 15 00000DD1 R  4C 		MOV  	dl, BYTE PTR HPLineX
 00001BDE  8A 35 00000DD5 R  4C 		MOV  	dh, BYTE PTR HPLineY
 00001BE4  88 15 00000002 R  4C 		MOV 	CurrentPointX,	dl
 00001BEA  88 35 00000003 R  4C 		MOV 	CurrentPointY,	dh
 00001BF0  E8 00000000 E     4C 		CALL 	Gotoxy  
 00001BF5  50		     4C 		PUSH 	EAX
 00001BF6  A1 00000DCD R     4C 			MOV 	EAX,	HPLine
 00001BFB  E8 00000000 E     4C 			CALL 	WriteDec
 00001C00  58		     4C 		POP 	EAX
 00001C01  50		     4C 		PUSH 	EAX
 00001C02  B8 0000005B	     4C 			MOV 	EAX,	'['
 00001C07  E8 00000000 E     4C 			CALL 	WriteChar
 00001C0C  58		     4C 		POP 	EAX
 00001C0D  8B 0D 00000CA4 R  3C 			MOV ECX, GetterHandler
 00001C21  50		     4C 			PUSH 	EAX
 00001C22  B8 00000004	     4C 				MOV 	EAX, Red
 00001C27  E8 00000000 E     4C 				CALL	SetTextColor
 00001C2C  58		     4C 			POP 	EAX
 00001C2D  50		     4C 		PUSH 	EAX
 00001C2E  B8 00000049	     4C 			MOV 	EAX,	'I'
 00001C33  E8 00000000 E     4C 			CALL 	WriteChar
 00001C38  58		     4C 		POP 	EAX
 00001C39  50		     4C 		PUSH 	EAX
 00001C3A  B8 00000020	     4C 			MOV 	EAX,	' '
 00001C3F  E8 00000000 E     4C 			CALL 	WriteChar
 00001C44  58		     4C 		POP 	EAX
 00001C45  50		     4C 		PUSH 	EAX
 00001C46  B8 00000020	     4C 			MOV 	EAX,	' '
 00001C4B  E8 00000000 E     4C 			CALL 	WriteChar
 00001C50  58		     4C 		POP 	EAX
 00001C51  50		     4C 		PUSH 	EAX
 00001C52  B8 00000020	     4C 			MOV 	EAX,	' '
 00001C57  E8 00000000 E     4C 			CALL 	WriteChar
 00001C5C  58		     4C 		POP 	EAX
 00001C70  50		     4C 			PUSH 	EAX
 00001C71  B8 0000000C	     4C 				MOV 	EAX, LightRed
 00001C76  E8 00000000 E     4C 				CALL	SetTextColor
 00001C7B  58		     4C 			POP 	EAX
 00001C7C  50		     4C 		PUSH 	EAX
 00001C7D  B8 00000049	     4C 			MOV 	EAX,	'I'
 00001C82  E8 00000000 E     4C 			CALL 	WriteChar
 00001C87  58		     4C 		POP 	EAX
 00001C88  50		     4C 		PUSH 	EAX
 00001C89  B8 00000049	     4C 			MOV 	EAX,	'I'
 00001C8E  E8 00000000 E     4C 			CALL 	WriteChar
 00001C93  58		     4C 		POP 	EAX
 00001C94  50		     4C 		PUSH 	EAX
 00001C95  B8 00000020	     4C 			MOV 	EAX,	' '
 00001C9A  E8 00000000 E     4C 			CALL 	WriteChar
 00001C9F  58		     4C 		POP 	EAX
 00001CA0  50		     4C 		PUSH 	EAX
 00001CA1  B8 00000020	     4C 			MOV 	EAX,	' '
 00001CA6  E8 00000000 E     4C 			CALL 	WriteChar
 00001CAB  58		     4C 		POP 	EAX
 00001CBF  50		     4C 			PUSH 	EAX
 00001CC0  B8 00000002	     4C 				MOV 	EAX, Green
 00001CC5  E8 00000000 E     4C 				CALL	SetTextColor
 00001CCA  58		     4C 			POP 	EAX
 00001CCB  50		     4C 		PUSH 	EAX
 00001CCC  B8 00000049	     4C 			MOV 	EAX,	'I'
 00001CD1  E8 00000000 E     4C 			CALL 	WriteChar
 00001CD6  58		     4C 		POP 	EAX
 00001CD7  50		     4C 		PUSH 	EAX
 00001CD8  B8 00000049	     4C 			MOV 	EAX,	'I'
 00001CDD  E8 00000000 E     4C 			CALL 	WriteChar
 00001CE2  58		     4C 		POP 	EAX
 00001CE3  50		     4C 		PUSH 	EAX
 00001CE4  B8 00000049	     4C 			MOV 	EAX,	'I'
 00001CE9  E8 00000000 E     4C 			CALL 	WriteChar
 00001CEE  58		     4C 		POP 	EAX
 00001CEF  50		     4C 		PUSH 	EAX
 00001CF0  B8 00000020	     4C 			MOV 	EAX,	' '
 00001CF5  E8 00000000 E     4C 			CALL 	WriteChar
 00001CFA  58		     4C 		POP 	EAX
 00001D0B  50		     4C 			PUSH 	EAX
 00001D0C  B8 0000000A	     4C 				MOV 	EAX, LightGreen
 00001D11  E8 00000000 E     4C 				CALL	SetTextColor
 00001D16  58		     4C 			POP 	EAX
 00001D17  50		     4C 		PUSH 	EAX
 00001D18  B8 00000049	     4C 			MOV 	EAX,	'I'
 00001D1D  E8 00000000 E     4C 			CALL 	WriteChar
 00001D22  58		     4C 		POP 	EAX
 00001D23  50		     4C 		PUSH 	EAX
 00001D24  B8 00000049	     4C 			MOV 	EAX,	'I'
 00001D29  E8 00000000 E     4C 			CALL 	WriteChar
 00001D2E  58		     4C 		POP 	EAX
 00001D2F  50		     4C 		PUSH 	EAX
 00001D30  B8 00000049	     4C 			MOV 	EAX,	'I'
 00001D35  E8 00000000 E     4C 			CALL 	WriteChar
 00001D3A  58		     4C 		POP 	EAX
 00001D3B  50		     4C 		PUSH 	EAX
 00001D3C  B8 00000049	     4C 			MOV 	EAX,	'I'
 00001D41  E8 00000000 E     4C 			CALL 	WriteChar
 00001D46  58		     4C 		POP 	EAX
 00001D50  50		     4C 			PUSH 	EAX
 00001D51  B8 00000007	     4C 				MOV 	EAX, 00000111b
 00001D56  E8 00000000 E     4C 				CALL	SetTextColor
 00001D5B  58		     4C 			POP 	EAX
 00001D5C  50		     4C 		PUSH 	EAX
 00001D5D  B8 0000005D	     4C 			MOV 	EAX,	']'
 00001D62  E8 00000000 E     4C 			CALL 	WriteChar
 00001D67  58		     4C 		POP 	EAX
 00001D68  8A 15 00000000 R  4C 		MOV  	dl, LastPointX
 00001D6E  8A 35 00000001 R  4C 		MOV  	dh, LastPointY
 00001D74  88 15 00000002 R  4C 		MOV 	CurrentPointX,	dl
 00001D7A  88 35 00000003 R  4C 		MOV 	CurrentPointY,	dh
 00001D80  E8 00000000 E     4C 		CALL 	Gotoxy 
 00001D85  61		     3C 		POPAD
 00001D86  61		     2C 		POPAD
 00001DAE  8A 15 00000002 R  4C 		MOV  	dl, CurrentPointX
 00001DB4  8A 35 00000003 R  4C 		MOV  	dh, CurrentPointY
 00001DBA  88 15 00000000 R  4C 		MOV		LastPointX,	dl
 00001DC0  88 35 00000001 R  4C 		MOV 	LastPointY,	dh
 00001DC6  8A 93 0000084D R  4C 		MOV  	dl, BYTE PTR UserSoldiers[EBX].X
 00001DCC  B6 0F	     4C 		MOV  	dh, BYTE PTR 15
 00001DCE  88 15 00000002 R  4C 		MOV 	CurrentPointX,	dl
 00001DD4  88 35 00000003 R  4C 		MOV 	CurrentPointY,	dh
 00001DDA  E8 00000000 E     4C 		CALL 	Gotoxy  
 00001DE8  52		     4C 			PUSH EDX
 00001DE9  52		     5C 		PUSH EDX
 00001DEA  51		     5C 		PUSH ECX
 00001DEB  56		     5C 		PUSH ESI
 00001DEC  BA 00000358 R     5C 			MOV EDX, OFFSET SoldierA1_1_1
 00001DF1  E8 00000000 E     5C 			CALL WriteString
 00001DF6  59		     5C 		POP ECX
 00001DF7  59		     5C 		POP ECX
 00001DF8  5E		     5C 		POP ESI
 00001DF9  5A		     4C 			POP  EDX
 00001DFA  FE C6	     4C 			INC  DH
 00001DFC  E8 00000000 E     4C 			Call GoToXY
 00001E01  52		     4C 			PUSH EDX
 00001E02  52		     5C 		PUSH EDX
 00001E03  51		     5C 		PUSH ECX
 00001E04  56		     5C 		PUSH ESI
 00001E05  BA 0000035D R     5C 			MOV EDX, OFFSET SoldierA1_1_2
 00001E0A  E8 00000000 E     5C 			CALL WriteString
 00001E0F  59		     5C 		POP ECX
 00001E10  59		     5C 		POP ECX
 00001E11  5E		     5C 		POP ESI
 00001E12  5A		     4C 			POP  EDX
 00001E13  FE C6	     4C 			INC  DH
 00001E15  E8 00000000 E     4C 			Call GoToXY
 00001E1A  52		     4C 			PUSH EDX
 00001E1B  52		     5C 		PUSH EDX
 00001E1C  51		     5C 		PUSH ECX
 00001E1D  56		     5C 		PUSH ESI
 00001E1E  BA 00000363 R     5C 			MOV EDX, OFFSET SoldierA1_1_3
 00001E23  E8 00000000 E     5C 			CALL WriteString
 00001E28  59		     5C 		POP ECX
 00001E29  59		     5C 		POP ECX
 00001E2A  5E		     5C 		POP ESI
 00001E2B  5A		     4C 			POP  EDX
 00001E2C  FE C6	     4C 			INC  DH
 00001E2E  E8 00000000 E     4C 			Call GoToXY
 00001E45  52		     4C 			PUSH EDX
 00001E46  52		     5C 		PUSH EDX
 00001E47  51		     5C 		PUSH ECX
 00001E48  56		     5C 		PUSH ESI
 00001E49  BA 00000368 R     5C 			MOV EDX, OFFSET SoldierA1_2_1
 00001E4E  E8 00000000 E     5C 			CALL WriteString
 00001E53  59		     5C 		POP ECX
 00001E54  59		     5C 		POP ECX
 00001E55  5E		     5C 		POP ESI
 00001E56  5A		     4C 			POP  EDX
 00001E57  FE C6	     4C 			INC  DH
 00001E59  E8 00000000 E     4C 			Call GoToXY
 00001E5E  52		     4C 			PUSH EDX
 00001E5F  52		     5C 		PUSH EDX
 00001E60  51		     5C 		PUSH ECX
 00001E61  56		     5C 		PUSH ESI
 00001E62  BA 0000036C R     5C 			MOV EDX, OFFSET SoldierA1_2_2
 00001E67  E8 00000000 E     5C 			CALL WriteString
 00001E6C  59		     5C 		POP ECX
 00001E6D  59		     5C 		POP ECX
 00001E6E  5E		     5C 		POP ESI
 00001E6F  5A		     4C 			POP  EDX
 00001E70  FE C6	     4C 			INC  DH
 00001E72  E8 00000000 E     4C 			Call GoToXY
 00001E77  52		     4C 			PUSH EDX
 00001E78  52		     5C 		PUSH EDX
 00001E79  51		     5C 		PUSH ECX
 00001E7A  56		     5C 		PUSH ESI
 00001E7B  BA 00000371 R     5C 			MOV EDX, OFFSET SoldierA1_2_3
 00001E80  E8 00000000 E     5C 			CALL WriteString
 00001E85  59		     5C 		POP ECX
 00001E86  59		     5C 		POP ECX
 00001E87  5E		     5C 		POP ESI
 00001E88  5A		     4C 			POP  EDX
 00001E89  FE C6	     4C 			INC  DH
 00001E8B  E8 00000000 E     4C 			Call GoToXY
 00001EA2  8A 15 00000002 R  4C 		MOV  	dl, CurrentPointX
 00001EA8  8A 35 00000003 R  4C 		MOV  	dh, CurrentPointY
 00001EAE  88 15 00000000 R  4C 		MOV		LastPointX,	dl
 00001EB4  88 35 00000001 R  4C 		MOV 	LastPointY,	dh
 00001EBA  8A 93 0000084D R  4C 		MOV  	dl, BYTE PTR UserSoldiers[EBX].X
 00001EC0  B6 0F	     4C 		MOV  	dh, BYTE PTR 15
 00001EC2  88 15 00000002 R  4C 		MOV 	CurrentPointX,	dl
 00001EC8  88 35 00000003 R  4C 		MOV 	CurrentPointY,	dh
 00001ECE  E8 00000000 E     4C 		CALL 	Gotoxy  
 00001EDC  52		     4C 			PUSH EDX
 00001EDD  52		     5C 		PUSH EDX
 00001EDE  51		     5C 		PUSH ECX
 00001EDF  56		     5C 		PUSH ESI
 00001EE0  BA 00000374 R     5C 			MOV EDX, OFFSET SoldierA2_1_1
 00001EE5  E8 00000000 E     5C 			CALL WriteString
 00001EEA  59		     5C 		POP ECX
 00001EEB  59		     5C 		POP ECX
 00001EEC  5E		     5C 		POP ESI
 00001EED  5A		     4C 			POP  EDX
 00001EEE  FE C6	     4C 			INC  DH
 00001EF0  E8 00000000 E     4C 			Call GoToXY
 00001EF5  52		     4C 			PUSH EDX
 00001EF6  52		     5C 		PUSH EDX
 00001EF7  51		     5C 		PUSH ECX
 00001EF8  56		     5C 		PUSH ESI
 00001EF9  BA 00000380 R     5C 			MOV EDX, OFFSET SoldierA2_1_2
 00001EFE  E8 00000000 E     5C 			CALL WriteString
 00001F03  59		     5C 		POP ECX
 00001F04  59		     5C 		POP ECX
 00001F05  5E		     5C 		POP ESI
 00001F06  5A		     4C 			POP  EDX
 00001F07  FE C6	     4C 			INC  DH
 00001F09  E8 00000000 E     4C 			Call GoToXY
 00001F0E  52		     4C 			PUSH EDX
 00001F0F  52		     5C 		PUSH EDX
 00001F10  51		     5C 		PUSH ECX
 00001F11  56		     5C 		PUSH ESI
 00001F12  BA 0000038B R     5C 			MOV EDX, OFFSET SoldierA2_1_3
 00001F17  E8 00000000 E     5C 			CALL WriteString
 00001F1C  59		     5C 		POP ECX
 00001F1D  59		     5C 		POP ECX
 00001F1E  5E		     5C 		POP ESI
 00001F1F  5A		     4C 			POP  EDX
 00001F20  FE C6	     4C 			INC  DH
 00001F22  E8 00000000 E     4C 			Call GoToXY
 00001F27  52		     4C 			PUSH EDX
 00001F28  52		     5C 		PUSH EDX
 00001F29  51		     5C 		PUSH ECX
 00001F2A  56		     5C 		PUSH ESI
 00001F2B  BA 00000396 R     5C 			MOV EDX, OFFSET SoldierA2_1_4
 00001F30  E8 00000000 E     5C 			CALL WriteString
 00001F35  59		     5C 		POP ECX
 00001F36  59		     5C 		POP ECX
 00001F37  5E		     5C 		POP ESI
 00001F38  5A		     4C 			POP  EDX
 00001F39  FE C6	     4C 			INC  DH
 00001F3B  E8 00000000 E     4C 			Call GoToXY
 00001F52  52		     4C 			PUSH EDX
 00001F53  52		     5C 		PUSH EDX
 00001F54  51		     5C 		PUSH ECX
 00001F55  56		     5C 		PUSH ESI
 00001F56  BA 00000374 R     5C 			MOV EDX, OFFSET SoldierA2_1_1
 00001F5B  E8 00000000 E     5C 			CALL WriteString
 00001F60  59		     5C 		POP ECX
 00001F61  59		     5C 		POP ECX
 00001F62  5E		     5C 		POP ESI
 00001F63  5A		     4C 			POP  EDX
 00001F64  FE C6	     4C 			INC  DH
 00001F66  E8 00000000 E     4C 			Call GoToXY
 00001F6B  52		     4C 			PUSH EDX
 00001F6C  52		     5C 		PUSH EDX
 00001F6D  51		     5C 		PUSH ECX
 00001F6E  56		     5C 		PUSH ESI
 00001F6F  BA 00000380 R     5C 			MOV EDX, OFFSET SoldierA2_1_2
 00001F74  E8 00000000 E     5C 			CALL WriteString
 00001F79  59		     5C 		POP ECX
 00001F7A  59		     5C 		POP ECX
 00001F7B  5E		     5C 		POP ESI
 00001F7C  5A		     4C 			POP  EDX
 00001F7D  FE C6	     4C 			INC  DH
 00001F7F  E8 00000000 E     4C 			Call GoToXY
 00001F84  52		     4C 			PUSH EDX
 00001F85  52		     5C 		PUSH EDX
 00001F86  51		     5C 		PUSH ECX
 00001F87  56		     5C 		PUSH ESI
 00001F88  BA 0000038B R     5C 			MOV EDX, OFFSET SoldierA2_1_3
 00001F8D  E8 00000000 E     5C 			CALL WriteString
 00001F92  59		     5C 		POP ECX
 00001F93  59		     5C 		POP ECX
 00001F94  5E		     5C 		POP ESI
 00001F95  5A		     4C 			POP  EDX
 00001F96  FE C6	     4C 			INC  DH
 00001F98  E8 00000000 E     4C 			Call GoToXY
 00001F9D  52		     4C 			PUSH EDX
 00001F9E  52		     5C 		PUSH EDX
 00001F9F  51		     5C 		PUSH ECX
 00001FA0  56		     5C 		PUSH ESI
 00001FA1  BA 00000396 R     5C 			MOV EDX, OFFSET SoldierA2_1_4
 00001FA6  E8 00000000 E     5C 			CALL WriteString
 00001FAB  59		     5C 		POP ECX
 00001FAC  59		     5C 		POP ECX
 00001FAD  5E		     5C 		POP ESI
 00001FAE  5A		     4C 			POP  EDX
 00001FAF  FE C6	     4C 			INC  DH
 00001FB1  E8 00000000 E     4C 			Call GoToXY
 00001FC8  8A 15 00000002 R  4C 		MOV  	dl, CurrentPointX
 00001FCE  8A 35 00000003 R  4C 		MOV  	dh, CurrentPointY
 00001FD4  88 15 00000000 R  4C 		MOV		LastPointX,	dl
 00001FDA  88 35 00000001 R  4C 		MOV 	LastPointY,	dh
 00001FE0  8A 93 0000084D R  4C 		MOV  	dl, BYTE PTR UserSoldiers[EBX].X
 00001FE6  B6 0E	     4C 		MOV  	dh, BYTE PTR 14
 00001FE8  88 15 00000002 R  4C 		MOV 	CurrentPointX,	dl
 00001FEE  88 35 00000003 R  4C 		MOV 	CurrentPointY,	dh
 00001FF4  E8 00000000 E     4C 		CALL 	Gotoxy  
 00002002  52		     4C 			PUSH EDX
 00002003  52		     5C 		PUSH EDX
 00002004  51		     5C 		PUSH ECX
 00002005  56		     5C 		PUSH ESI
 00002006  BA 000003A2 R     5C 			MOV EDX, OFFSET SoldierA3_1_1
 0000200B  E8 00000000 E     5C 			CALL WriteString
 00002010  59		     5C 		POP ECX
 00002011  59		     5C 		POP ECX
 00002012  5E		     5C 		POP ESI
 00002013  5A		     4C 			POP  EDX
 00002014  FE C6	     4C 			INC  DH
 00002016  E8 00000000 E     4C 			Call GoToXY
 0000201B  52		     4C 			PUSH EDX
 0000201C  52		     5C 		PUSH EDX
 0000201D  51		     5C 		PUSH ECX
 0000201E  56		     5C 		PUSH ESI
 0000201F  BA 000003B2 R     5C 			MOV EDX, OFFSET SoldierA3_1_2
 00002024  E8 00000000 E     5C 			CALL WriteString
 00002029  59		     5C 		POP ECX
 0000202A  59		     5C 		POP ECX
 0000202B  5E		     5C 		POP ESI
 0000202C  5A		     4C 			POP  EDX
 0000202D  FE C6	     4C 			INC  DH
 0000202F  E8 00000000 E     4C 			Call GoToXY
 00002034  52		     4C 			PUSH EDX
 00002035  52		     5C 		PUSH EDX
 00002036  51		     5C 		PUSH ECX
 00002037  56		     5C 		PUSH ESI
 00002038  BA 000003C1 R     5C 			MOV EDX, OFFSET SoldierA3_1_3
 0000203D  E8 00000000 E     5C 			CALL WriteString
 00002042  59		     5C 		POP ECX
 00002043  59		     5C 		POP ECX
 00002044  5E		     5C 		POP ESI
 00002045  5A		     4C 			POP  EDX
 00002046  FE C6	     4C 			INC  DH
 00002048  E8 00000000 E     4C 			Call GoToXY
 0000204D  52		     4C 			PUSH EDX
 0000204E  52		     5C 		PUSH EDX
 0000204F  51		     5C 		PUSH ECX
 00002050  56		     5C 		PUSH ESI
 00002051  BA 000003D2 R     5C 			MOV EDX, OFFSET SoldierA3_1_4
 00002056  E8 00000000 E     5C 			CALL WriteString
 0000205B  59		     5C 		POP ECX
 0000205C  59		     5C 		POP ECX
 0000205D  5E		     5C 		POP ESI
 0000205E  5A		     4C 			POP  EDX
 0000205F  FE C6	     4C 			INC  DH
 00002061  E8 00000000 E     4C 			Call GoToXY
 00002071  52		     4C 			PUSH EDX
 00002072  52		     5C 		PUSH EDX
 00002073  51		     5C 		PUSH ECX
 00002074  56		     5C 		PUSH ESI
 00002075  BA 000003A2 R     5C 			MOV EDX, OFFSET SoldierA3_1_1
 0000207A  E8 00000000 E     5C 			CALL WriteString
 0000207F  59		     5C 		POP ECX
 00002080  59		     5C 		POP ECX
 00002081  5E		     5C 		POP ESI
 00002082  5A		     4C 			POP  EDX
 00002083  FE C6	     4C 			INC  DH
 00002085  E8 00000000 E     4C 			Call GoToXY
 0000208A  52		     4C 			PUSH EDX
 0000208B  52		     5C 		PUSH EDX
 0000208C  51		     5C 		PUSH ECX
 0000208D  56		     5C 		PUSH ESI
 0000208E  BA 000003B2 R     5C 			MOV EDX, OFFSET SoldierA3_1_2
 00002093  E8 00000000 E     5C 			CALL WriteString
 00002098  59		     5C 		POP ECX
 00002099  59		     5C 		POP ECX
 0000209A  5E		     5C 		POP ESI
 0000209B  5A		     4C 			POP  EDX
 0000209C  FE C6	     4C 			INC  DH
 0000209E  E8 00000000 E     4C 			Call GoToXY
 000020A3  52		     4C 			PUSH EDX
 000020A4  52		     5C 		PUSH EDX
 000020A5  51		     5C 		PUSH ECX
 000020A6  56		     5C 		PUSH ESI
 000020A7  BA 000003C1 R     5C 			MOV EDX, OFFSET SoldierA3_1_3
 000020AC  E8 00000000 E     5C 			CALL WriteString
 000020B1  59		     5C 		POP ECX
 000020B2  59		     5C 		POP ECX
 000020B3  5E		     5C 		POP ESI
 000020B4  5A		     4C 			POP  EDX
 000020B5  FE C6	     4C 			INC  DH
 000020B7  E8 00000000 E     4C 			Call GoToXY
 000020BC  52		     4C 			PUSH EDX
 000020BD  52		     5C 		PUSH EDX
 000020BE  51		     5C 		PUSH ECX
 000020BF  56		     5C 		PUSH ESI
 000020C0  BA 000003D2 R     5C 			MOV EDX, OFFSET SoldierA3_1_4
 000020C5  E8 00000000 E     5C 			CALL WriteString
 000020CA  59		     5C 		POP ECX
 000020CB  59		     5C 		POP ECX
 000020CC  5E		     5C 		POP ESI
 000020CD  5A		     4C 			POP  EDX
 000020CE  FE C6	     4C 			INC  DH
 000020D0  E8 00000000 E     4C 			Call GoToXY
 000020F4  8A 15 00000002 R  4C 		MOV  	dl, CurrentPointX
 000020FA  8A 35 00000003 R  4C 		MOV  	dh, CurrentPointY
 00002100  88 15 00000000 R  4C 		MOV		LastPointX,	dl
 00002106  88 35 00000001 R  4C 		MOV 	LastPointY,	dh
 0000210C  8A 93 0000084D R  4C 		MOV  	dl, BYTE PTR UserSoldiers[EBX].X
 00002112  B6 0F	     4C 		MOV  	dh, BYTE PTR 15
 00002114  88 15 00000002 R  4C 		MOV 	CurrentPointX,	dl
 0000211A  88 35 00000003 R  4C 		MOV 	CurrentPointY,	dh
 00002120  E8 00000000 E     4C 		CALL 	Gotoxy  
 0000212E  52		     4C 			PUSH EDX
 0000212F  52		     5C 		PUSH EDX
 00002130  51		     5C 		PUSH ECX
 00002131  56		     5C 		PUSH ESI
 00002132  BA 000003E3 R     5C 			MOV EDX, OFFSET SoldierB1_1_1
 00002137  E8 00000000 E     5C 			CALL WriteString
 0000213C  59		     5C 		POP ECX
 0000213D  59		     5C 		POP ECX
 0000213E  5E		     5C 		POP ESI
 0000213F  5A		     4C 			POP  EDX
 00002140  FE C6	     4C 			INC  DH
 00002142  E8 00000000 E     4C 			Call GoToXY
 00002147  52		     4C 			PUSH EDX
 00002148  52		     5C 		PUSH EDX
 00002149  51		     5C 		PUSH ECX
 0000214A  56		     5C 		PUSH ESI
 0000214B  BA 000003E8 R     5C 			MOV EDX, OFFSET SoldierB1_1_2
 00002150  E8 00000000 E     5C 			CALL WriteString
 00002155  59		     5C 		POP ECX
 00002156  59		     5C 		POP ECX
 00002157  5E		     5C 		POP ESI
 00002158  5A		     4C 			POP  EDX
 00002159  FE C6	     4C 			INC  DH
 0000215B  E8 00000000 E     4C 			Call GoToXY
 00002160  52		     4C 			PUSH EDX
 00002161  52		     5C 		PUSH EDX
 00002162  51		     5C 		PUSH ECX
 00002163  56		     5C 		PUSH ESI
 00002164  BA 000003ED R     5C 			MOV EDX, OFFSET SoldierB1_1_3
 00002169  E8 00000000 E     5C 			CALL WriteString
 0000216E  59		     5C 		POP ECX
 0000216F  59		     5C 		POP ECX
 00002170  5E		     5C 		POP ESI
 00002171  5A		     4C 			POP  EDX
 00002172  FE C6	     4C 			INC  DH
 00002174  E8 00000000 E     4C 			Call GoToXY
 0000218B  52		     4C 			PUSH EDX
 0000218C  52		     5C 		PUSH EDX
 0000218D  51		     5C 		PUSH ECX
 0000218E  56		     5C 		PUSH ESI
 0000218F  BA 000003F2 R     5C 			MOV EDX, OFFSET SoldierB1_2_1
 00002194  E8 00000000 E     5C 			CALL WriteString
 00002199  59		     5C 		POP ECX
 0000219A  59		     5C 		POP ECX
 0000219B  5E		     5C 		POP ESI
 0000219C  5A		     4C 			POP  EDX
 0000219D  FE C6	     4C 			INC  DH
 0000219F  E8 00000000 E     4C 			Call GoToXY
 000021A4  52		     4C 			PUSH EDX
 000021A5  52		     5C 		PUSH EDX
 000021A6  51		     5C 		PUSH ECX
 000021A7  56		     5C 		PUSH ESI
 000021A8  BA 000003F7 R     5C 			MOV EDX, OFFSET SoldierB1_2_2
 000021AD  E8 00000000 E     5C 			CALL WriteString
 000021B2  59		     5C 		POP ECX
 000021B3  59		     5C 		POP ECX
 000021B4  5E		     5C 		POP ESI
 000021B5  5A		     4C 			POP  EDX
 000021B6  FE C6	     4C 			INC  DH
 000021B8  E8 00000000 E     4C 			Call GoToXY
 000021BD  52		     4C 			PUSH EDX
 000021BE  52		     5C 		PUSH EDX
 000021BF  51		     5C 		PUSH ECX
 000021C0  56		     5C 		PUSH ESI
 000021C1  BA 000003FC R     5C 			MOV EDX, OFFSET SoldierB1_2_3
 000021C6  E8 00000000 E     5C 			CALL WriteString
 000021CB  59		     5C 		POP ECX
 000021CC  59		     5C 		POP ECX
 000021CD  5E		     5C 		POP ESI
 000021CE  5A		     4C 			POP  EDX
 000021CF  FE C6	     4C 			INC  DH
 000021D1  E8 00000000 E     4C 			Call GoToXY
 000021E8  8A 15 00000002 R  4C 		MOV  	dl, CurrentPointX
 000021EE  8A 35 00000003 R  4C 		MOV  	dh, CurrentPointY
 000021F4  88 15 00000000 R  4C 		MOV		LastPointX,	dl
 000021FA  88 35 00000001 R  4C 		MOV 	LastPointY,	dh
 00002200  8A 93 0000084D R  4C 		MOV  	dl, BYTE PTR UserSoldiers[EBX].X
 00002206  B6 0F	     4C 		MOV  	dh, BYTE PTR 15
 00002208  88 15 00000002 R  4C 		MOV 	CurrentPointX,	dl
 0000220E  88 35 00000003 R  4C 		MOV 	CurrentPointY,	dh
 00002214  E8 00000000 E     4C 		CALL 	Gotoxy  
 00002222  52		     4C 			PUSH EDX
 00002223  52		     5C 		PUSH EDX
 00002224  51		     5C 		PUSH ECX
 00002225  56		     5C 		PUSH ESI
 00002226  BA 00000401 R     5C 			MOV EDX, OFFSET SoldierB2_1_1
 0000222B  E8 00000000 E     5C 			CALL WriteString
 00002230  59		     5C 		POP ECX
 00002231  59		     5C 		POP ECX
 00002232  5E		     5C 		POP ESI
 00002233  5A		     4C 			POP  EDX
 00002234  FE C6	     4C 			INC  DH
 00002236  E8 00000000 E     4C 			Call GoToXY
 0000223B  52		     4C 			PUSH EDX
 0000223C  52		     5C 		PUSH EDX
 0000223D  51		     5C 		PUSH ECX
 0000223E  56		     5C 		PUSH ESI
 0000223F  BA 00000406 R     5C 			MOV EDX, OFFSET SoldierB2_1_2
 00002244  E8 00000000 E     5C 			CALL WriteString
 00002249  59		     5C 		POP ECX
 0000224A  59		     5C 		POP ECX
 0000224B  5E		     5C 		POP ESI
 0000224C  5A		     4C 			POP  EDX
 0000224D  FE C6	     4C 			INC  DH
 0000224F  E8 00000000 E     4C 			Call GoToXY
 00002254  52		     4C 			PUSH EDX
 00002255  52		     5C 		PUSH EDX
 00002256  51		     5C 		PUSH ECX
 00002257  56		     5C 		PUSH ESI
 00002258  BA 0000040B R     5C 			MOV EDX, OFFSET SoldierB2_1_3
 0000225D  E8 00000000 E     5C 			CALL WriteString
 00002262  59		     5C 		POP ECX
 00002263  59		     5C 		POP ECX
 00002264  5E		     5C 		POP ESI
 00002265  5A		     4C 			POP  EDX
 00002266  FE C6	     4C 			INC  DH
 00002268  E8 00000000 E     4C 			Call GoToXY
 0000227F  52		     4C 			PUSH EDX
 00002280  52		     5C 		PUSH EDX
 00002281  51		     5C 		PUSH ECX
 00002282  56		     5C 		PUSH ESI
 00002283  BA 00000410 R     5C 			MOV EDX, OFFSET SoldierB2_2_1
 00002288  E8 00000000 E     5C 			CALL WriteString
 0000228D  59		     5C 		POP ECX
 0000228E  59		     5C 		POP ECX
 0000228F  5E		     5C 		POP ESI
 00002290  5A		     4C 			POP  EDX
 00002291  FE C6	     4C 			INC  DH
 00002293  E8 00000000 E     4C 			Call GoToXY
 00002298  52		     4C 			PUSH EDX
 00002299  52		     5C 		PUSH EDX
 0000229A  51		     5C 		PUSH ECX
 0000229B  56		     5C 		PUSH ESI
 0000229C  BA 00000415 R     5C 			MOV EDX, OFFSET SoldierB2_2_2
 000022A1  E8 00000000 E     5C 			CALL WriteString
 000022A6  59		     5C 		POP ECX
 000022A7  59		     5C 		POP ECX
 000022A8  5E		     5C 		POP ESI
 000022A9  5A		     4C 			POP  EDX
 000022AA  FE C6	     4C 			INC  DH
 000022AC  E8 00000000 E     4C 			Call GoToXY
 000022B1  52		     4C 			PUSH EDX
 000022B2  52		     5C 		PUSH EDX
 000022B3  51		     5C 		PUSH ECX
 000022B4  56		     5C 		PUSH ESI
 000022B5  BA 0000041A R     5C 			MOV EDX, OFFSET SoldierB2_2_3
 000022BA  E8 00000000 E     5C 			CALL WriteString
 000022BF  59		     5C 		POP ECX
 000022C0  59		     5C 		POP ECX
 000022C1  5E		     5C 		POP ESI
 000022C2  5A		     4C 			POP  EDX
 000022C3  FE C6	     4C 			INC  DH
 000022C5  E8 00000000 E     4C 			Call GoToXY
 000022DC  8A 15 00000002 R  4C 		MOV  	dl, CurrentPointX
 000022E2  8A 35 00000003 R  4C 		MOV  	dh, CurrentPointY
 000022E8  88 15 00000000 R  4C 		MOV		LastPointX,	dl
 000022EE  88 35 00000001 R  4C 		MOV 	LastPointY,	dh
 000022F4  8A 93 0000084D R  4C 		MOV  	dl, BYTE PTR UserSoldiers[EBX].X
 000022FA  B6 0F	     4C 		MOV  	dh, BYTE PTR 15
 000022FC  88 15 00000002 R  4C 		MOV 	CurrentPointX,	dl
 00002302  88 35 00000003 R  4C 		MOV 	CurrentPointY,	dh
 00002308  E8 00000000 E     4C 		CALL 	Gotoxy  
 00002316  52		     4C 			PUSH EDX
 00002317  52		     5C 		PUSH EDX
 00002318  51		     5C 		PUSH ECX
 00002319  56		     5C 		PUSH ESI
 0000231A  BA 0000041E R     5C 			MOV EDX, OFFSET SoldierB3_1_1
 0000231F  E8 00000000 E     5C 			CALL WriteString
 00002324  59		     5C 		POP ECX
 00002325  59		     5C 		POP ECX
 00002326  5E		     5C 		POP ESI
 00002327  5A		     4C 			POP  EDX
 00002328  FE C6	     4C 			INC  DH
 0000232A  E8 00000000 E     4C 			Call GoToXY
 0000232F  52		     4C 			PUSH EDX
 00002330  52		     5C 		PUSH EDX
 00002331  51		     5C 		PUSH ECX
 00002332  56		     5C 		PUSH ESI
 00002333  BA 00000424 R     5C 			MOV EDX, OFFSET SoldierB3_1_2
 00002338  E8 00000000 E     5C 			CALL WriteString
 0000233D  59		     5C 		POP ECX
 0000233E  59		     5C 		POP ECX
 0000233F  5E		     5C 		POP ESI
 00002340  5A		     4C 			POP  EDX
 00002341  FE C6	     4C 			INC  DH
 00002343  E8 00000000 E     4C 			Call GoToXY
 00002348  52		     4C 			PUSH EDX
 00002349  52		     5C 		PUSH EDX
 0000234A  51		     5C 		PUSH ECX
 0000234B  56		     5C 		PUSH ESI
 0000234C  BA 0000042B R     5C 			MOV EDX, OFFSET SoldierB3_1_3
 00002351  E8 00000000 E     5C 			CALL WriteString
 00002356  59		     5C 		POP ECX
 00002357  59		     5C 		POP ECX
 00002358  5E		     5C 		POP ESI
 00002359  5A		     4C 			POP  EDX
 0000235A  FE C6	     4C 			INC  DH
 0000235C  E8 00000000 E     4C 			Call GoToXY
 0000236F  52		     4C 			PUSH EDX
 00002370  52		     5C 		PUSH EDX
 00002371  51		     5C 		PUSH ECX
 00002372  56		     5C 		PUSH ESI
 00002373  BA 00000431 R     5C 			MOV EDX, OFFSET SoldierB3_2_1
 00002378  E8 00000000 E     5C 			CALL WriteString
 0000237D  59		     5C 		POP ECX
 0000237E  59		     5C 		POP ECX
 0000237F  5E		     5C 		POP ESI
 00002380  5A		     4C 			POP  EDX
 00002381  FE C6	     4C 			INC  DH
 00002383  E8 00000000 E     4C 			Call GoToXY
 00002388  52		     4C 			PUSH EDX
 00002389  52		     5C 		PUSH EDX
 0000238A  51		     5C 		PUSH ECX
 0000238B  56		     5C 		PUSH ESI
 0000238C  BA 00000437 R     5C 			MOV EDX, OFFSET SoldierB3_2_2
 00002391  E8 00000000 E     5C 			CALL WriteString
 00002396  59		     5C 		POP ECX
 00002397  59		     5C 		POP ECX
 00002398  5E		     5C 		POP ESI
 00002399  5A		     4C 			POP  EDX
 0000239A  FE C6	     4C 			INC  DH
 0000239C  E8 00000000 E     4C 			Call GoToXY
 000023A1  52		     4C 			PUSH EDX
 000023A2  52		     5C 		PUSH EDX
 000023A3  51		     5C 		PUSH ECX
 000023A4  56		     5C 		PUSH ESI
 000023A5  BA 0000043E R     5C 			MOV EDX, OFFSET SoldierB3_2_3
 000023AA  E8 00000000 E     5C 			CALL WriteString
 000023AF  59		     5C 		POP ECX
 000023B0  59		     5C 		POP ECX
 000023B1  5E		     5C 		POP ESI
 000023B2  5A		     4C 			POP  EDX
 000023B3  FE C6	     4C 			INC  DH
 000023B5  E8 00000000 E     4C 			Call GoToXY
 000023C8  52		     4C 			PUSH EDX
 000023C9  52		     5C 		PUSH EDX
 000023CA  51		     5C 		PUSH ECX
 000023CB  56		     5C 		PUSH ESI
 000023CC  BA 00000443 R     5C 			MOV EDX, OFFSET SoldierB3_3_1
 000023D1  E8 00000000 E     5C 			CALL WriteString
 000023D6  59		     5C 		POP ECX
 000023D7  59		     5C 		POP ECX
 000023D8  5E		     5C 		POP ESI
 000023D9  5A		     4C 			POP  EDX
 000023DA  FE C6	     4C 			INC  DH
 000023DC  E8 00000000 E     4C 			Call GoToXY
 000023E1  52		     4C 			PUSH EDX
 000023E2  52		     5C 		PUSH EDX
 000023E3  51		     5C 		PUSH ECX
 000023E4  56		     5C 		PUSH ESI
 000023E5  BA 00000449 R     5C 			MOV EDX, OFFSET SoldierB3_3_2
 000023EA  E8 00000000 E     5C 			CALL WriteString
 000023EF  59		     5C 		POP ECX
 000023F0  59		     5C 		POP ECX
 000023F1  5E		     5C 		POP ESI
 000023F2  5A		     4C 			POP  EDX
 000023F3  FE C6	     4C 			INC  DH
 000023F5  E8 00000000 E     4C 			Call GoToXY
 000023FA  52		     4C 			PUSH EDX
 000023FB  52		     5C 		PUSH EDX
 000023FC  51		     5C 		PUSH ECX
 000023FD  56		     5C 		PUSH ESI
 000023FE  BA 00000450 R     5C 			MOV EDX, OFFSET SoldierB3_3_3
 00002403  E8 00000000 E     5C 			CALL WriteString
 00002408  59		     5C 		POP ECX
 00002409  59		     5C 		POP ECX
 0000240A  5E		     5C 		POP ESI
 0000240B  5A		     4C 			POP  EDX
 0000240C  FE C6	     4C 			INC  DH
 0000240E  E8 00000000 E     4C 			Call GoToXY
 0000241E  52		     4C 			PUSH EDX
 0000241F  52		     5C 		PUSH EDX
 00002420  51		     5C 		PUSH ECX
 00002421  56		     5C 		PUSH ESI
 00002422  BA 00000456 R     5C 			MOV EDX, OFFSET SoldierB3_4_1
 00002427  E8 00000000 E     5C 			CALL WriteString
 0000242C  59		     5C 		POP ECX
 0000242D  59		     5C 		POP ECX
 0000242E  5E		     5C 		POP ESI
 0000242F  5A		     4C 			POP  EDX
 00002430  FE C6	     4C 			INC  DH
 00002432  E8 00000000 E     4C 			Call GoToXY
 00002437  52		     4C 			PUSH EDX
 00002438  52		     5C 		PUSH EDX
 00002439  51		     5C 		PUSH ECX
 0000243A  56		     5C 		PUSH ESI
 0000243B  BA 0000045C R     5C 			MOV EDX, OFFSET SoldierB3_4_2
 00002440  E8 00000000 E     5C 			CALL WriteString
 00002445  59		     5C 		POP ECX
 00002446  59		     5C 		POP ECX
 00002447  5E		     5C 		POP ESI
 00002448  5A		     4C 			POP  EDX
 00002449  FE C6	     4C 			INC  DH
 0000244B  E8 00000000 E     4C 			Call GoToXY
 00002450  52		     4C 			PUSH EDX
 00002451  52		     5C 		PUSH EDX
 00002452  51		     5C 		PUSH ECX
 00002453  56		     5C 		PUSH ESI
 00002454  BA 00000463 R     5C 			MOV EDX, OFFSET SoldierB3_4_3
 00002459  E8 00000000 E     5C 			CALL WriteString
 0000245E  59		     5C 		POP ECX
 0000245F  59		     5C 		POP ECX
 00002460  5E		     5C 		POP ESI
 00002461  5A		     4C 			POP  EDX
 00002462  FE C6	     4C 			INC  DH
 00002464  E8 00000000 E     4C 			Call GoToXY
 00002488  8A 15 00000002 R  4C 		MOV  	dl, CurrentPointX
 0000248E  8A 35 00000003 R  4C 		MOV  	dh, CurrentPointY
 00002494  88 15 00000000 R  4C 		MOV		LastPointX,	dl
 0000249A  88 35 00000001 R  4C 		MOV 	LastPointY,	dh
 000024A0  8A 93 0000084D R  4C 		MOV  	dl, BYTE PTR UserSoldiers[EBX].X
 000024A6  B6 0F	     4C 		MOV  	dh, BYTE PTR 15
 000024A8  88 15 00000002 R  4C 		MOV 	CurrentPointX,	dl
 000024AE  88 35 00000003 R  4C 		MOV 	CurrentPointY,	dh
 000024B4  E8 00000000 E     4C 		CALL 	Gotoxy  
 000024C2  52		     4C 			PUSH EDX
 000024C3  52		     5C 		PUSH EDX
 000024C4  51		     5C 		PUSH ECX
 000024C5  56		     5C 		PUSH ESI
 000024C6  BA 00000468 R     5C 			MOV EDX, OFFSET SoldierC1_1_1
 000024CB  E8 00000000 E     5C 			CALL WriteString
 000024D0  59		     5C 		POP ECX
 000024D1  59		     5C 		POP ECX
 000024D2  5E		     5C 		POP ESI
 000024D3  5A		     4C 			POP  EDX
 000024D4  FE C6	     4C 			INC  DH
 000024D6  E8 00000000 E     4C 			Call GoToXY
 000024DB  52		     4C 			PUSH EDX
 000024DC  52		     5C 		PUSH EDX
 000024DD  51		     5C 		PUSH ECX
 000024DE  56		     5C 		PUSH ESI
 000024DF  BA 00000471 R     5C 			MOV EDX, OFFSET SoldierC1_1_2
 000024E4  E8 00000000 E     5C 			CALL WriteString
 000024E9  59		     5C 		POP ECX
 000024EA  59		     5C 		POP ECX
 000024EB  5E		     5C 		POP ESI
 000024EC  5A		     4C 			POP  EDX
 000024ED  FE C6	     4C 			INC  DH
 000024EF  E8 00000000 E     4C 			Call GoToXY
 000024F4  52		     4C 			PUSH EDX
 000024F5  52		     5C 		PUSH EDX
 000024F6  51		     5C 		PUSH ECX
 000024F7  56		     5C 		PUSH ESI
 000024F8  BA 0000047A R     5C 			MOV EDX, OFFSET SoldierC1_1_3
 000024FD  E8 00000000 E     5C 			CALL WriteString
 00002502  59		     5C 		POP ECX
 00002503  59		     5C 		POP ECX
 00002504  5E		     5C 		POP ESI
 00002505  5A		     4C 			POP  EDX
 00002506  FE C6	     4C 			INC  DH
 00002508  E8 00000000 E     4C 			Call GoToXY
 0000251B  52		     4C 			PUSH EDX
 0000251C  52		     5C 		PUSH EDX
 0000251D  51		     5C 		PUSH ECX
 0000251E  56		     5C 		PUSH ESI
 0000251F  BA 00000483 R     5C 			MOV EDX, OFFSET SoldierC1_2_1
 00002524  E8 00000000 E     5C 			CALL WriteString
 00002529  59		     5C 		POP ECX
 0000252A  59		     5C 		POP ECX
 0000252B  5E		     5C 		POP ESI
 0000252C  5A		     4C 			POP  EDX
 0000252D  FE C6	     4C 			INC  DH
 0000252F  E8 00000000 E     4C 			Call GoToXY
 00002534  52		     4C 			PUSH EDX
 00002535  52		     5C 		PUSH EDX
 00002536  51		     5C 		PUSH ECX
 00002537  56		     5C 		PUSH ESI
 00002538  BA 0000048A R     5C 			MOV EDX, OFFSET SoldierC1_2_2
 0000253D  E8 00000000 E     5C 			CALL WriteString
 00002542  59		     5C 		POP ECX
 00002543  59		     5C 		POP ECX
 00002544  5E		     5C 		POP ESI
 00002545  5A		     4C 			POP  EDX
 00002546  FE C6	     4C 			INC  DH
 00002548  E8 00000000 E     4C 			Call GoToXY
 0000254D  52		     4C 			PUSH EDX
 0000254E  52		     5C 		PUSH EDX
 0000254F  51		     5C 		PUSH ECX
 00002550  56		     5C 		PUSH ESI
 00002551  BA 00000493 R     5C 			MOV EDX, OFFSET SoldierC1_2_3
 00002556  E8 00000000 E     5C 			CALL WriteString
 0000255B  59		     5C 		POP ECX
 0000255C  59		     5C 		POP ECX
 0000255D  5E		     5C 		POP ESI
 0000255E  5A		     4C 			POP  EDX
 0000255F  FE C6	     4C 			INC  DH
 00002561  E8 00000000 E     4C 			Call GoToXY
 00002574  52		     4C 			PUSH EDX
 00002575  52		     5C 		PUSH EDX
 00002576  51		     5C 		PUSH ECX
 00002577  56		     5C 		PUSH ESI
 00002578  BA 0000049C R     5C 			MOV EDX, OFFSET SoldierC1_3_1
 0000257D  E8 00000000 E     5C 			CALL WriteString
 00002582  59		     5C 		POP ECX
 00002583  59		     5C 		POP ECX
 00002584  5E		     5C 		POP ESI
 00002585  5A		     4C 			POP  EDX
 00002586  FE C6	     4C 			INC  DH
 00002588  E8 00000000 E     4C 			Call GoToXY
 0000258D  52		     4C 			PUSH EDX
 0000258E  52		     5C 		PUSH EDX
 0000258F  51		     5C 		PUSH ECX
 00002590  56		     5C 		PUSH ESI
 00002591  BA 000004A5 R     5C 			MOV EDX, OFFSET SoldierC1_3_2
 00002596  E8 00000000 E     5C 			CALL WriteString
 0000259B  59		     5C 		POP ECX
 0000259C  59		     5C 		POP ECX
 0000259D  5E		     5C 		POP ESI
 0000259E  5A		     4C 			POP  EDX
 0000259F  FE C6	     4C 			INC  DH
 000025A1  E8 00000000 E     4C 			Call GoToXY
 000025A6  52		     4C 			PUSH EDX
 000025A7  52		     5C 		PUSH EDX
 000025A8  51		     5C 		PUSH ECX
 000025A9  56		     5C 		PUSH ESI
 000025AA  BA 000004AE R     5C 			MOV EDX, OFFSET SoldierC1_3_3
 000025AF  E8 00000000 E     5C 			CALL WriteString
 000025B4  59		     5C 		POP ECX
 000025B5  59		     5C 		POP ECX
 000025B6  5E		     5C 		POP ESI
 000025B7  5A		     4C 			POP  EDX
 000025B8  FE C6	     4C 			INC  DH
 000025BA  E8 00000000 E     4C 			Call GoToXY
 000025D1  52		     4C 			PUSH EDX
 000025D2  52		     5C 		PUSH EDX
 000025D3  51		     5C 		PUSH ECX
 000025D4  56		     5C 		PUSH ESI
 000025D5  BA 000004B7 R     5C 			MOV EDX, OFFSET SoldierC1_4_1
 000025DA  E8 00000000 E     5C 			CALL WriteString
 000025DF  59		     5C 		POP ECX
 000025E0  59		     5C 		POP ECX
 000025E1  5E		     5C 		POP ESI
 000025E2  5A		     4C 			POP  EDX
 000025E3  FE C6	     4C 			INC  DH
 000025E5  E8 00000000 E     4C 			Call GoToXY
 000025EA  52		     4C 			PUSH EDX
 000025EB  52		     5C 		PUSH EDX
 000025EC  51		     5C 		PUSH ECX
 000025ED  56		     5C 		PUSH ESI
 000025EE  BA 000004C0 R     5C 			MOV EDX, OFFSET SoldierC1_4_2
 000025F3  E8 00000000 E     5C 			CALL WriteString
 000025F8  59		     5C 		POP ECX
 000025F9  59		     5C 		POP ECX
 000025FA  5E		     5C 		POP ESI
 000025FB  5A		     4C 			POP  EDX
 000025FC  FE C6	     4C 			INC  DH
 000025FE  E8 00000000 E     4C 			Call GoToXY
 00002603  52		     4C 			PUSH EDX
 00002604  52		     5C 		PUSH EDX
 00002605  51		     5C 		PUSH ECX
 00002606  56		     5C 		PUSH ESI
 00002607  BA 000004C9 R     5C 			MOV EDX, OFFSET SoldierC1_4_3
 0000260C  E8 00000000 E     5C 			CALL WriteString
 00002611  59		     5C 		POP ECX
 00002612  59		     5C 		POP ECX
 00002613  5E		     5C 		POP ESI
 00002614  5A		     4C 			POP  EDX
 00002615  FE C6	     4C 			INC  DH
 00002617  E8 00000000 E     4C 			Call GoToXY
 0000262E  8A 15 00000002 R  4C 		MOV  	dl, CurrentPointX
 00002634  8A 35 00000003 R  4C 		MOV  	dh, CurrentPointY
 0000263A  88 15 00000000 R  4C 		MOV		LastPointX,	dl
 00002640  88 35 00000001 R  4C 		MOV 	LastPointY,	dh
 00002646  8A 93 0000084D R  4C 		MOV  	dl, BYTE PTR UserSoldiers[EBX].X
 0000264C  B6 0E	     4C 		MOV  	dh, BYTE PTR 14
 0000264E  88 15 00000002 R  4C 		MOV 	CurrentPointX,	dl
 00002654  88 35 00000003 R  4C 		MOV 	CurrentPointY,	dh
 0000265A  E8 00000000 E     4C 		CALL 	Gotoxy  
 0000265F  52		     4C 			PUSH EDX
 00002660  52		     5C 		PUSH EDX
 00002661  51		     5C 		PUSH ECX
 00002662  56		     5C 		PUSH ESI
 00002663  BA 000004D2 R     5C 			MOV EDX, OFFSET SoldierC2_1_1
 00002668  E8 00000000 E     5C 			CALL WriteString
 0000266D  59		     5C 		POP ECX
 0000266E  59		     5C 		POP ECX
 0000266F  5E		     5C 		POP ESI
 00002670  5A		     4C 			POP  EDX
 00002671  FE C6	     4C 			INC  DH
 00002673  E8 00000000 E     4C 			Call GoToXY
 00002678  52		     4C 			PUSH EDX
 00002679  52		     5C 		PUSH EDX
 0000267A  51		     5C 		PUSH ECX
 0000267B  56		     5C 		PUSH ESI
 0000267C  BA 000004DD R     5C 			MOV EDX, OFFSET SoldierC2_1_2
 00002681  E8 00000000 E     5C 			CALL WriteString
 00002686  59		     5C 		POP ECX
 00002687  59		     5C 		POP ECX
 00002688  5E		     5C 		POP ESI
 00002689  5A		     4C 			POP  EDX
 0000268A  FE C6	     4C 			INC  DH
 0000268C  E8 00000000 E     4C 			Call GoToXY
 00002691  52		     4C 			PUSH EDX
 00002692  52		     5C 		PUSH EDX
 00002693  51		     5C 		PUSH ECX
 00002694  56		     5C 		PUSH ESI
 00002695  BA 000004E6 R     5C 			MOV EDX, OFFSET SoldierC2_1_3
 0000269A  E8 00000000 E     5C 			CALL WriteString
 0000269F  59		     5C 		POP ECX
 000026A0  59		     5C 		POP ECX
 000026A1  5E		     5C 		POP ESI
 000026A2  5A		     4C 			POP  EDX
 000026A3  FE C6	     4C 			INC  DH
 000026A5  E8 00000000 E     4C 			Call GoToXY
 000026AA  52		     4C 			PUSH EDX
 000026AB  52		     5C 		PUSH EDX
 000026AC  51		     5C 		PUSH ECX
 000026AD  56		     5C 		PUSH ESI
 000026AE  BA 000004F1 R     5C 			MOV EDX, OFFSET SoldierC2_1_4
 000026B3  E8 00000000 E     5C 			CALL WriteString
 000026B8  59		     5C 		POP ECX
 000026B9  59		     5C 		POP ECX
 000026BA  5E		     5C 		POP ESI
 000026BB  5A		     4C 			POP  EDX
 000026BC  FE C6	     4C 			INC  DH
 000026BE  E8 00000000 E     4C 			Call GoToXY
 000026D5  8A 15 00000002 R  4C 		MOV  	dl, CurrentPointX
 000026DB  8A 35 00000003 R  4C 		MOV  	dh, CurrentPointY
 000026E1  88 15 00000000 R  4C 		MOV		LastPointX,	dl
 000026E7  88 35 00000001 R  4C 		MOV 	LastPointY,	dh
 000026ED  8A 93 0000084D R  4C 		MOV  	dl, BYTE PTR UserSoldiers[EBX].X
 000026F3  B6 0D	     4C 		MOV  	dh, BYTE PTR 13
 000026F5  88 15 00000002 R  4C 		MOV 	CurrentPointX,	dl
 000026FB  88 35 00000003 R  4C 		MOV 	CurrentPointY,	dh
 00002701  E8 00000000 E     4C 		CALL 	Gotoxy  
 00002706  52		     4C 			PUSH EDX
 00002707  52		     5C 		PUSH EDX
 00002708  51		     5C 		PUSH ECX
 00002709  56		     5C 		PUSH ESI
 0000270A  BA 000004FA R     5C 			MOV EDX, OFFSET SoldierC3_1_1
 0000270F  E8 00000000 E     5C 			CALL WriteString
 00002714  59		     5C 		POP ECX
 00002715  59		     5C 		POP ECX
 00002716  5E		     5C 		POP ESI
 00002717  5A		     4C 			POP  EDX
 00002718  FE C6	     4C 			INC  DH
 0000271A  E8 00000000 E     4C 			Call GoToXY
 0000271F  52		     4C 			PUSH EDX
 00002720  52		     5C 		PUSH EDX
 00002721  51		     5C 		PUSH ECX
 00002722  56		     5C 		PUSH ESI
 00002723  BA 00000503 R     5C 			MOV EDX, OFFSET SoldierC3_1_2
 00002728  E8 00000000 E     5C 			CALL WriteString
 0000272D  59		     5C 		POP ECX
 0000272E  59		     5C 		POP ECX
 0000272F  5E		     5C 		POP ESI
 00002730  5A		     4C 			POP  EDX
 00002731  FE C6	     4C 			INC  DH
 00002733  E8 00000000 E     4C 			Call GoToXY
 00002738  52		     4C 			PUSH EDX
 00002739  52		     5C 		PUSH EDX
 0000273A  51		     5C 		PUSH ECX
 0000273B  56		     5C 		PUSH ESI
 0000273C  BA 0000050E R     5C 			MOV EDX, OFFSET SoldierC3_1_3
 00002741  E8 00000000 E     5C 			CALL WriteString
 00002746  59		     5C 		POP ECX
 00002747  59		     5C 		POP ECX
 00002748  5E		     5C 		POP ESI
 00002749  5A		     4C 			POP  EDX
 0000274A  FE C6	     4C 			INC  DH
 0000274C  E8 00000000 E     4C 			Call GoToXY
 00002751  52		     4C 			PUSH EDX
 00002752  52		     5C 		PUSH EDX
 00002753  51		     5C 		PUSH ECX
 00002754  56		     5C 		PUSH ESI
 00002755  BA 00000519 R     5C 			MOV EDX, OFFSET SoldierC3_1_4
 0000275A  E8 00000000 E     5C 			CALL WriteString
 0000275F  59		     5C 		POP ECX
 00002760  59		     5C 		POP ECX
 00002761  5E		     5C 		POP ESI
 00002762  5A		     4C 			POP  EDX
 00002763  FE C6	     4C 			INC  DH
 00002765  E8 00000000 E     4C 			Call GoToXY
 0000276A  52		     4C 			PUSH EDX
 0000276B  52		     5C 		PUSH EDX
 0000276C  51		     5C 		PUSH ECX
 0000276D  56		     5C 		PUSH ESI
 0000276E  BA 00000522 R     5C 			MOV EDX, OFFSET SoldierC3_1_5
 00002773  E8 00000000 E     5C 			CALL WriteString
 00002778  59		     5C 		POP ECX
 00002779  59		     5C 		POP ECX
 0000277A  5E		     5C 		POP ESI
 0000277B  5A		     4C 			POP  EDX
 0000277C  FE C6	     4C 			INC  DH
 0000277E  E8 00000000 E     4C 			Call GoToXY
 000027AF  8A 15 00000002 R  4C 		MOV  	dl, CurrentPointX
 000027B5  8A 35 00000003 R  4C 		MOV  	dh, CurrentPointY
 000027BB  88 15 00000000 R  4C 		MOV		LastPointX,	dl
 000027C1  88 35 00000001 R  4C 		MOV 	LastPointY,	dh
 000027C7  8A 93 0000084D R  4C 		MOV  	dl, BYTE PTR UserSoldiers[EBX].X
 000027CD  B6 0E	     4C 		MOV  	dh, BYTE PTR 14
 000027CF  88 15 00000002 R  4C 		MOV 	CurrentPointX,	dl
 000027D5  88 35 00000003 R  4C 		MOV 	CurrentPointY,	dh
 000027DB  E8 00000000 E     4C 		CALL 	Gotoxy  
 000027E9  52		     4C 			PUSH EDX
 000027EA  52		     5C 		PUSH EDX
 000027EB  51		     5C 		PUSH ECX
 000027EC  56		     5C 		PUSH ESI
 000027ED  BA 00000547 R     5C 			MOV EDX, OFFSET MonsterA1_1_1
 000027F2  E8 00000000 E     5C 			CALL WriteString
 000027F7  59		     5C 		POP ECX
 000027F8  59		     5C 		POP ECX
 000027F9  5E		     5C 		POP ESI
 000027FA  5A		     4C 			POP  EDX
 000027FB  FE C6	     4C 			INC  DH
 000027FD  E8 00000000 E     4C 			Call GoToXY
 00002802  52		     4C 			PUSH EDX
 00002803  52		     5C 		PUSH EDX
 00002804  51		     5C 		PUSH ECX
 00002805  56		     5C 		PUSH ESI
 00002806  BA 0000054E R     5C 			MOV EDX, OFFSET MonsterA1_1_2
 0000280B  E8 00000000 E     5C 			CALL WriteString
 00002810  59		     5C 		POP ECX
 00002811  59		     5C 		POP ECX
 00002812  5E		     5C 		POP ESI
 00002813  5A		     4C 			POP  EDX
 00002814  FE C6	     4C 			INC  DH
 00002816  E8 00000000 E     4C 			Call GoToXY
 0000281B  52		     4C 			PUSH EDX
 0000281C  52		     5C 		PUSH EDX
 0000281D  51		     5C 		PUSH ECX
 0000281E  56		     5C 		PUSH ESI
 0000281F  BA 00000557 R     5C 			MOV EDX, OFFSET MonsterA1_1_3
 00002824  E8 00000000 E     5C 			CALL WriteString
 00002829  59		     5C 		POP ECX
 0000282A  59		     5C 		POP ECX
 0000282B  5E		     5C 		POP ESI
 0000282C  5A		     4C 			POP  EDX
 0000282D  FE C6	     4C 			INC  DH
 0000282F  E8 00000000 E     4C 			Call GoToXY
 00002834  52		     4C 			PUSH EDX
 00002835  52		     5C 		PUSH EDX
 00002836  51		     5C 		PUSH ECX
 00002837  56		     5C 		PUSH ESI
 00002838  BA 0000055E R     5C 			MOV EDX, OFFSET MonsterA1_1_4
 0000283D  E8 00000000 E     5C 			CALL WriteString
 00002842  59		     5C 		POP ECX
 00002843  59		     5C 		POP ECX
 00002844  5E		     5C 		POP ESI
 00002845  5A		     4C 			POP  EDX
 00002846  FE C6	     4C 			INC  DH
 00002848  E8 00000000 E     4C 			Call GoToXY
 0000285F  52		     4C 			PUSH EDX
 00002860  52		     5C 		PUSH EDX
 00002861  51		     5C 		PUSH ECX
 00002862  56		     5C 		PUSH ESI
 00002863  BA 00000547 R     5C 			MOV EDX, OFFSET MonsterA1_1_1
 00002868  E8 00000000 E     5C 			CALL WriteString
 0000286D  59		     5C 		POP ECX
 0000286E  59		     5C 		POP ECX
 0000286F  5E		     5C 		POP ESI
 00002870  5A		     4C 			POP  EDX
 00002871  FE C6	     4C 			INC  DH
 00002873  E8 00000000 E     4C 			Call GoToXY
 00002878  52		     4C 			PUSH EDX
 00002879  52		     5C 		PUSH EDX
 0000287A  51		     5C 		PUSH ECX
 0000287B  56		     5C 		PUSH ESI
 0000287C  BA 0000054E R     5C 			MOV EDX, OFFSET MonsterA1_1_2
 00002881  E8 00000000 E     5C 			CALL WriteString
 00002886  59		     5C 		POP ECX
 00002887  59		     5C 		POP ECX
 00002888  5E		     5C 		POP ESI
 00002889  5A		     4C 			POP  EDX
 0000288A  FE C6	     4C 			INC  DH
 0000288C  E8 00000000 E     4C 			Call GoToXY
 00002891  52		     4C 			PUSH EDX
 00002892  52		     5C 		PUSH EDX
 00002893  51		     5C 		PUSH ECX
 00002894  56		     5C 		PUSH ESI
 00002895  BA 00000557 R     5C 			MOV EDX, OFFSET MonsterA1_1_3
 0000289A  E8 00000000 E     5C 			CALL WriteString
 0000289F  59		     5C 		POP ECX
 000028A0  59		     5C 		POP ECX
 000028A1  5E		     5C 		POP ESI
 000028A2  5A		     4C 			POP  EDX
 000028A3  FE C6	     4C 			INC  DH
 000028A5  E8 00000000 E     4C 			Call GoToXY
 000028AA  52		     4C 			PUSH EDX
 000028AB  52		     5C 		PUSH EDX
 000028AC  51		     5C 		PUSH ECX
 000028AD  56		     5C 		PUSH ESI
 000028AE  BA 0000055E R     5C 			MOV EDX, OFFSET MonsterA1_1_4
 000028B3  E8 00000000 E     5C 			CALL WriteString
 000028B8  59		     5C 		POP ECX
 000028B9  59		     5C 		POP ECX
 000028BA  5E		     5C 		POP ESI
 000028BB  5A		     4C 			POP  EDX
 000028BC  FE C6	     4C 			INC  DH
 000028BE  E8 00000000 E     4C 			Call GoToXY
 000028D5  8A 15 00000002 R  4C 		MOV  	dl, CurrentPointX
 000028DB  8A 35 00000003 R  4C 		MOV  	dh, CurrentPointY
 000028E1  88 15 00000000 R  4C 		MOV		LastPointX,	dl
 000028E7  88 35 00000001 R  4C 		MOV 	LastPointY,	dh
 000028ED  8A 93 0000084D R  4C 		MOV  	dl, BYTE PTR UserSoldiers[EBX].X
 000028F3  B6 0E	     4C 		MOV  	dh, BYTE PTR 14
 000028F5  88 15 00000002 R  4C 		MOV 	CurrentPointX,	dl
 000028FB  88 35 00000003 R  4C 		MOV 	CurrentPointY,	dh
 00002901  E8 00000000 E     4C 		CALL 	Gotoxy  
 0000290F  52		     4C 			PUSH EDX
 00002910  52		     5C 		PUSH EDX
 00002911  51		     5C 		PUSH ECX
 00002912  56		     5C 		PUSH ESI
 00002913  BA 00000563 R     5C 			MOV EDX, OFFSET MonsterA2_1_1
 00002918  E8 00000000 E     5C 			CALL WriteString
 0000291D  59		     5C 		POP ECX
 0000291E  59		     5C 		POP ECX
 0000291F  5E		     5C 		POP ESI
 00002920  5A		     4C 			POP  EDX
 00002921  FE C6	     4C 			INC  DH
 00002923  E8 00000000 E     4C 			Call GoToXY
 00002928  52		     4C 			PUSH EDX
 00002929  52		     5C 		PUSH EDX
 0000292A  51		     5C 		PUSH ECX
 0000292B  56		     5C 		PUSH ESI
 0000292C  BA 00000569 R     5C 			MOV EDX, OFFSET MonsterA2_1_2
 00002931  E8 00000000 E     5C 			CALL WriteString
 00002936  59		     5C 		POP ECX
 00002937  59		     5C 		POP ECX
 00002938  5E		     5C 		POP ESI
 00002939  5A		     4C 			POP  EDX
 0000293A  FE C6	     4C 			INC  DH
 0000293C  E8 00000000 E     4C 			Call GoToXY
 00002941  52		     4C 			PUSH EDX
 00002942  52		     5C 		PUSH EDX
 00002943  51		     5C 		PUSH ECX
 00002944  56		     5C 		PUSH ESI
 00002945  BA 00000572 R     5C 			MOV EDX, OFFSET MonsterA2_1_3
 0000294A  E8 00000000 E     5C 			CALL WriteString
 0000294F  59		     5C 		POP ECX
 00002950  59		     5C 		POP ECX
 00002951  5E		     5C 		POP ESI
 00002952  5A		     4C 			POP  EDX
 00002953  FE C6	     4C 			INC  DH
 00002955  E8 00000000 E     4C 			Call GoToXY
 0000295A  52		     4C 			PUSH EDX
 0000295B  52		     5C 		PUSH EDX
 0000295C  51		     5C 		PUSH ECX
 0000295D  56		     5C 		PUSH ESI
 0000295E  BA 0000057A R     5C 			MOV EDX, OFFSET MonsterA2_1_4
 00002963  E8 00000000 E     5C 			CALL WriteString
 00002968  59		     5C 		POP ECX
 00002969  59		     5C 		POP ECX
 0000296A  5E		     5C 		POP ESI
 0000296B  5A		     4C 			POP  EDX
 0000296C  FE C6	     4C 			INC  DH
 0000296E  E8 00000000 E     4C 			Call GoToXY
 00002985  52		     4C 			PUSH EDX
 00002986  52		     5C 		PUSH EDX
 00002987  51		     5C 		PUSH ECX
 00002988  56		     5C 		PUSH ESI
 00002989  BA 00000563 R     5C 			MOV EDX, OFFSET MonsterA2_1_1
 0000298E  E8 00000000 E     5C 			CALL WriteString
 00002993  59		     5C 		POP ECX
 00002994  59		     5C 		POP ECX
 00002995  5E		     5C 		POP ESI
 00002996  5A		     4C 			POP  EDX
 00002997  FE C6	     4C 			INC  DH
 00002999  E8 00000000 E     4C 			Call GoToXY
 0000299E  52		     4C 			PUSH EDX
 0000299F  52		     5C 		PUSH EDX
 000029A0  51		     5C 		PUSH ECX
 000029A1  56		     5C 		PUSH ESI
 000029A2  BA 00000569 R     5C 			MOV EDX, OFFSET MonsterA2_1_2
 000029A7  E8 00000000 E     5C 			CALL WriteString
 000029AC  59		     5C 		POP ECX
 000029AD  59		     5C 		POP ECX
 000029AE  5E		     5C 		POP ESI
 000029AF  5A		     4C 			POP  EDX
 000029B0  FE C6	     4C 			INC  DH
 000029B2  E8 00000000 E     4C 			Call GoToXY
 000029B7  52		     4C 			PUSH EDX
 000029B8  52		     5C 		PUSH EDX
 000029B9  51		     5C 		PUSH ECX
 000029BA  56		     5C 		PUSH ESI
 000029BB  BA 00000572 R     5C 			MOV EDX, OFFSET MonsterA2_1_3
 000029C0  E8 00000000 E     5C 			CALL WriteString
 000029C5  59		     5C 		POP ECX
 000029C6  59		     5C 		POP ECX
 000029C7  5E		     5C 		POP ESI
 000029C8  5A		     4C 			POP  EDX
 000029C9  FE C6	     4C 			INC  DH
 000029CB  E8 00000000 E     4C 			Call GoToXY
 000029D0  52		     4C 			PUSH EDX
 000029D1  52		     5C 		PUSH EDX
 000029D2  51		     5C 		PUSH ECX
 000029D3  56		     5C 		PUSH ESI
 000029D4  BA 0000057A R     5C 			MOV EDX, OFFSET MonsterA2_1_4
 000029D9  E8 00000000 E     5C 			CALL WriteString
 000029DE  59		     5C 		POP ECX
 000029DF  59		     5C 		POP ECX
 000029E0  5E		     5C 		POP ESI
 000029E1  5A		     4C 			POP  EDX
 000029E2  FE C6	     4C 			INC  DH
 000029E4  E8 00000000 E     4C 			Call GoToXY
 000029FB  8A 15 00000002 R  4C 		MOV  	dl, CurrentPointX
 00002A01  8A 35 00000003 R  4C 		MOV  	dh, CurrentPointY
 00002A07  88 15 00000000 R  4C 		MOV		LastPointX,	dl
 00002A0D  88 35 00000001 R  4C 		MOV 	LastPointY,	dh
 00002A13  8A 93 0000084D R  4C 		MOV  	dl, BYTE PTR UserSoldiers[EBX].X
 00002A19  B6 0C	     4C 		MOV  	dh, BYTE PTR 12
 00002A1B  88 15 00000002 R  4C 		MOV 	CurrentPointX,	dl
 00002A21  88 35 00000003 R  4C 		MOV 	CurrentPointY,	dh
 00002A27  E8 00000000 E     4C 		CALL 	Gotoxy  
 00002A39  52		     4C 			PUSH EDX
 00002A3A  52		     5C 		PUSH EDX
 00002A3B  51		     5C 		PUSH ECX
 00002A3C  56		     5C 		PUSH ESI
 00002A3D  BA 00000582 R     5C 			MOV EDX, OFFSET MonsterA3_1_1
 00002A42  E8 00000000 E     5C 			CALL WriteString
 00002A47  59		     5C 		POP ECX
 00002A48  59		     5C 		POP ECX
 00002A49  5E		     5C 		POP ESI
 00002A4A  5A		     4C 			POP  EDX
 00002A4B  FE C6	     4C 			INC  DH
 00002A4D  E8 00000000 E     4C 			Call GoToXY
 00002A52  52		     4C 			PUSH EDX
 00002A53  52		     5C 		PUSH EDX
 00002A54  51		     5C 		PUSH ECX
 00002A55  56		     5C 		PUSH ESI
 00002A56  BA 0000058B R     5C 			MOV EDX, OFFSET MonsterA3_1_2
 00002A5B  E8 00000000 E     5C 			CALL WriteString
 00002A60  59		     5C 		POP ECX
 00002A61  59		     5C 		POP ECX
 00002A62  5E		     5C 		POP ESI
 00002A63  5A		     4C 			POP  EDX
 00002A64  FE C6	     4C 			INC  DH
 00002A66  E8 00000000 E     4C 			Call GoToXY
 00002A6B  52		     4C 			PUSH EDX
 00002A6C  52		     5C 		PUSH EDX
 00002A6D  51		     5C 		PUSH ECX
 00002A6E  56		     5C 		PUSH ESI
 00002A6F  BA 00000593 R     5C 			MOV EDX, OFFSET MonsterA3_1_3
 00002A74  E8 00000000 E     5C 			CALL WriteString
 00002A79  59		     5C 		POP ECX
 00002A7A  59		     5C 		POP ECX
 00002A7B  5E		     5C 		POP ESI
 00002A7C  5A		     4C 			POP  EDX
 00002A7D  FE C6	     4C 			INC  DH
 00002A7F  E8 00000000 E     4C 			Call GoToXY
 00002A84  52		     4C 			PUSH EDX
 00002A85  52		     5C 		PUSH EDX
 00002A86  51		     5C 		PUSH ECX
 00002A87  56		     5C 		PUSH ESI
 00002A88  BA 0000059E R     5C 			MOV EDX, OFFSET MonsterA3_1_4
 00002A8D  E8 00000000 E     5C 			CALL WriteString
 00002A92  59		     5C 		POP ECX
 00002A93  59		     5C 		POP ECX
 00002A94  5E		     5C 		POP ESI
 00002A95  5A		     4C 			POP  EDX
 00002A96  FE C6	     4C 			INC  DH
 00002A98  E8 00000000 E     4C 			Call GoToXY
 00002A9D  52		     4C 			PUSH EDX
 00002A9E  52		     5C 		PUSH EDX
 00002A9F  51		     5C 		PUSH ECX
 00002AA0  56		     5C 		PUSH ESI
 00002AA1  BA 000005A8 R     5C 			MOV EDX, OFFSET MonsterA3_1_5
 00002AA6  E8 00000000 E     5C 			CALL WriteString
 00002AAB  59		     5C 		POP ECX
 00002AAC  59		     5C 		POP ECX
 00002AAD  5E		     5C 		POP ESI
 00002AAE  5A		     4C 			POP  EDX
 00002AAF  FE C6	     4C 			INC  DH
 00002AB1  E8 00000000 E     4C 			Call GoToXY
 00002AB6  52		     4C 			PUSH EDX
 00002AB7  52		     5C 		PUSH EDX
 00002AB8  51		     5C 		PUSH ECX
 00002AB9  56		     5C 		PUSH ESI
 00002ABA  BA 000005B1 R     5C 			MOV EDX, OFFSET MonsterA3_1_6
 00002ABF  E8 00000000 E     5C 			CALL WriteString
 00002AC4  59		     5C 		POP ECX
 00002AC5  59		     5C 		POP ECX
 00002AC6  5E		     5C 		POP ESI
 00002AC7  5A		     4C 			POP  EDX
 00002AC8  FE C6	     4C 			INC  DH
 00002ACA  E8 00000000 E     4C 			Call GoToXY
 00002AE1  52		     4C 			PUSH EDX
 00002AE2  52		     5C 		PUSH EDX
 00002AE3  51		     5C 		PUSH ECX
 00002AE4  56		     5C 		PUSH ESI
 00002AE5  BA 00000582 R     5C 			MOV EDX, OFFSET MonsterA3_1_1
 00002AEA  E8 00000000 E     5C 			CALL WriteString
 00002AEF  59		     5C 		POP ECX
 00002AF0  59		     5C 		POP ECX
 00002AF1  5E		     5C 		POP ESI
 00002AF2  5A		     4C 			POP  EDX
 00002AF3  FE C6	     4C 			INC  DH
 00002AF5  E8 00000000 E     4C 			Call GoToXY
 00002AFA  52		     4C 			PUSH EDX
 00002AFB  52		     5C 		PUSH EDX
 00002AFC  51		     5C 		PUSH ECX
 00002AFD  56		     5C 		PUSH ESI
 00002AFE  BA 0000058B R     5C 			MOV EDX, OFFSET MonsterA3_1_2
 00002B03  E8 00000000 E     5C 			CALL WriteString
 00002B08  59		     5C 		POP ECX
 00002B09  59		     5C 		POP ECX
 00002B0A  5E		     5C 		POP ESI
 00002B0B  5A		     4C 			POP  EDX
 00002B0C  FE C6	     4C 			INC  DH
 00002B0E  E8 00000000 E     4C 			Call GoToXY
 00002B13  52		     4C 			PUSH EDX
 00002B14  52		     5C 		PUSH EDX
 00002B15  51		     5C 		PUSH ECX
 00002B16  56		     5C 		PUSH ESI
 00002B17  BA 00000593 R     5C 			MOV EDX, OFFSET MonsterA3_1_3
 00002B1C  E8 00000000 E     5C 			CALL WriteString
 00002B21  59		     5C 		POP ECX
 00002B22  59		     5C 		POP ECX
 00002B23  5E		     5C 		POP ESI
 00002B24  5A		     4C 			POP  EDX
 00002B25  FE C6	     4C 			INC  DH
 00002B27  E8 00000000 E     4C 			Call GoToXY
 00002B2C  52		     4C 			PUSH EDX
 00002B2D  52		     5C 		PUSH EDX
 00002B2E  51		     5C 		PUSH ECX
 00002B2F  56		     5C 		PUSH ESI
 00002B30  BA 0000059E R     5C 			MOV EDX, OFFSET MonsterA3_1_4
 00002B35  E8 00000000 E     5C 			CALL WriteString
 00002B3A  59		     5C 		POP ECX
 00002B3B  59		     5C 		POP ECX
 00002B3C  5E		     5C 		POP ESI
 00002B3D  5A		     4C 			POP  EDX
 00002B3E  FE C6	     4C 			INC  DH
 00002B40  E8 00000000 E     4C 			Call GoToXY
 00002B45  52		     4C 			PUSH EDX
 00002B46  52		     5C 		PUSH EDX
 00002B47  51		     5C 		PUSH ECX
 00002B48  56		     5C 		PUSH ESI
 00002B49  BA 000005A8 R     5C 			MOV EDX, OFFSET MonsterA3_1_5
 00002B4E  E8 00000000 E     5C 			CALL WriteString
 00002B53  59		     5C 		POP ECX
 00002B54  59		     5C 		POP ECX
 00002B55  5E		     5C 		POP ESI
 00002B56  5A		     4C 			POP  EDX
 00002B57  FE C6	     4C 			INC  DH
 00002B59  E8 00000000 E     4C 			Call GoToXY
 00002B5E  52		     4C 			PUSH EDX
 00002B5F  52		     5C 		PUSH EDX
 00002B60  51		     5C 		PUSH ECX
 00002B61  56		     5C 		PUSH ESI
 00002B62  BA 000005B1 R     5C 			MOV EDX, OFFSET MonsterA3_1_6
 00002B67  E8 00000000 E     5C 			CALL WriteString
 00002B6C  59		     5C 		POP ECX
 00002B6D  59		     5C 		POP ECX
 00002B6E  5E		     5C 		POP ESI
 00002B6F  5A		     4C 			POP  EDX
 00002B70  FE C6	     4C 			INC  DH
 00002B72  E8 00000000 E     4C 			Call GoToXY
 00002B96  8A 15 00000002 R  4C 		MOV  	dl, CurrentPointX
 00002B9C  8A 35 00000003 R  4C 		MOV  	dh, CurrentPointY
 00002BA2  88 15 00000000 R  4C 		MOV		LastPointX,	dl
 00002BA8  88 35 00000001 R  4C 		MOV 	LastPointY,	dh
 00002BAE  8A 93 0000084D R  4C 		MOV  	dl, BYTE PTR UserSoldiers[EBX].X
 00002BB4  B6 0F	     4C 		MOV  	dh, BYTE PTR 15
 00002BB6  88 15 00000002 R  4C 		MOV 	CurrentPointX,	dl
 00002BBC  88 35 00000003 R  4C 		MOV 	CurrentPointY,	dh
 00002BC2  E8 00000000 E     4C 		CALL 	Gotoxy  
 00002BD9  52		     4C 			PUSH EDX
 00002BDA  52		     5C 		PUSH EDX
 00002BDB  51		     5C 		PUSH ECX
 00002BDC  56		     5C 		PUSH ESI
 00002BDD  BA 000005B9 R     5C 			MOV EDX, OFFSET MonsterB1_1_1
 00002BE2  E8 00000000 E     5C 			CALL WriteString
 00002BE7  59		     5C 		POP ECX
 00002BE8  59		     5C 		POP ECX
 00002BE9  5E		     5C 		POP ESI
 00002BEA  5A		     4C 			POP  EDX
 00002BEB  FE C6	     4C 			INC  DH
 00002BED  E8 00000000 E     4C 			Call GoToXY
 00002BF2  52		     4C 			PUSH EDX
 00002BF3  52		     5C 		PUSH EDX
 00002BF4  51		     5C 		PUSH ECX
 00002BF5  56		     5C 		PUSH ESI
 00002BF6  BA 000005BE R     5C 			MOV EDX, OFFSET MonsterB1_1_2
 00002BFB  E8 00000000 E     5C 			CALL WriteString
 00002C00  59		     5C 		POP ECX
 00002C01  59		     5C 		POP ECX
 00002C02  5E		     5C 		POP ESI
 00002C03  5A		     4C 			POP  EDX
 00002C04  FE C6	     4C 			INC  DH
 00002C06  E8 00000000 E     4C 			Call GoToXY
 00002C0B  52		     4C 			PUSH EDX
 00002C0C  52		     5C 		PUSH EDX
 00002C0D  51		     5C 		PUSH ECX
 00002C0E  56		     5C 		PUSH ESI
 00002C0F  BA 000005C3 R     5C 			MOV EDX, OFFSET MonsterB1_1_3
 00002C14  E8 00000000 E     5C 			CALL WriteString
 00002C19  59		     5C 		POP ECX
 00002C1A  59		     5C 		POP ECX
 00002C1B  5E		     5C 		POP ESI
 00002C1C  5A		     4C 			POP  EDX
 00002C1D  FE C6	     4C 			INC  DH
 00002C1F  E8 00000000 E     4C 			Call GoToXY
 00002C3B  52		     4C 			PUSH EDX
 00002C3C  52		     5C 		PUSH EDX
 00002C3D  51		     5C 		PUSH ECX
 00002C3E  56		     5C 		PUSH ESI
 00002C3F  BA 000005C8 R     5C 			MOV EDX, OFFSET MonsterB1_2_1
 00002C44  E8 00000000 E     5C 			CALL WriteString
 00002C49  59		     5C 		POP ECX
 00002C4A  59		     5C 		POP ECX
 00002C4B  5E		     5C 		POP ESI
 00002C4C  5A		     4C 			POP  EDX
 00002C4D  FE C6	     4C 			INC  DH
 00002C4F  E8 00000000 E     4C 			Call GoToXY
 00002C54  52		     4C 			PUSH EDX
 00002C55  52		     5C 		PUSH EDX
 00002C56  51		     5C 		PUSH ECX
 00002C57  56		     5C 		PUSH ESI
 00002C58  BA 000005CD R     5C 			MOV EDX, OFFSET MonsterB1_2_2
 00002C5D  E8 00000000 E     5C 			CALL WriteString
 00002C62  59		     5C 		POP ECX
 00002C63  59		     5C 		POP ECX
 00002C64  5E		     5C 		POP ESI
 00002C65  5A		     4C 			POP  EDX
 00002C66  FE C6	     4C 			INC  DH
 00002C68  E8 00000000 E     4C 			Call GoToXY
 00002C6D  52		     4C 			PUSH EDX
 00002C6E  52		     5C 		PUSH EDX
 00002C6F  51		     5C 		PUSH ECX
 00002C70  56		     5C 		PUSH ESI
 00002C71  BA 000005D2 R     5C 			MOV EDX, OFFSET MonsterB1_2_3
 00002C76  E8 00000000 E     5C 			CALL WriteString
 00002C7B  59		     5C 		POP ECX
 00002C7C  59		     5C 		POP ECX
 00002C7D  5E		     5C 		POP ESI
 00002C7E  5A		     4C 			POP  EDX
 00002C7F  FE C6	     4C 			INC  DH
 00002C81  E8 00000000 E     4C 			Call GoToXY
 00002C8B  52		     4C 			PUSH EDX
 00002C8C  52		     5C 		PUSH EDX
 00002C8D  51		     5C 		PUSH ECX
 00002C8E  56		     5C 		PUSH ESI
 00002C8F  BA 000005D7 R     5C 			MOV EDX, OFFSET MonsterB1_3_1
 00002C94  E8 00000000 E     5C 			CALL WriteString
 00002C99  59		     5C 		POP ECX
 00002C9A  59		     5C 		POP ECX
 00002C9B  5E		     5C 		POP ESI
 00002C9C  5A		     4C 			POP  EDX
 00002C9D  FE C6	     4C 			INC  DH
 00002C9F  E8 00000000 E     4C 			Call GoToXY
 00002CA4  52		     4C 			PUSH EDX
 00002CA5  52		     5C 		PUSH EDX
 00002CA6  51		     5C 		PUSH ECX
 00002CA7  56		     5C 		PUSH ESI
 00002CA8  BA 000005DC R     5C 			MOV EDX, OFFSET MonsterB1_3_2
 00002CAD  E8 00000000 E     5C 			CALL WriteString
 00002CB2  59		     5C 		POP ECX
 00002CB3  59		     5C 		POP ECX
 00002CB4  5E		     5C 		POP ESI
 00002CB5  5A		     4C 			POP  EDX
 00002CB6  FE C6	     4C 			INC  DH
 00002CB8  E8 00000000 E     4C 			Call GoToXY
 00002CBD  52		     4C 			PUSH EDX
 00002CBE  52		     5C 		PUSH EDX
 00002CBF  51		     5C 		PUSH ECX
 00002CC0  56		     5C 		PUSH ESI
 00002CC1  BA 000005E1 R     5C 			MOV EDX, OFFSET MonsterB1_3_3
 00002CC6  E8 00000000 E     5C 			CALL WriteString
 00002CCB  59		     5C 		POP ECX
 00002CCC  59		     5C 		POP ECX
 00002CCD  5E		     5C 		POP ESI
 00002CCE  5A		     4C 			POP  EDX
 00002CCF  FE C6	     4C 			INC  DH
 00002CD1  E8 00000000 E     4C 			Call GoToXY
 00002CE8  8A 15 00000002 R  4C 		MOV  	dl, CurrentPointX
 00002CEE  8A 35 00000003 R  4C 		MOV  	dh, CurrentPointY
 00002CF4  88 15 00000000 R  4C 		MOV		LastPointX,	dl
 00002CFA  88 35 00000001 R  4C 		MOV 	LastPointY,	dh
 00002D00  8A 93 0000084D R  4C 		MOV  	dl, BYTE PTR UserSoldiers[EBX].X
 00002D06  B6 0D	     4C 		MOV  	dh, BYTE PTR 13
 00002D08  88 15 00000002 R  4C 		MOV 	CurrentPointX,	dl
 00002D0E  88 35 00000003 R  4C 		MOV 	CurrentPointY,	dh
 00002D14  E8 00000000 E     4C 		CALL 	Gotoxy  
 00002D2F  52		     4C 			PUSH EDX
 00002D30  52		     5C 		PUSH EDX
 00002D31  51		     5C 		PUSH ECX
 00002D32  56		     5C 		PUSH ESI
 00002D33  BA 000005E6 R     5C 			MOV EDX, OFFSET MonsterB2_1_1
 00002D38  E8 00000000 E     5C 			CALL WriteString
 00002D3D  59		     5C 		POP ECX
 00002D3E  59		     5C 		POP ECX
 00002D3F  5E		     5C 		POP ESI
 00002D40  5A		     4C 			POP  EDX
 00002D41  FE C6	     4C 			INC  DH
 00002D43  E8 00000000 E     4C 			Call GoToXY
 00002D48  52		     4C 			PUSH EDX
 00002D49  52		     5C 		PUSH EDX
 00002D4A  51		     5C 		PUSH ECX
 00002D4B  56		     5C 		PUSH ESI
 00002D4C  BA 000005ED R     5C 			MOV EDX, OFFSET MonsterB2_1_2
 00002D51  E8 00000000 E     5C 			CALL WriteString
 00002D56  59		     5C 		POP ECX
 00002D57  59		     5C 		POP ECX
 00002D58  5E		     5C 		POP ESI
 00002D59  5A		     4C 			POP  EDX
 00002D5A  FE C6	     4C 			INC  DH
 00002D5C  E8 00000000 E     4C 			Call GoToXY
 00002D61  52		     4C 			PUSH EDX
 00002D62  52		     5C 		PUSH EDX
 00002D63  51		     5C 		PUSH ECX
 00002D64  56		     5C 		PUSH ESI
 00002D65  BA 000005F4 R     5C 			MOV EDX, OFFSET MonsterB2_1_3
 00002D6A  E8 00000000 E     5C 			CALL WriteString
 00002D6F  59		     5C 		POP ECX
 00002D70  59		     5C 		POP ECX
 00002D71  5E		     5C 		POP ESI
 00002D72  5A		     4C 			POP  EDX
 00002D73  FE C6	     4C 			INC  DH
 00002D75  E8 00000000 E     4C 			Call GoToXY
 00002D7A  52		     4C 			PUSH EDX
 00002D7B  52		     5C 		PUSH EDX
 00002D7C  51		     5C 		PUSH ECX
 00002D7D  56		     5C 		PUSH ESI
 00002D7E  BA 000005FC R     5C 			MOV EDX, OFFSET MonsterB2_1_4
 00002D83  E8 00000000 E     5C 			CALL WriteString
 00002D88  59		     5C 		POP ECX
 00002D89  59		     5C 		POP ECX
 00002D8A  5E		     5C 		POP ESI
 00002D8B  5A		     4C 			POP  EDX
 00002D8C  FE C6	     4C 			INC  DH
 00002D8E  E8 00000000 E     4C 			Call GoToXY
 00002D93  52		     4C 			PUSH EDX
 00002D94  52		     5C 		PUSH EDX
 00002D95  51		     5C 		PUSH ECX
 00002D96  56		     5C 		PUSH ESI
 00002D97  BA 00000603 R     5C 			MOV EDX, OFFSET MonsterB2_1_5
 00002D9C  E8 00000000 E     5C 			CALL WriteString
 00002DA1  59		     5C 		POP ECX
 00002DA2  59		     5C 		POP ECX
 00002DA3  5E		     5C 		POP ESI
 00002DA4  5A		     4C 			POP  EDX
 00002DA5  FE C6	     4C 			INC  DH
 00002DA7  E8 00000000 E     4C 			Call GoToXY
 00002DC7  52		     4C 			PUSH EDX
 00002DC8  52		     5C 		PUSH EDX
 00002DC9  51		     5C 		PUSH ECX
 00002DCA  56		     5C 		PUSH ESI
 00002DCB  BA 0000060A R     5C 			MOV EDX, OFFSET MonsterB2_2_1
 00002DD0  E8 00000000 E     5C 			CALL WriteString
 00002DD5  59		     5C 		POP ECX
 00002DD6  59		     5C 		POP ECX
 00002DD7  5E		     5C 		POP ESI
 00002DD8  5A		     4C 			POP  EDX
 00002DD9  FE C6	     4C 			INC  DH
 00002DDB  E8 00000000 E     4C 			Call GoToXY
 00002DE0  52		     4C 			PUSH EDX
 00002DE1  52		     5C 		PUSH EDX
 00002DE2  51		     5C 		PUSH ECX
 00002DE3  56		     5C 		PUSH ESI
 00002DE4  BA 00000611 R     5C 			MOV EDX, OFFSET MonsterB2_2_2
 00002DE9  E8 00000000 E     5C 			CALL WriteString
 00002DEE  59		     5C 		POP ECX
 00002DEF  59		     5C 		POP ECX
 00002DF0  5E		     5C 		POP ESI
 00002DF1  5A		     4C 			POP  EDX
 00002DF2  FE C6	     4C 			INC  DH
 00002DF4  E8 00000000 E     4C 			Call GoToXY
 00002DF9  52		     4C 			PUSH EDX
 00002DFA  52		     5C 		PUSH EDX
 00002DFB  51		     5C 		PUSH ECX
 00002DFC  56		     5C 		PUSH ESI
 00002DFD  BA 00000619 R     5C 			MOV EDX, OFFSET MonsterB2_2_3
 00002E02  E8 00000000 E     5C 			CALL WriteString
 00002E07  59		     5C 		POP ECX
 00002E08  59		     5C 		POP ECX
 00002E09  5E		     5C 		POP ESI
 00002E0A  5A		     4C 			POP  EDX
 00002E0B  FE C6	     4C 			INC  DH
 00002E0D  E8 00000000 E     4C 			Call GoToXY
 00002E12  52		     4C 			PUSH EDX
 00002E13  52		     5C 		PUSH EDX
 00002E14  51		     5C 		PUSH ECX
 00002E15  56		     5C 		PUSH ESI
 00002E16  BA 00000620 R     5C 			MOV EDX, OFFSET MonsterB2_2_4
 00002E1B  E8 00000000 E     5C 			CALL WriteString
 00002E20  59		     5C 		POP ECX
 00002E21  59		     5C 		POP ECX
 00002E22  5E		     5C 		POP ESI
 00002E23  5A		     4C 			POP  EDX
 00002E24  FE C6	     4C 			INC  DH
 00002E26  E8 00000000 E     4C 			Call GoToXY
 00002E2B  52		     4C 			PUSH EDX
 00002E2C  52		     5C 		PUSH EDX
 00002E2D  51		     5C 		PUSH ECX
 00002E2E  56		     5C 		PUSH ESI
 00002E2F  BA 00000627 R     5C 			MOV EDX, OFFSET MonsterB2_2_5
 00002E34  E8 00000000 E     5C 			CALL WriteString
 00002E39  59		     5C 		POP ECX
 00002E3A  59		     5C 		POP ECX
 00002E3B  5E		     5C 		POP ESI
 00002E3C  5A		     4C 			POP  EDX
 00002E3D  FE C6	     4C 			INC  DH
 00002E3F  E8 00000000 E     4C 			Call GoToXY
 00002E49  52		     4C 			PUSH EDX
 00002E4A  52		     5C 		PUSH EDX
 00002E4B  51		     5C 		PUSH ECX
 00002E4C  56		     5C 		PUSH ESI
 00002E4D  BA 0000062E R     5C 			MOV EDX, OFFSET MonsterB2_3_1
 00002E52  E8 00000000 E     5C 			CALL WriteString
 00002E57  59		     5C 		POP ECX
 00002E58  59		     5C 		POP ECX
 00002E59  5E		     5C 		POP ESI
 00002E5A  5A		     4C 			POP  EDX
 00002E5B  FE C6	     4C 			INC  DH
 00002E5D  E8 00000000 E     4C 			Call GoToXY
 00002E62  52		     4C 			PUSH EDX
 00002E63  52		     5C 		PUSH EDX
 00002E64  51		     5C 		PUSH ECX
 00002E65  56		     5C 		PUSH ESI
 00002E66  BA 00000636 R     5C 			MOV EDX, OFFSET MonsterB2_3_2
 00002E6B  E8 00000000 E     5C 			CALL WriteString
 00002E70  59		     5C 		POP ECX
 00002E71  59		     5C 		POP ECX
 00002E72  5E		     5C 		POP ESI
 00002E73  5A		     4C 			POP  EDX
 00002E74  FE C6	     4C 			INC  DH
 00002E76  E8 00000000 E     4C 			Call GoToXY
 00002E7B  52		     4C 			PUSH EDX
 00002E7C  52		     5C 		PUSH EDX
 00002E7D  51		     5C 		PUSH ECX
 00002E7E  56		     5C 		PUSH ESI
 00002E7F  BA 0000063D R     5C 			MOV EDX, OFFSET MonsterB2_3_3
 00002E84  E8 00000000 E     5C 			CALL WriteString
 00002E89  59		     5C 		POP ECX
 00002E8A  59		     5C 		POP ECX
 00002E8B  5E		     5C 		POP ESI
 00002E8C  5A		     4C 			POP  EDX
 00002E8D  FE C6	     4C 			INC  DH
 00002E8F  E8 00000000 E     4C 			Call GoToXY
 00002E94  52		     4C 			PUSH EDX
 00002E95  52		     5C 		PUSH EDX
 00002E96  51		     5C 		PUSH ECX
 00002E97  56		     5C 		PUSH ESI
 00002E98  BA 00000644 R     5C 			MOV EDX, OFFSET MonsterB2_3_4
 00002E9D  E8 00000000 E     5C 			CALL WriteString
 00002EA2  59		     5C 		POP ECX
 00002EA3  59		     5C 		POP ECX
 00002EA4  5E		     5C 		POP ESI
 00002EA5  5A		     4C 			POP  EDX
 00002EA6  FE C6	     4C 			INC  DH
 00002EA8  E8 00000000 E     4C 			Call GoToXY
 00002EAD  52		     4C 			PUSH EDX
 00002EAE  52		     5C 		PUSH EDX
 00002EAF  51		     5C 		PUSH ECX
 00002EB0  56		     5C 		PUSH ESI
 00002EB1  BA 0000064B R     5C 			MOV EDX, OFFSET MonsterB2_3_5
 00002EB6  E8 00000000 E     5C 			CALL WriteString
 00002EBB  59		     5C 		POP ECX
 00002EBC  59		     5C 		POP ECX
 00002EBD  5E		     5C 		POP ESI
 00002EBE  5A		     4C 			POP  EDX
 00002EBF  FE C6	     4C 			INC  DH
 00002EC1  E8 00000000 E     4C 			Call GoToXY
 00002ED8  8A 15 00000002 R  4C 		MOV  	dl, CurrentPointX
 00002EDE  8A 35 00000003 R  4C 		MOV  	dh, CurrentPointY
 00002EE4  88 15 00000000 R  4C 		MOV		LastPointX,	dl
 00002EEA  88 35 00000001 R  4C 		MOV 	LastPointY,	dh
 00002EF0  8A 93 0000084D R  4C 		MOV  	dl, BYTE PTR UserSoldiers[EBX].X
 00002EF6  B6 0D	     4C 		MOV  	dh, BYTE PTR 13
 00002EF8  88 15 00000002 R  4C 		MOV 	CurrentPointX,	dl
 00002EFE  88 35 00000003 R  4C 		MOV 	CurrentPointY,	dh
 00002F04  E8 00000000 E     4C 		CALL 	Gotoxy  
 00002F1F  52		     4C 			PUSH EDX
 00002F20  52		     5C 		PUSH EDX
 00002F21  51		     5C 		PUSH ECX
 00002F22  56		     5C 		PUSH ESI
 00002F23  BA 00000652 R     5C 			MOV EDX, OFFSET MonsterB3_1_1
 00002F28  E8 00000000 E     5C 			CALL WriteString
 00002F2D  59		     5C 		POP ECX
 00002F2E  59		     5C 		POP ECX
 00002F2F  5E		     5C 		POP ESI
 00002F30  5A		     4C 			POP  EDX
 00002F31  FE C6	     4C 			INC  DH
 00002F33  E8 00000000 E     4C 			Call GoToXY
 00002F38  52		     4C 			PUSH EDX
 00002F39  52		     5C 		PUSH EDX
 00002F3A  51		     5C 		PUSH ECX
 00002F3B  56		     5C 		PUSH ESI
 00002F3C  BA 0000065A R     5C 			MOV EDX, OFFSET MonsterB3_1_2
 00002F41  E8 00000000 E     5C 			CALL WriteString
 00002F46  59		     5C 		POP ECX
 00002F47  59		     5C 		POP ECX
 00002F48  5E		     5C 		POP ESI
 00002F49  5A		     4C 			POP  EDX
 00002F4A  FE C6	     4C 			INC  DH
 00002F4C  E8 00000000 E     4C 			Call GoToXY
 00002F51  52		     4C 			PUSH EDX
 00002F52  52		     5C 		PUSH EDX
 00002F53  51		     5C 		PUSH ECX
 00002F54  56		     5C 		PUSH ESI
 00002F55  BA 00000662 R     5C 			MOV EDX, OFFSET MonsterB3_1_3
 00002F5A  E8 00000000 E     5C 			CALL WriteString
 00002F5F  59		     5C 		POP ECX
 00002F60  59		     5C 		POP ECX
 00002F61  5E		     5C 		POP ESI
 00002F62  5A		     4C 			POP  EDX
 00002F63  FE C6	     4C 			INC  DH
 00002F65  E8 00000000 E     4C 			Call GoToXY
 00002F6A  52		     4C 			PUSH EDX
 00002F6B  52		     5C 		PUSH EDX
 00002F6C  51		     5C 		PUSH ECX
 00002F6D  56		     5C 		PUSH ESI
 00002F6E  BA 0000066B R     5C 			MOV EDX, OFFSET MonsterB3_1_4
 00002F73  E8 00000000 E     5C 			CALL WriteString
 00002F78  59		     5C 		POP ECX
 00002F79  59		     5C 		POP ECX
 00002F7A  5E		     5C 		POP ESI
 00002F7B  5A		     4C 			POP  EDX
 00002F7C  FE C6	     4C 			INC  DH
 00002F7E  E8 00000000 E     4C 			Call GoToXY
 00002F83  52		     4C 			PUSH EDX
 00002F84  52		     5C 		PUSH EDX
 00002F85  51		     5C 		PUSH ECX
 00002F86  56		     5C 		PUSH ESI
 00002F87  BA 00000673 R     5C 			MOV EDX, OFFSET MonsterB3_1_5
 00002F8C  E8 00000000 E     5C 			CALL WriteString
 00002F91  59		     5C 		POP ECX
 00002F92  59		     5C 		POP ECX
 00002F93  5E		     5C 		POP ESI
 00002F94  5A		     4C 			POP  EDX
 00002F95  FE C6	     4C 			INC  DH
 00002F97  E8 00000000 E     4C 			Call GoToXY
 00002FB3  52		     4C 			PUSH EDX
 00002FB4  52		     5C 		PUSH EDX
 00002FB5  51		     5C 		PUSH ECX
 00002FB6  56		     5C 		PUSH ESI
 00002FB7  BA 0000067B R     5C 			MOV EDX, OFFSET MonsterB3_2_1
 00002FBC  E8 00000000 E     5C 			CALL WriteString
 00002FC1  59		     5C 		POP ECX
 00002FC2  59		     5C 		POP ECX
 00002FC3  5E		     5C 		POP ESI
 00002FC4  5A		     4C 			POP  EDX
 00002FC5  FE C6	     4C 			INC  DH
 00002FC7  E8 00000000 E     4C 			Call GoToXY
 00002FCC  52		     4C 			PUSH EDX
 00002FCD  52		     5C 		PUSH EDX
 00002FCE  51		     5C 		PUSH ECX
 00002FCF  56		     5C 		PUSH ESI
 00002FD0  BA 00000683 R     5C 			MOV EDX, OFFSET MonsterB3_2_2
 00002FD5  E8 00000000 E     5C 			CALL WriteString
 00002FDA  59		     5C 		POP ECX
 00002FDB  59		     5C 		POP ECX
 00002FDC  5E		     5C 		POP ESI
 00002FDD  5A		     4C 			POP  EDX
 00002FDE  FE C6	     4C 			INC  DH
 00002FE0  E8 00000000 E     4C 			Call GoToXY
 00002FE5  52		     4C 			PUSH EDX
 00002FE6  52		     5C 		PUSH EDX
 00002FE7  51		     5C 		PUSH ECX
 00002FE8  56		     5C 		PUSH ESI
 00002FE9  BA 0000068C R     5C 			MOV EDX, OFFSET MonsterB3_2_3
 00002FEE  E8 00000000 E     5C 			CALL WriteString
 00002FF3  59		     5C 		POP ECX
 00002FF4  59		     5C 		POP ECX
 00002FF5  5E		     5C 		POP ESI
 00002FF6  5A		     4C 			POP  EDX
 00002FF7  FE C6	     4C 			INC  DH
 00002FF9  E8 00000000 E     4C 			Call GoToXY
 00002FFE  52		     4C 			PUSH EDX
 00002FFF  52		     5C 		PUSH EDX
 00003000  51		     5C 		PUSH ECX
 00003001  56		     5C 		PUSH ESI
 00003002  BA 00000694 R     5C 			MOV EDX, OFFSET MonsterB3_2_4
 00003007  E8 00000000 E     5C 			CALL WriteString
 0000300C  59		     5C 		POP ECX
 0000300D  59		     5C 		POP ECX
 0000300E  5E		     5C 		POP ESI
 0000300F  5A		     4C 			POP  EDX
 00003010  FE C6	     4C 			INC  DH
 00003012  E8 00000000 E     4C 			Call GoToXY
 00003017  52		     4C 			PUSH EDX
 00003018  52		     5C 		PUSH EDX
 00003019  51		     5C 		PUSH ECX
 0000301A  56		     5C 		PUSH ESI
 0000301B  BA 0000069C R     5C 			MOV EDX, OFFSET MonsterB3_2_5
 00003020  E8 00000000 E     5C 			CALL WriteString
 00003025  59		     5C 		POP ECX
 00003026  59		     5C 		POP ECX
 00003027  5E		     5C 		POP ESI
 00003028  5A		     4C 			POP  EDX
 00003029  FE C6	     4C 			INC  DH
 0000302B  E8 00000000 E     4C 			Call GoToXY
 00003032  52		     4C 			PUSH EDX
 00003033  52		     5C 		PUSH EDX
 00003034  51		     5C 		PUSH ECX
 00003035  56		     5C 		PUSH ESI
 00003036  BA 000006A4 R     5C 			MOV EDX, OFFSET MonsterB3_3_1
 0000303B  E8 00000000 E     5C 			CALL WriteString
 00003040  59		     5C 		POP ECX
 00003041  59		     5C 		POP ECX
 00003042  5E		     5C 		POP ESI
 00003043  5A		     4C 			POP  EDX
 00003044  FE C6	     4C 			INC  DH
 00003046  E8 00000000 E     4C 			Call GoToXY
 0000304B  52		     4C 			PUSH EDX
 0000304C  52		     5C 		PUSH EDX
 0000304D  51		     5C 		PUSH ECX
 0000304E  56		     5C 		PUSH ESI
 0000304F  BA 000006AD R     5C 			MOV EDX, OFFSET MonsterB3_3_2
 00003054  E8 00000000 E     5C 			CALL WriteString
 00003059  59		     5C 		POP ECX
 0000305A  59		     5C 		POP ECX
 0000305B  5E		     5C 		POP ESI
 0000305C  5A		     4C 			POP  EDX
 0000305D  FE C6	     4C 			INC  DH
 0000305F  E8 00000000 E     4C 			Call GoToXY
 00003064  52		     4C 			PUSH EDX
 00003065  52		     5C 		PUSH EDX
 00003066  51		     5C 		PUSH ECX
 00003067  56		     5C 		PUSH ESI
 00003068  BA 000006B5 R     5C 			MOV EDX, OFFSET MonsterB3_3_3
 0000306D  E8 00000000 E     5C 			CALL WriteString
 00003072  59		     5C 		POP ECX
 00003073  59		     5C 		POP ECX
 00003074  5E		     5C 		POP ESI
 00003075  5A		     4C 			POP  EDX
 00003076  FE C6	     4C 			INC  DH
 00003078  E8 00000000 E     4C 			Call GoToXY
 0000307D  52		     4C 			PUSH EDX
 0000307E  52		     5C 		PUSH EDX
 0000307F  51		     5C 		PUSH ECX
 00003080  56		     5C 		PUSH ESI
 00003081  BA 000006BD R     5C 			MOV EDX, OFFSET MonsterB3_3_4
 00003086  E8 00000000 E     5C 			CALL WriteString
 0000308B  59		     5C 		POP ECX
 0000308C  59		     5C 		POP ECX
 0000308D  5E		     5C 		POP ESI
 0000308E  5A		     4C 			POP  EDX
 0000308F  FE C6	     4C 			INC  DH
 00003091  E8 00000000 E     4C 			Call GoToXY
 00003096  52		     4C 			PUSH EDX
 00003097  52		     5C 		PUSH EDX
 00003098  51		     5C 		PUSH ECX
 00003099  56		     5C 		PUSH ESI
 0000309A  BA 000006C5 R     5C 			MOV EDX, OFFSET MonsterB3_3_5
 0000309F  E8 00000000 E     5C 			CALL WriteString
 000030A4  59		     5C 		POP ECX
 000030A5  59		     5C 		POP ECX
 000030A6  5E		     5C 		POP ESI
 000030A7  5A		     4C 			POP  EDX
 000030A8  FE C6	     4C 			INC  DH
 000030AA  E8 00000000 E     4C 			Call GoToXY
 000030CA  8A 15 00000002 R  4C 		MOV  	dl, CurrentPointX
 000030D0  8A 35 00000003 R  4C 		MOV  	dh, CurrentPointY
 000030D6  88 15 00000000 R  4C 		MOV		LastPointX,	dl
 000030DC  88 35 00000001 R  4C 		MOV 	LastPointY,	dh
 000030E2  8A 93 0000084D R  4C 		MOV  	dl, BYTE PTR UserSoldiers[EBX].X
 000030E8  B6 10	     4C 		MOV  	dh, BYTE PTR 16
 000030EA  88 15 00000002 R  4C 		MOV 	CurrentPointX,	dl
 000030F0  88 35 00000003 R  4C 		MOV 	CurrentPointY,	dh
 000030F6  E8 00000000 E     4C 		CALL 	Gotoxy  
 000030FB  52		     4C 			PUSH EDX
 000030FC  52		     5C 		PUSH EDX
 000030FD  51		     5C 		PUSH ECX
 000030FE  56		     5C 		PUSH ESI
 000030FF  BA 000006CD R     5C 			MOV EDX, OFFSET MonsterC1_1_1
 00003104  E8 00000000 E     5C 			CALL WriteString
 00003109  59		     5C 		POP ECX
 0000310A  59		     5C 		POP ECX
 0000310B  5E		     5C 		POP ESI
 0000310C  5A		     4C 			POP  EDX
 0000310D  FE C6	     4C 			INC  DH
 0000310F  E8 00000000 E     4C 			Call GoToXY
 00003114  52		     4C 			PUSH EDX
 00003115  52		     5C 		PUSH EDX
 00003116  51		     5C 		PUSH ECX
 00003117  56		     5C 		PUSH ESI
 00003118  BA 000006D6 R     5C 			MOV EDX, OFFSET MonsterC1_1_2
 0000311D  E8 00000000 E     5C 			CALL WriteString
 00003122  59		     5C 		POP ECX
 00003123  59		     5C 		POP ECX
 00003124  5E		     5C 		POP ESI
 00003125  5A		     4C 			POP  EDX
 00003126  FE C6	     4C 			INC  DH
 00003128  E8 00000000 E     4C 			Call GoToXY
 0000313F  8A 15 00000002 R  4C 		MOV  	dl, CurrentPointX
 00003145  8A 35 00000003 R  4C 		MOV  	dh, CurrentPointY
 0000314B  88 15 00000000 R  4C 		MOV		LastPointX,	dl
 00003151  88 35 00000001 R  4C 		MOV 	LastPointY,	dh
 00003157  8A 93 0000084D R  4C 		MOV  	dl, BYTE PTR UserSoldiers[EBX].X
 0000315D  B6 0D	     4C 		MOV  	dh, BYTE PTR 13
 0000315F  88 15 00000002 R  4C 		MOV 	CurrentPointX,	dl
 00003165  88 35 00000003 R  4C 		MOV 	CurrentPointY,	dh
 0000316B  E8 00000000 E     4C 		CALL 	Gotoxy  
 0000317D  52		     4C 			PUSH EDX
 0000317E  52		     5C 		PUSH EDX
 0000317F  51		     5C 		PUSH ECX
 00003180  56		     5C 		PUSH ESI
 00003181  BA 0000070E R     5C 			MOV EDX, OFFSET MonsterC2_2_1
 00003186  E8 00000000 E     5C 			CALL WriteString
 0000318B  59		     5C 		POP ECX
 0000318C  59		     5C 		POP ECX
 0000318D  5E		     5C 		POP ESI
 0000318E  5A		     4C 			POP  EDX
 0000318F  FE C6	     4C 			INC  DH
 00003191  E8 00000000 E     4C 			Call GoToXY
 00003196  52		     4C 			PUSH EDX
 00003197  52		     5C 		PUSH EDX
 00003198  51		     5C 		PUSH ECX
 00003199  56		     5C 		PUSH ESI
 0000319A  BA 00000717 R     5C 			MOV EDX, OFFSET MonsterC2_2_2
 0000319F  E8 00000000 E     5C 			CALL WriteString
 000031A4  59		     5C 		POP ECX
 000031A5  59		     5C 		POP ECX
 000031A6  5E		     5C 		POP ESI
 000031A7  5A		     4C 			POP  EDX
 000031A8  FE C6	     4C 			INC  DH
 000031AA  E8 00000000 E     4C 			Call GoToXY
 000031AF  52		     4C 			PUSH EDX
 000031B0  52		     5C 		PUSH EDX
 000031B1  51		     5C 		PUSH ECX
 000031B2  56		     5C 		PUSH ESI
 000031B3  BA 00000722 R     5C 			MOV EDX, OFFSET MonsterC2_2_3
 000031B8  E8 00000000 E     5C 			CALL WriteString
 000031BD  59		     5C 		POP ECX
 000031BE  59		     5C 		POP ECX
 000031BF  5E		     5C 		POP ESI
 000031C0  5A		     4C 			POP  EDX
 000031C1  FE C6	     4C 			INC  DH
 000031C3  E8 00000000 E     4C 			Call GoToXY
 000031C8  52		     4C 			PUSH EDX
 000031C9  52		     5C 		PUSH EDX
 000031CA  51		     5C 		PUSH ECX
 000031CB  56		     5C 		PUSH ESI
 000031CC  BA 0000072B R     5C 			MOV EDX, OFFSET MonsterC2_2_4
 000031D1  E8 00000000 E     5C 			CALL WriteString
 000031D6  59		     5C 		POP ECX
 000031D7  59		     5C 		POP ECX
 000031D8  5E		     5C 		POP ESI
 000031D9  5A		     4C 			POP  EDX
 000031DA  FE C6	     4C 			INC  DH
 000031DC  E8 00000000 E     4C 			Call GoToXY
 000031E1  52		     4C 			PUSH EDX
 000031E2  52		     5C 		PUSH EDX
 000031E3  51		     5C 		PUSH ECX
 000031E4  56		     5C 		PUSH ESI
 000031E5  BA 00000736 R     5C 			MOV EDX, OFFSET MonsterC2_2_5
 000031EA  E8 00000000 E     5C 			CALL WriteString
 000031EF  59		     5C 		POP ECX
 000031F0  59		     5C 		POP ECX
 000031F1  5E		     5C 		POP ESI
 000031F2  5A		     4C 			POP  EDX
 000031F3  FE C6	     4C 			INC  DH
 000031F5  E8 00000000 E     4C 			Call GoToXY
 0000320C  52		     4C 			PUSH EDX
 0000320D  52		     5C 		PUSH EDX
 0000320E  51		     5C 		PUSH ECX
 0000320F  56		     5C 		PUSH ESI
 00003210  BA 000006DD R     5C 			MOV EDX, OFFSET MonsterC2_1_1
 00003215  E8 00000000 E     5C 			CALL WriteString
 0000321A  59		     5C 		POP ECX
 0000321B  59		     5C 		POP ECX
 0000321C  5E		     5C 		POP ESI
 0000321D  5A		     4C 			POP  EDX
 0000321E  FE C6	     4C 			INC  DH
 00003220  E8 00000000 E     4C 			Call GoToXY
 00003225  52		     4C 			PUSH EDX
 00003226  52		     5C 		PUSH EDX
 00003227  51		     5C 		PUSH ECX
 00003228  56		     5C 		PUSH ESI
 00003229  BA 000006E8 R     5C 			MOV EDX, OFFSET MonsterC2_1_2
 0000322E  E8 00000000 E     5C 			CALL WriteString
 00003233  59		     5C 		POP ECX
 00003234  59		     5C 		POP ECX
 00003235  5E		     5C 		POP ESI
 00003236  5A		     4C 			POP  EDX
 00003237  FE C6	     4C 			INC  DH
 00003239  E8 00000000 E     4C 			Call GoToXY
 0000323E  52		     4C 			PUSH EDX
 0000323F  52		     5C 		PUSH EDX
 00003240  51		     5C 		PUSH ECX
 00003241  56		     5C 		PUSH ESI
 00003242  BA 000006F1 R     5C 			MOV EDX, OFFSET MonsterC2_1_3
 00003247  E8 00000000 E     5C 			CALL WriteString
 0000324C  59		     5C 		POP ECX
 0000324D  59		     5C 		POP ECX
 0000324E  5E		     5C 		POP ESI
 0000324F  5A		     4C 			POP  EDX
 00003250  FE C6	     4C 			INC  DH
 00003252  E8 00000000 E     4C 			Call GoToXY
 00003257  52		     4C 			PUSH EDX
 00003258  52		     5C 		PUSH EDX
 00003259  51		     5C 		PUSH ECX
 0000325A  56		     5C 		PUSH ESI
 0000325B  BA 000006FC R     5C 			MOV EDX, OFFSET MonsterC2_1_4
 00003260  E8 00000000 E     5C 			CALL WriteString
 00003265  59		     5C 		POP ECX
 00003266  59		     5C 		POP ECX
 00003267  5E		     5C 		POP ESI
 00003268  5A		     4C 			POP  EDX
 00003269  FE C6	     4C 			INC  DH
 0000326B  E8 00000000 E     4C 			Call GoToXY
 00003270  52		     4C 			PUSH EDX
 00003271  52		     5C 		PUSH EDX
 00003272  51		     5C 		PUSH ECX
 00003273  56		     5C 		PUSH ESI
 00003274  BA 00000705 R     5C 			MOV EDX, OFFSET MonsterC2_1_5
 00003279  E8 00000000 E     5C 			CALL WriteString
 0000327E  59		     5C 		POP ECX
 0000327F  59		     5C 		POP ECX
 00003280  5E		     5C 		POP ESI
 00003281  5A		     4C 			POP  EDX
 00003282  FE C6	     4C 			INC  DH
 00003284  E8 00000000 E     4C 			Call GoToXY
 0000329B  8A 15 00000002 R  4C 		MOV  	dl, CurrentPointX
 000032A1  8A 35 00000003 R  4C 		MOV  	dh, CurrentPointY
 000032A7  88 15 00000000 R  4C 		MOV		LastPointX,	dl
 000032AD  88 35 00000001 R  4C 		MOV 	LastPointY,	dh
 000032B3  8A 93 0000084D R  4C 		MOV  	dl, BYTE PTR UserSoldiers[EBX].X
 000032B9  B6 0C	     4C 		MOV  	dh, BYTE PTR 12
 000032BB  88 15 00000002 R  4C 		MOV 	CurrentPointX,	dl
 000032C1  88 35 00000003 R  4C 		MOV 	CurrentPointY,	dh
 000032C7  E8 00000000 E     4C 		CALL 	Gotoxy  
 000032E2  52		     4C 			PUSH EDX
 000032E3  52		     5C 		PUSH EDX
 000032E4  51		     5C 		PUSH ECX
 000032E5  56		     5C 		PUSH ESI
 000032E6  BA 0000073F R     5C 			MOV EDX, OFFSET MonsterC3_1_1
 000032EB  E8 00000000 E     5C 			CALL WriteString
 000032F0  59		     5C 		POP ECX
 000032F1  59		     5C 		POP ECX
 000032F2  5E		     5C 		POP ESI
 000032F3  5A		     4C 			POP  EDX
 000032F4  FE C6	     4C 			INC  DH
 000032F6  E8 00000000 E     4C 			Call GoToXY
 000032FB  52		     4C 			PUSH EDX
 000032FC  52		     5C 		PUSH EDX
 000032FD  51		     5C 		PUSH ECX
 000032FE  56		     5C 		PUSH ESI
 000032FF  BA 0000074D R     5C 			MOV EDX, OFFSET MonsterC3_1_2
 00003304  E8 00000000 E     5C 			CALL WriteString
 00003309  59		     5C 		POP ECX
 0000330A  59		     5C 		POP ECX
 0000330B  5E		     5C 		POP ESI
 0000330C  5A		     4C 			POP  EDX
 0000330D  FE C6	     4C 			INC  DH
 0000330F  E8 00000000 E     4C 			Call GoToXY
 00003314  52		     4C 			PUSH EDX
 00003315  52		     5C 		PUSH EDX
 00003316  51		     5C 		PUSH ECX
 00003317  56		     5C 		PUSH ESI
 00003318  BA 0000075A R     5C 			MOV EDX, OFFSET MonsterC3_1_3
 0000331D  E8 00000000 E     5C 			CALL WriteString
 00003322  59		     5C 		POP ECX
 00003323  59		     5C 		POP ECX
 00003324  5E		     5C 		POP ESI
 00003325  5A		     4C 			POP  EDX
 00003326  FE C6	     4C 			INC  DH
 00003328  E8 00000000 E     4C 			Call GoToXY
 0000332D  52		     4C 			PUSH EDX
 0000332E  52		     5C 		PUSH EDX
 0000332F  51		     5C 		PUSH ECX
 00003330  56		     5C 		PUSH ESI
 00003331  BA 0000076B R     5C 			MOV EDX, OFFSET MonsterC3_1_4
 00003336  E8 00000000 E     5C 			CALL WriteString
 0000333B  59		     5C 		POP ECX
 0000333C  59		     5C 		POP ECX
 0000333D  5E		     5C 		POP ESI
 0000333E  5A		     4C 			POP  EDX
 0000333F  FE C6	     4C 			INC  DH
 00003341  E8 00000000 E     4C 			Call GoToXY
 00003346  52		     4C 			PUSH EDX
 00003347  52		     5C 		PUSH EDX
 00003348  51		     5C 		PUSH ECX
 00003349  56		     5C 		PUSH ESI
 0000334A  BA 0000077A R     5C 			MOV EDX, OFFSET MonsterC3_1_5
 0000334F  E8 00000000 E     5C 			CALL WriteString
 00003354  59		     5C 		POP ECX
 00003355  59		     5C 		POP ECX
 00003356  5E		     5C 		POP ESI
 00003357  5A		     4C 			POP  EDX
 00003358  FE C6	     4C 			INC  DH
 0000335A  E8 00000000 E     4C 			Call GoToXY
 0000335F  52		     4C 			PUSH EDX
 00003360  52		     5C 		PUSH EDX
 00003361  51		     5C 		PUSH ECX
 00003362  56		     5C 		PUSH ESI
 00003363  BA 00000787 R     5C 			MOV EDX, OFFSET MonsterC3_1_6
 00003368  E8 00000000 E     5C 			CALL WriteString
 0000336D  59		     5C 		POP ECX
 0000336E  59		     5C 		POP ECX
 0000336F  5E		     5C 		POP ESI
 00003370  5A		     4C 			POP  EDX
 00003371  FE C6	     4C 			INC  DH
 00003373  E8 00000000 E     4C 			Call GoToXY
 00003393  52		     4C 			PUSH EDX
 00003394  52		     5C 		PUSH EDX
 00003395  51		     5C 		PUSH ECX
 00003396  56		     5C 		PUSH ESI
 00003397  BA 00000798 R     5C 			MOV EDX, OFFSET MonsterC3_2_1
 0000339C  E8 00000000 E     5C 			CALL WriteString
 000033A1  59		     5C 		POP ECX
 000033A2  59		     5C 		POP ECX
 000033A3  5E		     5C 		POP ESI
 000033A4  5A		     4C 			POP  EDX
 000033A5  FE C6	     4C 			INC  DH
 000033A7  E8 00000000 E     4C 			Call GoToXY
 000033AC  52		     4C 			PUSH EDX
 000033AD  52		     5C 		PUSH EDX
 000033AE  51		     5C 		PUSH ECX
 000033AF  56		     5C 		PUSH ESI
 000033B0  BA 000007A6 R     5C 			MOV EDX, OFFSET MonsterC3_2_2
 000033B5  E8 00000000 E     5C 			CALL WriteString
 000033BA  59		     5C 		POP ECX
 000033BB  59		     5C 		POP ECX
 000033BC  5E		     5C 		POP ESI
 000033BD  5A		     4C 			POP  EDX
 000033BE  FE C6	     4C 			INC  DH
 000033C0  E8 00000000 E     4C 			Call GoToXY
 000033C5  52		     4C 			PUSH EDX
 000033C6  52		     5C 		PUSH EDX
 000033C7  51		     5C 		PUSH ECX
 000033C8  56		     5C 		PUSH ESI
 000033C9  BA 000007B3 R     5C 			MOV EDX, OFFSET MonsterC3_2_3
 000033CE  E8 00000000 E     5C 			CALL WriteString
 000033D3  59		     5C 		POP ECX
 000033D4  59		     5C 		POP ECX
 000033D5  5E		     5C 		POP ESI
 000033D6  5A		     4C 			POP  EDX
 000033D7  FE C6	     4C 			INC  DH
 000033D9  E8 00000000 E     4C 			Call GoToXY
 000033DE  52		     4C 			PUSH EDX
 000033DF  52		     5C 		PUSH EDX
 000033E0  51		     5C 		PUSH ECX
 000033E1  56		     5C 		PUSH ESI
 000033E2  BA 000007C4 R     5C 			MOV EDX, OFFSET MonsterC3_2_4
 000033E7  E8 00000000 E     5C 			CALL WriteString
 000033EC  59		     5C 		POP ECX
 000033ED  59		     5C 		POP ECX
 000033EE  5E		     5C 		POP ESI
 000033EF  5A		     4C 			POP  EDX
 000033F0  FE C6	     4C 			INC  DH
 000033F2  E8 00000000 E     4C 			Call GoToXY
 000033F7  52		     4C 			PUSH EDX
 000033F8  52		     5C 		PUSH EDX
 000033F9  51		     5C 		PUSH ECX
 000033FA  56		     5C 		PUSH ESI
 000033FB  BA 000007D3 R     5C 			MOV EDX, OFFSET MonsterC3_2_5
 00003400  E8 00000000 E     5C 			CALL WriteString
 00003405  59		     5C 		POP ECX
 00003406  59		     5C 		POP ECX
 00003407  5E		     5C 		POP ESI
 00003408  5A		     4C 			POP  EDX
 00003409  FE C6	     4C 			INC  DH
 0000340B  E8 00000000 E     4C 			Call GoToXY
 00003410  52		     4C 			PUSH EDX
 00003411  52		     5C 		PUSH EDX
 00003412  51		     5C 		PUSH ECX
 00003413  56		     5C 		PUSH ESI
 00003414  BA 000007E0 R     5C 			MOV EDX, OFFSET MonsterC3_2_6
 00003419  E8 00000000 E     5C 			CALL WriteString
 0000341E  59		     5C 		POP ECX
 0000341F  59		     5C 		POP ECX
 00003420  5E		     5C 		POP ESI
 00003421  5A		     4C 			POP  EDX
 00003422  FE C6	     4C 			INC  DH
 00003424  E8 00000000 E     4C 			Call GoToXY
 0000342E  52		     4C 			PUSH EDX
 0000342F  52		     5C 		PUSH EDX
 00003430  51		     5C 		PUSH ECX
 00003431  56		     5C 		PUSH ESI
 00003432  BA 000007F1 R     5C 			MOV EDX, OFFSET MonsterC3_3_1
 00003437  E8 00000000 E     5C 			CALL WriteString
 0000343C  59		     5C 		POP ECX
 0000343D  59		     5C 		POP ECX
 0000343E  5E		     5C 		POP ESI
 0000343F  5A		     4C 			POP  EDX
 00003440  FE C6	     4C 			INC  DH
 00003442  E8 00000000 E     4C 			Call GoToXY
 00003447  52		     4C 			PUSH EDX
 00003448  52		     5C 		PUSH EDX
 00003449  51		     5C 		PUSH ECX
 0000344A  56		     5C 		PUSH ESI
 0000344B  BA 000007FF R     5C 			MOV EDX, OFFSET MonsterC3_3_2
 00003450  E8 00000000 E     5C 			CALL WriteString
 00003455  59		     5C 		POP ECX
 00003456  59		     5C 		POP ECX
 00003457  5E		     5C 		POP ESI
 00003458  5A		     4C 			POP  EDX
 00003459  FE C6	     4C 			INC  DH
 0000345B  E8 00000000 E     4C 			Call GoToXY
 00003460  52		     4C 			PUSH EDX
 00003461  52		     5C 		PUSH EDX
 00003462  51		     5C 		PUSH ECX
 00003463  56		     5C 		PUSH ESI
 00003464  BA 0000080C R     5C 			MOV EDX, OFFSET MonsterC3_3_3
 00003469  E8 00000000 E     5C 			CALL WriteString
 0000346E  59		     5C 		POP ECX
 0000346F  59		     5C 		POP ECX
 00003470  5E		     5C 		POP ESI
 00003471  5A		     4C 			POP  EDX
 00003472  FE C6	     4C 			INC  DH
 00003474  E8 00000000 E     4C 			Call GoToXY
 00003479  52		     4C 			PUSH EDX
 0000347A  52		     5C 		PUSH EDX
 0000347B  51		     5C 		PUSH ECX
 0000347C  56		     5C 		PUSH ESI
 0000347D  BA 0000081E R     5C 			MOV EDX, OFFSET MonsterC3_3_4
 00003482  E8 00000000 E     5C 			CALL WriteString
 00003487  59		     5C 		POP ECX
 00003488  59		     5C 		POP ECX
 00003489  5E		     5C 		POP ESI
 0000348A  5A		     4C 			POP  EDX
 0000348B  FE C6	     4C 			INC  DH
 0000348D  E8 00000000 E     4C 			Call GoToXY
 00003492  52		     4C 			PUSH EDX
 00003493  52		     5C 		PUSH EDX
 00003494  51		     5C 		PUSH ECX
 00003495  56		     5C 		PUSH ESI
 00003496  BA 0000082B R     5C 			MOV EDX, OFFSET MonsterC3_3_5
 0000349B  E8 00000000 E     5C 			CALL WriteString
 000034A0  59		     5C 		POP ECX
 000034A1  59		     5C 		POP ECX
 000034A2  5E		     5C 		POP ESI
 000034A3  5A		     4C 			POP  EDX
 000034A4  FE C6	     4C 			INC  DH
 000034A6  E8 00000000 E     4C 			Call GoToXY
 000034AB  52		     4C 			PUSH EDX
 000034AC  52		     5C 		PUSH EDX
 000034AD  51		     5C 		PUSH ECX
 000034AE  56		     5C 		PUSH ESI
 000034AF  BA 00000838 R     5C 			MOV EDX, OFFSET MonsterC3_3_6
 000034B4  E8 00000000 E     5C 			CALL WriteString
 000034B9  59		     5C 		POP ECX
 000034BA  59		     5C 		POP ECX
 000034BB  5E		     5C 		POP ESI
 000034BC  5A		     4C 			POP  EDX
 000034BD  FE C6	     4C 			INC  DH
 000034BF  E8 00000000 E     4C 			Call GoToXY
			      C 				SoldierOn	CompSoldiers, ECX
 000034C4  B8 0000002C	     2C 		MOV EAX, (SIZEOF Soldier)
 000034C9  8B D9	     2C 		MOV EBX, ECX
 000034CB  F7 E3	     2C 		MUL EBX
 000034CD  8B D8	     2C 		MOV EBX, EAX
 000034DC  60		     2C 		PUSHAD
 000034DD  60		     3C 		PUSHA
 000034DE  B8 0000002C	     4C 		MOV EAX, (SIZEOF Soldier)
 000034E3  8B D9	     4C 		MOV EBX, ECX
 000034E5  F7 E3	     4C 		MUL EBX
 000034E7  8B D8	     4C 		MOV EBX, EAX
 000034E9  50		     4C 		PUSH EAX
 000034EA  8B 83 000009AD R  4C 			MOV EAX, CompSoldiers[EBX].X
 000034F0  A3 00000DD1 R     4C 			MOV HPLineX, 	EAX
 000034F5  58		     4C 		POP EAX
 000034F6  61		     3C 		POPA
 000034F7  60		     3C 		PUSHA
 000034F8  B8 0000002C	     4C 		MOV EAX, (SIZEOF Soldier)
 000034FD  8B D9	     4C 		MOV EBX, ECX
 000034FF  F7 E3	     4C 		MUL EBX
 00003501  8B D8	     4C 		MOV EBX, EAX
 0000350C  8B 83 000009BD R  4C 		MOV EAX, CompSoldiers[EBX].Arms
 00003512  48		     4C 		DEC EAX
 00003513  BA 0000000C	     4C 		MOV EDX, 12
 00003518  F7 E2	     4C 		MUL EDX
 0000351A  8B D0	     4C 		MOV EDX, EAX
 0000351C  8B 83 000009B9 R  4C 		MOV EAX, CompSoldiers[EBX].Level
 00003522  48		     4C 		DEC EAX
 00003523  C1 E0 02	     4C 		SHL EAX, 2
 00003526  03 C2	     4C 		ADD EAX, EDX
 00003528  50		     4C 		PUSH EAX
 00003529  8B 80 00000B09 R  4C 			MOV EAX, UserSoldier_Height[EAX]
 0000352F  A3 00000DD5 R     4C 			MOV HPLineY, 	EAX
 00003534  58		     4C 		POP EAX
 00003537  8B 83 000009BD R  4C 		MOV EAX, CompSoldiers[EBX].Arms
 0000353D  48		     4C 		DEC EAX
 0000353E  BA 0000000C	     4C 		MOV EDX, 12
 00003543  F7 E2	     4C 		MUL EDX
 00003545  8B D0	     4C 		MOV EDX, EAX
 00003547  8B 83 000009B9 R  4C 		MOV EAX, CompSoldiers[EBX].Level
 0000354D  48		     4C 		DEC EAX
 0000354E  C1 E0 02	     4C 		SHL EAX, 2
 00003551  03 C2	     4C 		ADD EAX, EDX
 00003553  50		     4C 		PUSH EAX
 00003554  8B 80 00000B51 R  4C 			MOV EAX, CompSoldier_Height[EAX]
 0000355A  A3 00000DD5 R     4C 			MOV HPLineY, 	EAX
 0000355F  58		     4C 		POP EAX
 00003560  61		     3C 		POPA
 00003561  B8 0000002C	     3C 		MOV EAX, (SIZEOF Soldier)
 00003566  8B D9	     3C 		MOV EBX, ECX
 00003568  F7 E3	     3C 		MUL EBX
 0000356A  8B D8	     3C 		MOV EBX, EAX
 0000356C  60		     3C 		PUSHA
 0000356D  B8 0000002C	     4C 		MOV EAX, (SIZEOF Soldier)
 00003572  8B D9	     4C 		MOV EBX, ECX
 00003574  F7 E3	     4C 		MUL EBX
 00003576  8B D8	     4C 		MOV EBX, EAX
 00003578  50		     4C 		PUSH EAX
 00003579  8B 83 000009A9 R  4C 			MOV EAX, CompSoldiers[EBX].HP
 0000357F  A3 00000DCD R     4C 			MOV HPLine, 	EAX
 00003584  58		     4C 		POP EAX
 00003585  61		     3C 		POPA
 00003586  60		     3C 		PUSHA
 00003587  60		     4C 		PUSHA
 00003588  B8 0000002C	     5C 		MOV EAX, (SIZEOF Soldier)
 0000358D  8B D9	     5C 		MOV EBX, ECX
 0000358F  F7 E3	     5C 		MUL EBX
 00003591  8B D8	     5C 		MOV EBX, EAX
 00003593  50		     5C 		PUSH EAX
 00003594  8B 83 000009A9 R  5C 			MOV EAX, CompSoldiers[EBX].HP
 0000359A  A3 00000C43 R     5C 			MOV Blood_Percent_Current, 	EAX
 0000359F  58		     5C 		POP EAX
 000035A0  61		     4C 		POPA
 000035A1  60		     4C 		PUSHA
 000035A2  B8 0000002C	     5C 		MOV EAX, (SIZEOF Soldier)
 000035A7  8B D9	     5C 		MOV EBX, ECX
 000035A9  F7 E3	     5C 		MUL EBX
 000035AB  8B D8	     5C 		MOV EBX, EAX
 000035AD  8B 83 000009BD R  5C 		MOV EAX, CompSoldiers[EBX].Arms
 000035B3  48		     5C 		DEC EAX
 000035B4  BA 0000000C	     5C 		MOV EDX, 12
 000035B9  F7 E2	     5C 		MUL EDX
 000035BB  8B D0	     5C 		MOV EDX, EAX
 000035BD  8B 83 000009B9 R  5C 		MOV EAX, CompSoldiers[EBX].Level
 000035C3  48		     5C 		DEC EAX
 000035C4  C1 E0 02	     5C 		SHL EAX, 2
 000035C7  03 C2	     5C 		ADD EAX, EDX
 000035C9  50		     5C 		PUSH EAX
 000035CA  8B 80 00000B99 R  5C 			MOV EAX, Soldier_HP[EAX]
 000035D0  A3 00000C33 R     5C 			MOV Blood_Percent_100X, 	EAX
 000035D5  58		     5C 		POP EAX
 000035D6  61		     4C 		POPA
 000035D7  A1 00000C33 R     3C 			MOV EAX, Blood_Percent_100X
 000035DC  8B 1D 00000C43 R  3C 			MOV EBX, Blood_Percent_Current
 000035EA  50		     4C 		PUSH EAX
 000035EB  B8 00000004	     4C 			MOV EAX, 4
 000035F0  A3 00000CA4 R     4C 			MOV GetterHandler, 	EAX
 000035F5  58		     4C 		POP EAX
 000035F8  B9 00000002	     3C 				MOV ECX, 2
 000035FD  F7 F1	     3C 				DIV ECX
 00003607  50		     4C 		PUSH EAX
 00003608  B8 00000003	     4C 			MOV EAX, 3
 0000360D  A3 00000CA4 R     4C 			MOV GetterHandler, 	EAX
 00003612  58		     4C 		POP EAX
 0000361D  50		     4C 		PUSH EAX
 0000361E  B8 00000002	     4C 			MOV EAX, 2
 00003623  A3 00000CA4 R     4C 			MOV GetterHandler, 	EAX
 00003628  58		     4C 		POP EAX
 0000362B  50		     4C 		PUSH EAX
 0000362C  B8 00000001	     4C 			MOV EAX, 1
 00003631  A3 00000CA4 R     4C 			MOV GetterHandler, 	EAX
 00003636  58		     4C 		POP EAX
 00003637  61		     3C 		POPA
 00003638  60		     3C 		PUSHAD
 00003639  8A 15 00000002 R  4C 		MOV  	dl, CurrentPointX
 0000363F  8A 35 00000003 R  4C 		MOV  	dh, CurrentPointY
 00003645  88 15 00000000 R  4C 		MOV		LastPointX,	dl
 0000364B  88 35 00000001 R  4C 		MOV 	LastPointY,	dh
 00003651  8A 15 00000DD1 R  4C 		MOV  	dl, BYTE PTR HPLineX
 00003657  8A 35 00000DD5 R  4C 		MOV  	dh, BYTE PTR HPLineY
 0000365D  88 15 00000002 R  4C 		MOV 	CurrentPointX,	dl
 00003663  88 35 00000003 R  4C 		MOV 	CurrentPointY,	dh
 00003669  E8 00000000 E     4C 		CALL 	Gotoxy  
 0000366E  50		     4C 		PUSH 	EAX
 0000366F  A1 00000DCD R     4C 			MOV 	EAX,	HPLine
 00003674  E8 00000000 E     4C 			CALL 	WriteDec
 00003679  58		     4C 		POP 	EAX
 0000367A  50		     4C 		PUSH 	EAX
 0000367B  B8 0000005B	     4C 			MOV 	EAX,	'['
 00003680  E8 00000000 E     4C 			CALL 	WriteChar
 00003685  58		     4C 		POP 	EAX
 00003686  8B 0D 00000CA4 R  3C 			MOV ECX, GetterHandler
 0000369A  50		     4C 			PUSH 	EAX
 0000369B  B8 00000004	     4C 				MOV 	EAX, Red
 000036A0  E8 00000000 E     4C 				CALL	SetTextColor
 000036A5  58		     4C 			POP 	EAX
 000036A6  50		     4C 		PUSH 	EAX
 000036A7  B8 00000049	     4C 			MOV 	EAX,	'I'
 000036AC  E8 00000000 E     4C 			CALL 	WriteChar
 000036B1  58		     4C 		POP 	EAX
 000036B2  50		     4C 		PUSH 	EAX
 000036B3  B8 00000020	     4C 			MOV 	EAX,	' '
 000036B8  E8 00000000 E     4C 			CALL 	WriteChar
 000036BD  58		     4C 		POP 	EAX
 000036BE  50		     4C 		PUSH 	EAX
 000036BF  B8 00000020	     4C 			MOV 	EAX,	' '
 000036C4  E8 00000000 E     4C 			CALL 	WriteChar
 000036C9  58		     4C 		POP 	EAX
 000036CA  50		     4C 		PUSH 	EAX
 000036CB  B8 00000020	     4C 			MOV 	EAX,	' '
 000036D0  E8 00000000 E     4C 			CALL 	WriteChar
 000036D5  58		     4C 		POP 	EAX
 000036E9  50		     4C 			PUSH 	EAX
 000036EA  B8 0000000C	     4C 				MOV 	EAX, LightRed
 000036EF  E8 00000000 E     4C 				CALL	SetTextColor
 000036F4  58		     4C 			POP 	EAX
 000036F5  50		     4C 		PUSH 	EAX
 000036F6  B8 00000049	     4C 			MOV 	EAX,	'I'
 000036FB  E8 00000000 E     4C 			CALL 	WriteChar
 00003700  58		     4C 		POP 	EAX
 00003701  50		     4C 		PUSH 	EAX
 00003702  B8 00000049	     4C 			MOV 	EAX,	'I'
 00003707  E8 00000000 E     4C 			CALL 	WriteChar
 0000370C  58		     4C 		POP 	EAX
 0000370D  50		     4C 		PUSH 	EAX
 0000370E  B8 00000020	     4C 			MOV 	EAX,	' '
 00003713  E8 00000000 E     4C 			CALL 	WriteChar
 00003718  58		     4C 		POP 	EAX
 00003719  50		     4C 		PUSH 	EAX
 0000371A  B8 00000020	     4C 			MOV 	EAX,	' '
 0000371F  E8 00000000 E     4C 			CALL 	WriteChar
 00003724  58		     4C 		POP 	EAX
 00003738  50		     4C 			PUSH 	EAX
 00003739  B8 00000002	     4C 				MOV 	EAX, Green
 0000373E  E8 00000000 E     4C 				CALL	SetTextColor
 00003743  58		     4C 			POP 	EAX
 00003744  50		     4C 		PUSH 	EAX
 00003745  B8 00000049	     4C 			MOV 	EAX,	'I'
 0000374A  E8 00000000 E     4C 			CALL 	WriteChar
 0000374F  58		     4C 		POP 	EAX
 00003750  50		     4C 		PUSH 	EAX
 00003751  B8 00000049	     4C 			MOV 	EAX,	'I'
 00003756  E8 00000000 E     4C 			CALL 	WriteChar
 0000375B  58		     4C 		POP 	EAX
 0000375C  50		     4C 		PUSH 	EAX
 0000375D  B8 00000049	     4C 			MOV 	EAX,	'I'
 00003762  E8 00000000 E     4C 			CALL 	WriteChar
 00003767  58		     4C 		POP 	EAX
 00003768  50		     4C 		PUSH 	EAX
 00003769  B8 00000020	     4C 			MOV 	EAX,	' '
 0000376E  E8 00000000 E     4C 			CALL 	WriteChar
 00003773  58		     4C 		POP 	EAX
 00003784  50		     4C 			PUSH 	EAX
 00003785  B8 0000000A	     4C 				MOV 	EAX, LightGreen
 0000378A  E8 00000000 E     4C 				CALL	SetTextColor
 0000378F  58		     4C 			POP 	EAX
 00003790  50		     4C 		PUSH 	EAX
 00003791  B8 00000049	     4C 			MOV 	EAX,	'I'
 00003796  E8 00000000 E     4C 			CALL 	WriteChar
 0000379B  58		     4C 		POP 	EAX
 0000379C  50		     4C 		PUSH 	EAX
 0000379D  B8 00000049	     4C 			MOV 	EAX,	'I'
 000037A2  E8 00000000 E     4C 			CALL 	WriteChar
 000037A7  58		     4C 		POP 	EAX
 000037A8  50		     4C 		PUSH 	EAX
 000037A9  B8 00000049	     4C 			MOV 	EAX,	'I'
 000037AE  E8 00000000 E     4C 			CALL 	WriteChar
 000037B3  58		     4C 		POP 	EAX
 000037B4  50		     4C 		PUSH 	EAX
 000037B5  B8 00000049	     4C 			MOV 	EAX,	'I'
 000037BA  E8 00000000 E     4C 			CALL 	WriteChar
 000037BF  58		     4C 		POP 	EAX
 000037C9  50		     4C 			PUSH 	EAX
 000037CA  B8 00000007	     4C 				MOV 	EAX, 00000111b
 000037CF  E8 00000000 E     4C 				CALL	SetTextColor
 000037D4  58		     4C 			POP 	EAX
 000037D5  50		     4C 		PUSH 	EAX
 000037D6  B8 0000005D	     4C 			MOV 	EAX,	']'
 000037DB  E8 00000000 E     4C 			CALL 	WriteChar
 000037E0  58		     4C 		POP 	EAX
 000037E1  8A 15 00000000 R  4C 		MOV  	dl, LastPointX
 000037E7  8A 35 00000001 R  4C 		MOV  	dh, LastPointY
 000037ED  88 15 00000002 R  4C 		MOV 	CurrentPointX,	dl
 000037F3  88 35 00000003 R  4C 		MOV 	CurrentPointY,	dh
 000037F9  E8 00000000 E     4C 		CALL 	Gotoxy 
 000037FE  61		     3C 		POPAD
 000037FF  61		     2C 		POPAD
 00003827  8A 15 00000002 R  4C 		MOV  	dl, CurrentPointX
 0000382D  8A 35 00000003 R  4C 		MOV  	dh, CurrentPointY
 00003833  88 15 00000000 R  4C 		MOV		LastPointX,	dl
 00003839  88 35 00000001 R  4C 		MOV 	LastPointY,	dh
 0000383F  8A 93 000009AD R  4C 		MOV  	dl, BYTE PTR CompSoldiers[EBX].X
 00003845  B6 0F	     4C 		MOV  	dh, BYTE PTR 15
 00003847  88 15 00000002 R  4C 		MOV 	CurrentPointX,	dl
 0000384D  88 35 00000003 R  4C 		MOV 	CurrentPointY,	dh
 00003853  E8 00000000 E     4C 		CALL 	Gotoxy  
 00003861  52		     4C 			PUSH EDX
 00003862  52		     5C 		PUSH EDX
 00003863  51		     5C 		PUSH ECX
 00003864  56		     5C 		PUSH ESI
 00003865  BA 00000358 R     5C 			MOV EDX, OFFSET SoldierA1_1_1
 0000386A  E8 00000000 E     5C 			CALL WriteString
 0000386F  59		     5C 		POP ECX
 00003870  59		     5C 		POP ECX
 00003871  5E		     5C 		POP ESI
 00003872  5A		     4C 			POP  EDX
 00003873  FE C6	     4C 			INC  DH
 00003875  E8 00000000 E     4C 			Call GoToXY
 0000387A  52		     4C 			PUSH EDX
 0000387B  52		     5C 		PUSH EDX
 0000387C  51		     5C 		PUSH ECX
 0000387D  56		     5C 		PUSH ESI
 0000387E  BA 0000035D R     5C 			MOV EDX, OFFSET SoldierA1_1_2
 00003883  E8 00000000 E     5C 			CALL WriteString
 00003888  59		     5C 		POP ECX
 00003889  59		     5C 		POP ECX
 0000388A  5E		     5C 		POP ESI
 0000388B  5A		     4C 			POP  EDX
 0000388C  FE C6	     4C 			INC  DH
 0000388E  E8 00000000 E     4C 			Call GoToXY
 00003893  52		     4C 			PUSH EDX
 00003894  52		     5C 		PUSH EDX
 00003895  51		     5C 		PUSH ECX
 00003896  56		     5C 		PUSH ESI
 00003897  BA 00000363 R     5C 			MOV EDX, OFFSET SoldierA1_1_3
 0000389C  E8 00000000 E     5C 			CALL WriteString
 000038A1  59		     5C 		POP ECX
 000038A2  59		     5C 		POP ECX
 000038A3  5E		     5C 		POP ESI
 000038A4  5A		     4C 			POP  EDX
 000038A5  FE C6	     4C 			INC  DH
 000038A7  E8 00000000 E     4C 			Call GoToXY
 000038BE  52		     4C 			PUSH EDX
 000038BF  52		     5C 		PUSH EDX
 000038C0  51		     5C 		PUSH ECX
 000038C1  56		     5C 		PUSH ESI
 000038C2  BA 00000368 R     5C 			MOV EDX, OFFSET SoldierA1_2_1
 000038C7  E8 00000000 E     5C 			CALL WriteString
 000038CC  59		     5C 		POP ECX
 000038CD  59		     5C 		POP ECX
 000038CE  5E		     5C 		POP ESI
 000038CF  5A		     4C 			POP  EDX
 000038D0  FE C6	     4C 			INC  DH
 000038D2  E8 00000000 E     4C 			Call GoToXY
 000038D7  52		     4C 			PUSH EDX
 000038D8  52		     5C 		PUSH EDX
 000038D9  51		     5C 		PUSH ECX
 000038DA  56		     5C 		PUSH ESI
 000038DB  BA 0000036C R     5C 			MOV EDX, OFFSET SoldierA1_2_2
 000038E0  E8 00000000 E     5C 			CALL WriteString
 000038E5  59		     5C 		POP ECX
 000038E6  59		     5C 		POP ECX
 000038E7  5E		     5C 		POP ESI
 000038E8  5A		     4C 			POP  EDX
 000038E9  FE C6	     4C 			INC  DH
 000038EB  E8 00000000 E     4C 			Call GoToXY
 000038F0  52		     4C 			PUSH EDX
 000038F1  52		     5C 		PUSH EDX
 000038F2  51		     5C 		PUSH ECX
 000038F3  56		     5C 		PUSH ESI
 000038F4  BA 00000371 R     5C 			MOV EDX, OFFSET SoldierA1_2_3
 000038F9  E8 00000000 E     5C 			CALL WriteString
 000038FE  59		     5C 		POP ECX
 000038FF  59		     5C 		POP ECX
 00003900  5E		     5C 		POP ESI
 00003901  5A		     4C 			POP  EDX
 00003902  FE C6	     4C 			INC  DH
 00003904  E8 00000000 E     4C 			Call GoToXY
 0000391B  8A 15 00000002 R  4C 		MOV  	dl, CurrentPointX
 00003921  8A 35 00000003 R  4C 		MOV  	dh, CurrentPointY
 00003927  88 15 00000000 R  4C 		MOV		LastPointX,	dl
 0000392D  88 35 00000001 R  4C 		MOV 	LastPointY,	dh
 00003933  8A 93 000009AD R  4C 		MOV  	dl, BYTE PTR CompSoldiers[EBX].X
 00003939  B6 0F	     4C 		MOV  	dh, BYTE PTR 15
 0000393B  88 15 00000002 R  4C 		MOV 	CurrentPointX,	dl
 00003941  88 35 00000003 R  4C 		MOV 	CurrentPointY,	dh
 00003947  E8 00000000 E     4C 		CALL 	Gotoxy  
 00003955  52		     4C 			PUSH EDX
 00003956  52		     5C 		PUSH EDX
 00003957  51		     5C 		PUSH ECX
 00003958  56		     5C 		PUSH ESI
 00003959  BA 00000374 R     5C 			MOV EDX, OFFSET SoldierA2_1_1
 0000395E  E8 00000000 E     5C 			CALL WriteString
 00003963  59		     5C 		POP ECX
 00003964  59		     5C 		POP ECX
 00003965  5E		     5C 		POP ESI
 00003966  5A		     4C 			POP  EDX
 00003967  FE C6	     4C 			INC  DH
 00003969  E8 00000000 E     4C 			Call GoToXY
 0000396E  52		     4C 			PUSH EDX
 0000396F  52		     5C 		PUSH EDX
 00003970  51		     5C 		PUSH ECX
 00003971  56		     5C 		PUSH ESI
 00003972  BA 00000380 R     5C 			MOV EDX, OFFSET SoldierA2_1_2
 00003977  E8 00000000 E     5C 			CALL WriteString
 0000397C  59		     5C 		POP ECX
 0000397D  59		     5C 		POP ECX
 0000397E  5E		     5C 		POP ESI
 0000397F  5A		     4C 			POP  EDX
 00003980  FE C6	     4C 			INC  DH
 00003982  E8 00000000 E     4C 			Call GoToXY
 00003987  52		     4C 			PUSH EDX
 00003988  52		     5C 		PUSH EDX
 00003989  51		     5C 		PUSH ECX
 0000398A  56		     5C 		PUSH ESI
 0000398B  BA 0000038B R     5C 			MOV EDX, OFFSET SoldierA2_1_3
 00003990  E8 00000000 E     5C 			CALL WriteString
 00003995  59		     5C 		POP ECX
 00003996  59		     5C 		POP ECX
 00003997  5E		     5C 		POP ESI
 00003998  5A		     4C 			POP  EDX
 00003999  FE C6	     4C 			INC  DH
 0000399B  E8 00000000 E     4C 			Call GoToXY
 000039A0  52		     4C 			PUSH EDX
 000039A1  52		     5C 		PUSH EDX
 000039A2  51		     5C 		PUSH ECX
 000039A3  56		     5C 		PUSH ESI
 000039A4  BA 00000396 R     5C 			MOV EDX, OFFSET SoldierA2_1_4
 000039A9  E8 00000000 E     5C 			CALL WriteString
 000039AE  59		     5C 		POP ECX
 000039AF  59		     5C 		POP ECX
 000039B0  5E		     5C 		POP ESI
 000039B1  5A		     4C 			POP  EDX
 000039B2  FE C6	     4C 			INC  DH
 000039B4  E8 00000000 E     4C 			Call GoToXY
 000039CB  52		     4C 			PUSH EDX
 000039CC  52		     5C 		PUSH EDX
 000039CD  51		     5C 		PUSH ECX
 000039CE  56		     5C 		PUSH ESI
 000039CF  BA 00000374 R     5C 			MOV EDX, OFFSET SoldierA2_1_1
 000039D4  E8 00000000 E     5C 			CALL WriteString
 000039D9  59		     5C 		POP ECX
 000039DA  59		     5C 		POP ECX
 000039DB  5E		     5C 		POP ESI
 000039DC  5A		     4C 			POP  EDX
 000039DD  FE C6	     4C 			INC  DH
 000039DF  E8 00000000 E     4C 			Call GoToXY
 000039E4  52		     4C 			PUSH EDX
 000039E5  52		     5C 		PUSH EDX
 000039E6  51		     5C 		PUSH ECX
 000039E7  56		     5C 		PUSH ESI
 000039E8  BA 00000380 R     5C 			MOV EDX, OFFSET SoldierA2_1_2
 000039ED  E8 00000000 E     5C 			CALL WriteString
 000039F2  59		     5C 		POP ECX
 000039F3  59		     5C 		POP ECX
 000039F4  5E		     5C 		POP ESI
 000039F5  5A		     4C 			POP  EDX
 000039F6  FE C6	     4C 			INC  DH
 000039F8  E8 00000000 E     4C 			Call GoToXY
 000039FD  52		     4C 			PUSH EDX
 000039FE  52		     5C 		PUSH EDX
 000039FF  51		     5C 		PUSH ECX
 00003A00  56		     5C 		PUSH ESI
 00003A01  BA 0000038B R     5C 			MOV EDX, OFFSET SoldierA2_1_3
 00003A06  E8 00000000 E     5C 			CALL WriteString
 00003A0B  59		     5C 		POP ECX
 00003A0C  59		     5C 		POP ECX
 00003A0D  5E		     5C 		POP ESI
 00003A0E  5A		     4C 			POP  EDX
 00003A0F  FE C6	     4C 			INC  DH
 00003A11  E8 00000000 E     4C 			Call GoToXY
 00003A16  52		     4C 			PUSH EDX
 00003A17  52		     5C 		PUSH EDX
 00003A18  51		     5C 		PUSH ECX
 00003A19  56		     5C 		PUSH ESI
 00003A1A  BA 00000396 R     5C 			MOV EDX, OFFSET SoldierA2_1_4
 00003A1F  E8 00000000 E     5C 			CALL WriteString
 00003A24  59		     5C 		POP ECX
 00003A25  59		     5C 		POP ECX
 00003A26  5E		     5C 		POP ESI
 00003A27  5A		     4C 			POP  EDX
 00003A28  FE C6	     4C 			INC  DH
 00003A2A  E8 00000000 E     4C 			Call GoToXY
 00003A41  8A 15 00000002 R  4C 		MOV  	dl, CurrentPointX
 00003A47  8A 35 00000003 R  4C 		MOV  	dh, CurrentPointY
 00003A4D  88 15 00000000 R  4C 		MOV		LastPointX,	dl
 00003A53  88 35 00000001 R  4C 		MOV 	LastPointY,	dh
 00003A59  8A 93 000009AD R  4C 		MOV  	dl, BYTE PTR CompSoldiers[EBX].X
 00003A5F  B6 0E	     4C 		MOV  	dh, BYTE PTR 14
 00003A61  88 15 00000002 R  4C 		MOV 	CurrentPointX,	dl
 00003A67  88 35 00000003 R  4C 		MOV 	CurrentPointY,	dh
 00003A6D  E8 00000000 E     4C 		CALL 	Gotoxy  
 00003A7B  52		     4C 			PUSH EDX
 00003A7C  52		     5C 		PUSH EDX
 00003A7D  51		     5C 		PUSH ECX
 00003A7E  56		     5C 		PUSH ESI
 00003A7F  BA 000003A2 R     5C 			MOV EDX, OFFSET SoldierA3_1_1
 00003A84  E8 00000000 E     5C 			CALL WriteString
 00003A89  59		     5C 		POP ECX
 00003A8A  59		     5C 		POP ECX
 00003A8B  5E		     5C 		POP ESI
 00003A8C  5A		     4C 			POP  EDX
 00003A8D  FE C6	     4C 			INC  DH
 00003A8F  E8 00000000 E     4C 			Call GoToXY
 00003A94  52		     4C 			PUSH EDX
 00003A95  52		     5C 		PUSH EDX
 00003A96  51		     5C 		PUSH ECX
 00003A97  56		     5C 		PUSH ESI
 00003A98  BA 000003B2 R     5C 			MOV EDX, OFFSET SoldierA3_1_2
 00003A9D  E8 00000000 E     5C 			CALL WriteString
 00003AA2  59		     5C 		POP ECX
 00003AA3  59		     5C 		POP ECX
 00003AA4  5E		     5C 		POP ESI
 00003AA5  5A		     4C 			POP  EDX
 00003AA6  FE C6	     4C 			INC  DH
 00003AA8  E8 00000000 E     4C 			Call GoToXY
 00003AAD  52		     4C 			PUSH EDX
 00003AAE  52		     5C 		PUSH EDX
 00003AAF  51		     5C 		PUSH ECX
 00003AB0  56		     5C 		PUSH ESI
 00003AB1  BA 000003C1 R     5C 			MOV EDX, OFFSET SoldierA3_1_3
 00003AB6  E8 00000000 E     5C 			CALL WriteString
 00003ABB  59		     5C 		POP ECX
 00003ABC  59		     5C 		POP ECX
 00003ABD  5E		     5C 		POP ESI
 00003ABE  5A		     4C 			POP  EDX
 00003ABF  FE C6	     4C 			INC  DH
 00003AC1  E8 00000000 E     4C 			Call GoToXY
 00003AC6  52		     4C 			PUSH EDX
 00003AC7  52		     5C 		PUSH EDX
 00003AC8  51		     5C 		PUSH ECX
 00003AC9  56		     5C 		PUSH ESI
 00003ACA  BA 000003D2 R     5C 			MOV EDX, OFFSET SoldierA3_1_4
 00003ACF  E8 00000000 E     5C 			CALL WriteString
 00003AD4  59		     5C 		POP ECX
 00003AD5  59		     5C 		POP ECX
 00003AD6  5E		     5C 		POP ESI
 00003AD7  5A		     4C 			POP  EDX
 00003AD8  FE C6	     4C 			INC  DH
 00003ADA  E8 00000000 E     4C 			Call GoToXY
 00003AEA  52		     4C 			PUSH EDX
 00003AEB  52		     5C 		PUSH EDX
 00003AEC  51		     5C 		PUSH ECX
 00003AED  56		     5C 		PUSH ESI
 00003AEE  BA 000003A2 R     5C 			MOV EDX, OFFSET SoldierA3_1_1
 00003AF3  E8 00000000 E     5C 			CALL WriteString
 00003AF8  59		     5C 		POP ECX
 00003AF9  59		     5C 		POP ECX
 00003AFA  5E		     5C 		POP ESI
 00003AFB  5A		     4C 			POP  EDX
 00003AFC  FE C6	     4C 			INC  DH
 00003AFE  E8 00000000 E     4C 			Call GoToXY
 00003B03  52		     4C 			PUSH EDX
 00003B04  52		     5C 		PUSH EDX
 00003B05  51		     5C 		PUSH ECX
 00003B06  56		     5C 		PUSH ESI
 00003B07  BA 000003B2 R     5C 			MOV EDX, OFFSET SoldierA3_1_2
 00003B0C  E8 00000000 E     5C 			CALL WriteString
 00003B11  59		     5C 		POP ECX
 00003B12  59		     5C 		POP ECX
 00003B13  5E		     5C 		POP ESI
 00003B14  5A		     4C 			POP  EDX
 00003B15  FE C6	     4C 			INC  DH
 00003B17  E8 00000000 E     4C 			Call GoToXY
 00003B1C  52		     4C 			PUSH EDX
 00003B1D  52		     5C 		PUSH EDX
 00003B1E  51		     5C 		PUSH ECX
 00003B1F  56		     5C 		PUSH ESI
 00003B20  BA 000003C1 R     5C 			MOV EDX, OFFSET SoldierA3_1_3
 00003B25  E8 00000000 E     5C 			CALL WriteString
 00003B2A  59		     5C 		POP ECX
 00003B2B  59		     5C 		POP ECX
 00003B2C  5E		     5C 		POP ESI
 00003B2D  5A		     4C 			POP  EDX
 00003B2E  FE C6	     4C 			INC  DH
 00003B30  E8 00000000 E     4C 			Call GoToXY
 00003B35  52		     4C 			PUSH EDX
 00003B36  52		     5C 		PUSH EDX
 00003B37  51		     5C 		PUSH ECX
 00003B38  56		     5C 		PUSH ESI
 00003B39  BA 000003D2 R     5C 			MOV EDX, OFFSET SoldierA3_1_4
 00003B3E  E8 00000000 E     5C 			CALL WriteString
 00003B43  59		     5C 		POP ECX
 00003B44  59		     5C 		POP ECX
 00003B45  5E		     5C 		POP ESI
 00003B46  5A		     4C 			POP  EDX
 00003B47  FE C6	     4C 			INC  DH
 00003B49  E8 00000000 E     4C 			Call GoToXY
 00003B6D  8A 15 00000002 R  4C 		MOV  	dl, CurrentPointX
 00003B73  8A 35 00000003 R  4C 		MOV  	dh, CurrentPointY
 00003B79  88 15 00000000 R  4C 		MOV		LastPointX,	dl
 00003B7F  88 35 00000001 R  4C 		MOV 	LastPointY,	dh
 00003B85  8A 93 000009AD R  4C 		MOV  	dl, BYTE PTR CompSoldiers[EBX].X
 00003B8B  B6 0F	     4C 		MOV  	dh, BYTE PTR 15
 00003B8D  88 15 00000002 R  4C 		MOV 	CurrentPointX,	dl
 00003B93  88 35 00000003 R  4C 		MOV 	CurrentPointY,	dh
 00003B99  E8 00000000 E     4C 		CALL 	Gotoxy  
 00003BA7  52		     4C 			PUSH EDX
 00003BA8  52		     5C 		PUSH EDX
 00003BA9  51		     5C 		PUSH ECX
 00003BAA  56		     5C 		PUSH ESI
 00003BAB  BA 000003E3 R     5C 			MOV EDX, OFFSET SoldierB1_1_1
 00003BB0  E8 00000000 E     5C 			CALL WriteString
 00003BB5  59		     5C 		POP ECX
 00003BB6  59		     5C 		POP ECX
 00003BB7  5E		     5C 		POP ESI
 00003BB8  5A		     4C 			POP  EDX
 00003BB9  FE C6	     4C 			INC  DH
 00003BBB  E8 00000000 E     4C 			Call GoToXY
 00003BC0  52		     4C 			PUSH EDX
 00003BC1  52		     5C 		PUSH EDX
 00003BC2  51		     5C 		PUSH ECX
 00003BC3  56		     5C 		PUSH ESI
 00003BC4  BA 000003E8 R     5C 			MOV EDX, OFFSET SoldierB1_1_2
 00003BC9  E8 00000000 E     5C 			CALL WriteString
 00003BCE  59		     5C 		POP ECX
 00003BCF  59		     5C 		POP ECX
 00003BD0  5E		     5C 		POP ESI
 00003BD1  5A		     4C 			POP  EDX
 00003BD2  FE C6	     4C 			INC  DH
 00003BD4  E8 00000000 E     4C 			Call GoToXY
 00003BD9  52		     4C 			PUSH EDX
 00003BDA  52		     5C 		PUSH EDX
 00003BDB  51		     5C 		PUSH ECX
 00003BDC  56		     5C 		PUSH ESI
 00003BDD  BA 000003ED R     5C 			MOV EDX, OFFSET SoldierB1_1_3
 00003BE2  E8 00000000 E     5C 			CALL WriteString
 00003BE7  59		     5C 		POP ECX
 00003BE8  59		     5C 		POP ECX
 00003BE9  5E		     5C 		POP ESI
 00003BEA  5A		     4C 			POP  EDX
 00003BEB  FE C6	     4C 			INC  DH
 00003BED  E8 00000000 E     4C 			Call GoToXY
 00003C04  52		     4C 			PUSH EDX
 00003C05  52		     5C 		PUSH EDX
 00003C06  51		     5C 		PUSH ECX
 00003C07  56		     5C 		PUSH ESI
 00003C08  BA 000003F2 R     5C 			MOV EDX, OFFSET SoldierB1_2_1
 00003C0D  E8 00000000 E     5C 			CALL WriteString
 00003C12  59		     5C 		POP ECX
 00003C13  59		     5C 		POP ECX
 00003C14  5E		     5C 		POP ESI
 00003C15  5A		     4C 			POP  EDX
 00003C16  FE C6	     4C 			INC  DH
 00003C18  E8 00000000 E     4C 			Call GoToXY
 00003C1D  52		     4C 			PUSH EDX
 00003C1E  52		     5C 		PUSH EDX
 00003C1F  51		     5C 		PUSH ECX
 00003C20  56		     5C 		PUSH ESI
 00003C21  BA 000003F7 R     5C 			MOV EDX, OFFSET SoldierB1_2_2
 00003C26  E8 00000000 E     5C 			CALL WriteString
 00003C2B  59		     5C 		POP ECX
 00003C2C  59		     5C 		POP ECX
 00003C2D  5E		     5C 		POP ESI
 00003C2E  5A		     4C 			POP  EDX
 00003C2F  FE C6	     4C 			INC  DH
 00003C31  E8 00000000 E     4C 			Call GoToXY
 00003C36  52		     4C 			PUSH EDX
 00003C37  52		     5C 		PUSH EDX
 00003C38  51		     5C 		PUSH ECX
 00003C39  56		     5C 		PUSH ESI
 00003C3A  BA 000003FC R     5C 			MOV EDX, OFFSET SoldierB1_2_3
 00003C3F  E8 00000000 E     5C 			CALL WriteString
 00003C44  59		     5C 		POP ECX
 00003C45  59		     5C 		POP ECX
 00003C46  5E		     5C 		POP ESI
 00003C47  5A		     4C 			POP  EDX
 00003C48  FE C6	     4C 			INC  DH
 00003C4A  E8 00000000 E     4C 			Call GoToXY
 00003C61  8A 15 00000002 R  4C 		MOV  	dl, CurrentPointX
 00003C67  8A 35 00000003 R  4C 		MOV  	dh, CurrentPointY
 00003C6D  88 15 00000000 R  4C 		MOV		LastPointX,	dl
 00003C73  88 35 00000001 R  4C 		MOV 	LastPointY,	dh
 00003C79  8A 93 000009AD R  4C 		MOV  	dl, BYTE PTR CompSoldiers[EBX].X
 00003C7F  B6 0F	     4C 		MOV  	dh, BYTE PTR 15
 00003C81  88 15 00000002 R  4C 		MOV 	CurrentPointX,	dl
 00003C87  88 35 00000003 R  4C 		MOV 	CurrentPointY,	dh
 00003C8D  E8 00000000 E     4C 		CALL 	Gotoxy  
 00003C9B  52		     4C 			PUSH EDX
 00003C9C  52		     5C 		PUSH EDX
 00003C9D  51		     5C 		PUSH ECX
 00003C9E  56		     5C 		PUSH ESI
 00003C9F  BA 00000401 R     5C 			MOV EDX, OFFSET SoldierB2_1_1
 00003CA4  E8 00000000 E     5C 			CALL WriteString
 00003CA9  59		     5C 		POP ECX
 00003CAA  59		     5C 		POP ECX
 00003CAB  5E		     5C 		POP ESI
 00003CAC  5A		     4C 			POP  EDX
 00003CAD  FE C6	     4C 			INC  DH
 00003CAF  E8 00000000 E     4C 			Call GoToXY
 00003CB4  52		     4C 			PUSH EDX
 00003CB5  52		     5C 		PUSH EDX
 00003CB6  51		     5C 		PUSH ECX
 00003CB7  56		     5C 		PUSH ESI
 00003CB8  BA 00000406 R     5C 			MOV EDX, OFFSET SoldierB2_1_2
 00003CBD  E8 00000000 E     5C 			CALL WriteString
 00003CC2  59		     5C 		POP ECX
 00003CC3  59		     5C 		POP ECX
 00003CC4  5E		     5C 		POP ESI
 00003CC5  5A		     4C 			POP  EDX
 00003CC6  FE C6	     4C 			INC  DH
 00003CC8  E8 00000000 E     4C 			Call GoToXY
 00003CCD  52		     4C 			PUSH EDX
 00003CCE  52		     5C 		PUSH EDX
 00003CCF  51		     5C 		PUSH ECX
 00003CD0  56		     5C 		PUSH ESI
 00003CD1  BA 0000040B R     5C 			MOV EDX, OFFSET SoldierB2_1_3
 00003CD6  E8 00000000 E     5C 			CALL WriteString
 00003CDB  59		     5C 		POP ECX
 00003CDC  59		     5C 		POP ECX
 00003CDD  5E		     5C 		POP ESI
 00003CDE  5A		     4C 			POP  EDX
 00003CDF  FE C6	     4C 			INC  DH
 00003CE1  E8 00000000 E     4C 			Call GoToXY
 00003CF8  52		     4C 			PUSH EDX
 00003CF9  52		     5C 		PUSH EDX
 00003CFA  51		     5C 		PUSH ECX
 00003CFB  56		     5C 		PUSH ESI
 00003CFC  BA 00000410 R     5C 			MOV EDX, OFFSET SoldierB2_2_1
 00003D01  E8 00000000 E     5C 			CALL WriteString
 00003D06  59		     5C 		POP ECX
 00003D07  59		     5C 		POP ECX
 00003D08  5E		     5C 		POP ESI
 00003D09  5A		     4C 			POP  EDX
 00003D0A  FE C6	     4C 			INC  DH
 00003D0C  E8 00000000 E     4C 			Call GoToXY
 00003D11  52		     4C 			PUSH EDX
 00003D12  52		     5C 		PUSH EDX
 00003D13  51		     5C 		PUSH ECX
 00003D14  56		     5C 		PUSH ESI
 00003D15  BA 00000415 R     5C 			MOV EDX, OFFSET SoldierB2_2_2
 00003D1A  E8 00000000 E     5C 			CALL WriteString
 00003D1F  59		     5C 		POP ECX
 00003D20  59		     5C 		POP ECX
 00003D21  5E		     5C 		POP ESI
 00003D22  5A		     4C 			POP  EDX
 00003D23  FE C6	     4C 			INC  DH
 00003D25  E8 00000000 E     4C 			Call GoToXY
 00003D2A  52		     4C 			PUSH EDX
 00003D2B  52		     5C 		PUSH EDX
 00003D2C  51		     5C 		PUSH ECX
 00003D2D  56		     5C 		PUSH ESI
 00003D2E  BA 0000041A R     5C 			MOV EDX, OFFSET SoldierB2_2_3
 00003D33  E8 00000000 E     5C 			CALL WriteString
 00003D38  59		     5C 		POP ECX
 00003D39  59		     5C 		POP ECX
 00003D3A  5E		     5C 		POP ESI
 00003D3B  5A		     4C 			POP  EDX
 00003D3C  FE C6	     4C 			INC  DH
 00003D3E  E8 00000000 E     4C 			Call GoToXY
 00003D55  8A 15 00000002 R  4C 		MOV  	dl, CurrentPointX
 00003D5B  8A 35 00000003 R  4C 		MOV  	dh, CurrentPointY
 00003D61  88 15 00000000 R  4C 		MOV		LastPointX,	dl
 00003D67  88 35 00000001 R  4C 		MOV 	LastPointY,	dh
 00003D6D  8A 93 000009AD R  4C 		MOV  	dl, BYTE PTR CompSoldiers[EBX].X
 00003D73  B6 0F	     4C 		MOV  	dh, BYTE PTR 15
 00003D75  88 15 00000002 R  4C 		MOV 	CurrentPointX,	dl
 00003D7B  88 35 00000003 R  4C 		MOV 	CurrentPointY,	dh
 00003D81  E8 00000000 E     4C 		CALL 	Gotoxy  
 00003D8F  52		     4C 			PUSH EDX
 00003D90  52		     5C 		PUSH EDX
 00003D91  51		     5C 		PUSH ECX
 00003D92  56		     5C 		PUSH ESI
 00003D93  BA 0000041E R     5C 			MOV EDX, OFFSET SoldierB3_1_1
 00003D98  E8 00000000 E     5C 			CALL WriteString
 00003D9D  59		     5C 		POP ECX
 00003D9E  59		     5C 		POP ECX
 00003D9F  5E		     5C 		POP ESI
 00003DA0  5A		     4C 			POP  EDX
 00003DA1  FE C6	     4C 			INC  DH
 00003DA3  E8 00000000 E     4C 			Call GoToXY
 00003DA8  52		     4C 			PUSH EDX
 00003DA9  52		     5C 		PUSH EDX
 00003DAA  51		     5C 		PUSH ECX
 00003DAB  56		     5C 		PUSH ESI
 00003DAC  BA 00000424 R     5C 			MOV EDX, OFFSET SoldierB3_1_2
 00003DB1  E8 00000000 E     5C 			CALL WriteString
 00003DB6  59		     5C 		POP ECX
 00003DB7  59		     5C 		POP ECX
 00003DB8  5E		     5C 		POP ESI
 00003DB9  5A		     4C 			POP  EDX
 00003DBA  FE C6	     4C 			INC  DH
 00003DBC  E8 00000000 E     4C 			Call GoToXY
 00003DC1  52		     4C 			PUSH EDX
 00003DC2  52		     5C 		PUSH EDX
 00003DC3  51		     5C 		PUSH ECX
 00003DC4  56		     5C 		PUSH ESI
 00003DC5  BA 0000042B R     5C 			MOV EDX, OFFSET SoldierB3_1_3
 00003DCA  E8 00000000 E     5C 			CALL WriteString
 00003DCF  59		     5C 		POP ECX
 00003DD0  59		     5C 		POP ECX
 00003DD1  5E		     5C 		POP ESI
 00003DD2  5A		     4C 			POP  EDX
 00003DD3  FE C6	     4C 			INC  DH
 00003DD5  E8 00000000 E     4C 			Call GoToXY
 00003DE8  52		     4C 			PUSH EDX
 00003DE9  52		     5C 		PUSH EDX
 00003DEA  51		     5C 		PUSH ECX
 00003DEB  56		     5C 		PUSH ESI
 00003DEC  BA 00000431 R     5C 			MOV EDX, OFFSET SoldierB3_2_1
 00003DF1  E8 00000000 E     5C 			CALL WriteString
 00003DF6  59		     5C 		POP ECX
 00003DF7  59		     5C 		POP ECX
 00003DF8  5E		     5C 		POP ESI
 00003DF9  5A		     4C 			POP  EDX
 00003DFA  FE C6	     4C 			INC  DH
 00003DFC  E8 00000000 E     4C 			Call GoToXY
 00003E01  52		     4C 			PUSH EDX
 00003E02  52		     5C 		PUSH EDX
 00003E03  51		     5C 		PUSH ECX
 00003E04  56		     5C 		PUSH ESI
 00003E05  BA 00000437 R     5C 			MOV EDX, OFFSET SoldierB3_2_2
 00003E0A  E8 00000000 E     5C 			CALL WriteString
 00003E0F  59		     5C 		POP ECX
 00003E10  59		     5C 		POP ECX
 00003E11  5E		     5C 		POP ESI
 00003E12  5A		     4C 			POP  EDX
 00003E13  FE C6	     4C 			INC  DH
 00003E15  E8 00000000 E     4C 			Call GoToXY
 00003E1A  52		     4C 			PUSH EDX
 00003E1B  52		     5C 		PUSH EDX
 00003E1C  51		     5C 		PUSH ECX
 00003E1D  56		     5C 		PUSH ESI
 00003E1E  BA 0000043E R     5C 			MOV EDX, OFFSET SoldierB3_2_3
 00003E23  E8 00000000 E     5C 			CALL WriteString
 00003E28  59		     5C 		POP ECX
 00003E29  59		     5C 		POP ECX
 00003E2A  5E		     5C 		POP ESI
 00003E2B  5A		     4C 			POP  EDX
 00003E2C  FE C6	     4C 			INC  DH
 00003E2E  E8 00000000 E     4C 			Call GoToXY
 00003E41  52		     4C 			PUSH EDX
 00003E42  52		     5C 		PUSH EDX
 00003E43  51		     5C 		PUSH ECX
 00003E44  56		     5C 		PUSH ESI
 00003E45  BA 00000443 R     5C 			MOV EDX, OFFSET SoldierB3_3_1
 00003E4A  E8 00000000 E     5C 			CALL WriteString
 00003E4F  59		     5C 		POP ECX
 00003E50  59		     5C 		POP ECX
 00003E51  5E		     5C 		POP ESI
 00003E52  5A		     4C 			POP  EDX
 00003E53  FE C6	     4C 			INC  DH
 00003E55  E8 00000000 E     4C 			Call GoToXY
 00003E5A  52		     4C 			PUSH EDX
 00003E5B  52		     5C 		PUSH EDX
 00003E5C  51		     5C 		PUSH ECX
 00003E5D  56		     5C 		PUSH ESI
 00003E5E  BA 00000449 R     5C 			MOV EDX, OFFSET SoldierB3_3_2
 00003E63  E8 00000000 E     5C 			CALL WriteString
 00003E68  59		     5C 		POP ECX
 00003E69  59		     5C 		POP ECX
 00003E6A  5E		     5C 		POP ESI
 00003E6B  5A		     4C 			POP  EDX
 00003E6C  FE C6	     4C 			INC  DH
 00003E6E  E8 00000000 E     4C 			Call GoToXY
 00003E73  52		     4C 			PUSH EDX
 00003E74  52		     5C 		PUSH EDX
 00003E75  51		     5C 		PUSH ECX
 00003E76  56		     5C 		PUSH ESI
 00003E77  BA 00000450 R     5C 			MOV EDX, OFFSET SoldierB3_3_3
 00003E7C  E8 00000000 E     5C 			CALL WriteString
 00003E81  59		     5C 		POP ECX
 00003E82  59		     5C 		POP ECX
 00003E83  5E		     5C 		POP ESI
 00003E84  5A		     4C 			POP  EDX
 00003E85  FE C6	     4C 			INC  DH
 00003E87  E8 00000000 E     4C 			Call GoToXY
 00003E97  52		     4C 			PUSH EDX
 00003E98  52		     5C 		PUSH EDX
 00003E99  51		     5C 		PUSH ECX
 00003E9A  56		     5C 		PUSH ESI
 00003E9B  BA 00000456 R     5C 			MOV EDX, OFFSET SoldierB3_4_1
 00003EA0  E8 00000000 E     5C 			CALL WriteString
 00003EA5  59		     5C 		POP ECX
 00003EA6  59		     5C 		POP ECX
 00003EA7  5E		     5C 		POP ESI
 00003EA8  5A		     4C 			POP  EDX
 00003EA9  FE C6	     4C 			INC  DH
 00003EAB  E8 00000000 E     4C 			Call GoToXY
 00003EB0  52		     4C 			PUSH EDX
 00003EB1  52		     5C 		PUSH EDX
 00003EB2  51		     5C 		PUSH ECX
 00003EB3  56		     5C 		PUSH ESI
 00003EB4  BA 0000045C R     5C 			MOV EDX, OFFSET SoldierB3_4_2
 00003EB9  E8 00000000 E     5C 			CALL WriteString
 00003EBE  59		     5C 		POP ECX
 00003EBF  59		     5C 		POP ECX
 00003EC0  5E		     5C 		POP ESI
 00003EC1  5A		     4C 			POP  EDX
 00003EC2  FE C6	     4C 			INC  DH
 00003EC4  E8 00000000 E     4C 			Call GoToXY
 00003EC9  52		     4C 			PUSH EDX
 00003ECA  52		     5C 		PUSH EDX
 00003ECB  51		     5C 		PUSH ECX
 00003ECC  56		     5C 		PUSH ESI
 00003ECD  BA 00000463 R     5C 			MOV EDX, OFFSET SoldierB3_4_3
 00003ED2  E8 00000000 E     5C 			CALL WriteString
 00003ED7  59		     5C 		POP ECX
 00003ED8  59		     5C 		POP ECX
 00003ED9  5E		     5C 		POP ESI
 00003EDA  5A		     4C 			POP  EDX
 00003EDB  FE C6	     4C 			INC  DH
 00003EDD  E8 00000000 E     4C 			Call GoToXY
 00003F01  8A 15 00000002 R  4C 		MOV  	dl, CurrentPointX
 00003F07  8A 35 00000003 R  4C 		MOV  	dh, CurrentPointY
 00003F0D  88 15 00000000 R  4C 		MOV		LastPointX,	dl
 00003F13  88 35 00000001 R  4C 		MOV 	LastPointY,	dh
 00003F19  8A 93 000009AD R  4C 		MOV  	dl, BYTE PTR CompSoldiers[EBX].X
 00003F1F  B6 0F	     4C 		MOV  	dh, BYTE PTR 15
 00003F21  88 15 00000002 R  4C 		MOV 	CurrentPointX,	dl
 00003F27  88 35 00000003 R  4C 		MOV 	CurrentPointY,	dh
 00003F2D  E8 00000000 E     4C 		CALL 	Gotoxy  
 00003F3B  52		     4C 			PUSH EDX
 00003F3C  52		     5C 		PUSH EDX
 00003F3D  51		     5C 		PUSH ECX
 00003F3E  56		     5C 		PUSH ESI
 00003F3F  BA 00000468 R     5C 			MOV EDX, OFFSET SoldierC1_1_1
 00003F44  E8 00000000 E     5C 			CALL WriteString
 00003F49  59		     5C 		POP ECX
 00003F4A  59		     5C 		POP ECX
 00003F4B  5E		     5C 		POP ESI
 00003F4C  5A		     4C 			POP  EDX
 00003F4D  FE C6	     4C 			INC  DH
 00003F4F  E8 00000000 E     4C 			Call GoToXY
 00003F54  52		     4C 			PUSH EDX
 00003F55  52		     5C 		PUSH EDX
 00003F56  51		     5C 		PUSH ECX
 00003F57  56		     5C 		PUSH ESI
 00003F58  BA 00000471 R     5C 			MOV EDX, OFFSET SoldierC1_1_2
 00003F5D  E8 00000000 E     5C 			CALL WriteString
 00003F62  59		     5C 		POP ECX
 00003F63  59		     5C 		POP ECX
 00003F64  5E		     5C 		POP ESI
 00003F65  5A		     4C 			POP  EDX
 00003F66  FE C6	     4C 			INC  DH
 00003F68  E8 00000000 E     4C 			Call GoToXY
 00003F6D  52		     4C 			PUSH EDX
 00003F6E  52		     5C 		PUSH EDX
 00003F6F  51		     5C 		PUSH ECX
 00003F70  56		     5C 		PUSH ESI
 00003F71  BA 0000047A R     5C 			MOV EDX, OFFSET SoldierC1_1_3
 00003F76  E8 00000000 E     5C 			CALL WriteString
 00003F7B  59		     5C 		POP ECX
 00003F7C  59		     5C 		POP ECX
 00003F7D  5E		     5C 		POP ESI
 00003F7E  5A		     4C 			POP  EDX
 00003F7F  FE C6	     4C 			INC  DH
 00003F81  E8 00000000 E     4C 			Call GoToXY
 00003F94  52		     4C 			PUSH EDX
 00003F95  52		     5C 		PUSH EDX
 00003F96  51		     5C 		PUSH ECX
 00003F97  56		     5C 		PUSH ESI
 00003F98  BA 00000483 R     5C 			MOV EDX, OFFSET SoldierC1_2_1
 00003F9D  E8 00000000 E     5C 			CALL WriteString
 00003FA2  59		     5C 		POP ECX
 00003FA3  59		     5C 		POP ECX
 00003FA4  5E		     5C 		POP ESI
 00003FA5  5A		     4C 			POP  EDX
 00003FA6  FE C6	     4C 			INC  DH
 00003FA8  E8 00000000 E     4C 			Call GoToXY
 00003FAD  52		     4C 			PUSH EDX
 00003FAE  52		     5C 		PUSH EDX
 00003FAF  51		     5C 		PUSH ECX
 00003FB0  56		     5C 		PUSH ESI
 00003FB1  BA 0000048A R     5C 			MOV EDX, OFFSET SoldierC1_2_2
 00003FB6  E8 00000000 E     5C 			CALL WriteString
 00003FBB  59		     5C 		POP ECX
 00003FBC  59		     5C 		POP ECX
 00003FBD  5E		     5C 		POP ESI
 00003FBE  5A		     4C 			POP  EDX
 00003FBF  FE C6	     4C 			INC  DH
 00003FC1  E8 00000000 E     4C 			Call GoToXY
 00003FC6  52		     4C 			PUSH EDX
 00003FC7  52		     5C 		PUSH EDX
 00003FC8  51		     5C 		PUSH ECX
 00003FC9  56		     5C 		PUSH ESI
 00003FCA  BA 00000493 R     5C 			MOV EDX, OFFSET SoldierC1_2_3
 00003FCF  E8 00000000 E     5C 			CALL WriteString
 00003FD4  59		     5C 		POP ECX
 00003FD5  59		     5C 		POP ECX
 00003FD6  5E		     5C 		POP ESI
 00003FD7  5A		     4C 			POP  EDX
 00003FD8  FE C6	     4C 			INC  DH
 00003FDA  E8 00000000 E     4C 			Call GoToXY
 00003FED  52		     4C 			PUSH EDX
 00003FEE  52		     5C 		PUSH EDX
 00003FEF  51		     5C 		PUSH ECX
 00003FF0  56		     5C 		PUSH ESI
 00003FF1  BA 0000049C R     5C 			MOV EDX, OFFSET SoldierC1_3_1
 00003FF6  E8 00000000 E     5C 			CALL WriteString
 00003FFB  59		     5C 		POP ECX
 00003FFC  59		     5C 		POP ECX
 00003FFD  5E		     5C 		POP ESI
 00003FFE  5A		     4C 			POP  EDX
 00003FFF  FE C6	     4C 			INC  DH
 00004001  E8 00000000 E     4C 			Call GoToXY
 00004006  52		     4C 			PUSH EDX
 00004007  52		     5C 		PUSH EDX
 00004008  51		     5C 		PUSH ECX
 00004009  56		     5C 		PUSH ESI
 0000400A  BA 000004A5 R     5C 			MOV EDX, OFFSET SoldierC1_3_2
 0000400F  E8 00000000 E     5C 			CALL WriteString
 00004014  59		     5C 		POP ECX
 00004015  59		     5C 		POP ECX
 00004016  5E		     5C 		POP ESI
 00004017  5A		     4C 			POP  EDX
 00004018  FE C6	     4C 			INC  DH
 0000401A  E8 00000000 E     4C 			Call GoToXY
 0000401F  52		     4C 			PUSH EDX
 00004020  52		     5C 		PUSH EDX
 00004021  51		     5C 		PUSH ECX
 00004022  56		     5C 		PUSH ESI
 00004023  BA 000004AE R     5C 			MOV EDX, OFFSET SoldierC1_3_3
 00004028  E8 00000000 E     5C 			CALL WriteString
 0000402D  59		     5C 		POP ECX
 0000402E  59		     5C 		POP ECX
 0000402F  5E		     5C 		POP ESI
 00004030  5A		     4C 			POP  EDX
 00004031  FE C6	     4C 			INC  DH
 00004033  E8 00000000 E     4C 			Call GoToXY
 0000404A  52		     4C 			PUSH EDX
 0000404B  52		     5C 		PUSH EDX
 0000404C  51		     5C 		PUSH ECX
 0000404D  56		     5C 		PUSH ESI
 0000404E  BA 000004B7 R     5C 			MOV EDX, OFFSET SoldierC1_4_1
 00004053  E8 00000000 E     5C 			CALL WriteString
 00004058  59		     5C 		POP ECX
 00004059  59		     5C 		POP ECX
 0000405A  5E		     5C 		POP ESI
 0000405B  5A		     4C 			POP  EDX
 0000405C  FE C6	     4C 			INC  DH
 0000405E  E8 00000000 E     4C 			Call GoToXY
 00004063  52		     4C 			PUSH EDX
 00004064  52		     5C 		PUSH EDX
 00004065  51		     5C 		PUSH ECX
 00004066  56		     5C 		PUSH ESI
 00004067  BA 000004C0 R     5C 			MOV EDX, OFFSET SoldierC1_4_2
 0000406C  E8 00000000 E     5C 			CALL WriteString
 00004071  59		     5C 		POP ECX
 00004072  59		     5C 		POP ECX
 00004073  5E		     5C 		POP ESI
 00004074  5A		     4C 			POP  EDX
 00004075  FE C6	     4C 			INC  DH
 00004077  E8 00000000 E     4C 			Call GoToXY
 0000407C  52		     4C 			PUSH EDX
 0000407D  52		     5C 		PUSH EDX
 0000407E  51		     5C 		PUSH ECX
 0000407F  56		     5C 		PUSH ESI
 00004080  BA 000004C9 R     5C 			MOV EDX, OFFSET SoldierC1_4_3
 00004085  E8 00000000 E     5C 			CALL WriteString
 0000408A  59		     5C 		POP ECX
 0000408B  59		     5C 		POP ECX
 0000408C  5E		     5C 		POP ESI
 0000408D  5A		     4C 			POP  EDX
 0000408E  FE C6	     4C 			INC  DH
 00004090  E8 00000000 E     4C 			Call GoToXY
 000040A7  8A 15 00000002 R  4C 		MOV  	dl, CurrentPointX
 000040AD  8A 35 00000003 R  4C 		MOV  	dh, CurrentPointY
 000040B3  88 15 00000000 R  4C 		MOV		LastPointX,	dl
 000040B9  88 35 00000001 R  4C 		MOV 	LastPointY,	dh
 000040BF  8A 93 000009AD R  4C 		MOV  	dl, BYTE PTR CompSoldiers[EBX].X
 000040C5  B6 0E	     4C 		MOV  	dh, BYTE PTR 14
 000040C7  88 15 00000002 R  4C 		MOV 	CurrentPointX,	dl
 000040CD  88 35 00000003 R  4C 		MOV 	CurrentPointY,	dh
 000040D3  E8 00000000 E     4C 		CALL 	Gotoxy  
 000040D8  52		     4C 			PUSH EDX
 000040D9  52		     5C 		PUSH EDX
 000040DA  51		     5C 		PUSH ECX
 000040DB  56		     5C 		PUSH ESI
 000040DC  BA 000004D2 R     5C 			MOV EDX, OFFSET SoldierC2_1_1
 000040E1  E8 00000000 E     5C 			CALL WriteString
 000040E6  59		     5C 		POP ECX
 000040E7  59		     5C 		POP ECX
 000040E8  5E		     5C 		POP ESI
 000040E9  5A		     4C 			POP  EDX
 000040EA  FE C6	     4C 			INC  DH
 000040EC  E8 00000000 E     4C 			Call GoToXY
 000040F1  52		     4C 			PUSH EDX
 000040F2  52		     5C 		PUSH EDX
 000040F3  51		     5C 		PUSH ECX
 000040F4  56		     5C 		PUSH ESI
 000040F5  BA 000004DD R     5C 			MOV EDX, OFFSET SoldierC2_1_2
 000040FA  E8 00000000 E     5C 			CALL WriteString
 000040FF  59		     5C 		POP ECX
 00004100  59		     5C 		POP ECX
 00004101  5E		     5C 		POP ESI
 00004102  5A		     4C 			POP  EDX
 00004103  FE C6	     4C 			INC  DH
 00004105  E8 00000000 E     4C 			Call GoToXY
 0000410A  52		     4C 			PUSH EDX
 0000410B  52		     5C 		PUSH EDX
 0000410C  51		     5C 		PUSH ECX
 0000410D  56		     5C 		PUSH ESI
 0000410E  BA 000004E6 R     5C 			MOV EDX, OFFSET SoldierC2_1_3
 00004113  E8 00000000 E     5C 			CALL WriteString
 00004118  59		     5C 		POP ECX
 00004119  59		     5C 		POP ECX
 0000411A  5E		     5C 		POP ESI
 0000411B  5A		     4C 			POP  EDX
 0000411C  FE C6	     4C 			INC  DH
 0000411E  E8 00000000 E     4C 			Call GoToXY
 00004123  52		     4C 			PUSH EDX
 00004124  52		     5C 		PUSH EDX
 00004125  51		     5C 		PUSH ECX
 00004126  56		     5C 		PUSH ESI
 00004127  BA 000004F1 R     5C 			MOV EDX, OFFSET SoldierC2_1_4
 0000412C  E8 00000000 E     5C 			CALL WriteString
 00004131  59		     5C 		POP ECX
 00004132  59		     5C 		POP ECX
 00004133  5E		     5C 		POP ESI
 00004134  5A		     4C 			POP  EDX
 00004135  FE C6	     4C 			INC  DH
 00004137  E8 00000000 E     4C 			Call GoToXY
 0000414E  8A 15 00000002 R  4C 		MOV  	dl, CurrentPointX
 00004154  8A 35 00000003 R  4C 		MOV  	dh, CurrentPointY
 0000415A  88 15 00000000 R  4C 		MOV		LastPointX,	dl
 00004160  88 35 00000001 R  4C 		MOV 	LastPointY,	dh
 00004166  8A 93 000009AD R  4C 		MOV  	dl, BYTE PTR CompSoldiers[EBX].X
 0000416C  B6 0D	     4C 		MOV  	dh, BYTE PTR 13
 0000416E  88 15 00000002 R  4C 		MOV 	CurrentPointX,	dl
 00004174  88 35 00000003 R  4C 		MOV 	CurrentPointY,	dh
 0000417A  E8 00000000 E     4C 		CALL 	Gotoxy  
 0000417F  52		     4C 			PUSH EDX
 00004180  52		     5C 		PUSH EDX
 00004181  51		     5C 		PUSH ECX
 00004182  56		     5C 		PUSH ESI
 00004183  BA 000004FA R     5C 			MOV EDX, OFFSET SoldierC3_1_1
 00004188  E8 00000000 E     5C 			CALL WriteString
 0000418D  59		     5C 		POP ECX
 0000418E  59		     5C 		POP ECX
 0000418F  5E		     5C 		POP ESI
 00004190  5A		     4C 			POP  EDX
 00004191  FE C6	     4C 			INC  DH
 00004193  E8 00000000 E     4C 			Call GoToXY
 00004198  52		     4C 			PUSH EDX
 00004199  52		     5C 		PUSH EDX
 0000419A  51		     5C 		PUSH ECX
 0000419B  56		     5C 		PUSH ESI
 0000419C  BA 00000503 R     5C 			MOV EDX, OFFSET SoldierC3_1_2
 000041A1  E8 00000000 E     5C 			CALL WriteString
 000041A6  59		     5C 		POP ECX
 000041A7  59		     5C 		POP ECX
 000041A8  5E		     5C 		POP ESI
 000041A9  5A		     4C 			POP  EDX
 000041AA  FE C6	     4C 			INC  DH
 000041AC  E8 00000000 E     4C 			Call GoToXY
 000041B1  52		     4C 			PUSH EDX
 000041B2  52		     5C 		PUSH EDX
 000041B3  51		     5C 		PUSH ECX
 000041B4  56		     5C 		PUSH ESI
 000041B5  BA 0000050E R     5C 			MOV EDX, OFFSET SoldierC3_1_3
 000041BA  E8 00000000 E     5C 			CALL WriteString
 000041BF  59		     5C 		POP ECX
 000041C0  59		     5C 		POP ECX
 000041C1  5E		     5C 		POP ESI
 000041C2  5A		     4C 			POP  EDX
 000041C3  FE C6	     4C 			INC  DH
 000041C5  E8 00000000 E     4C 			Call GoToXY
 000041CA  52		     4C 			PUSH EDX
 000041CB  52		     5C 		PUSH EDX
 000041CC  51		     5C 		PUSH ECX
 000041CD  56		     5C 		PUSH ESI
 000041CE  BA 00000519 R     5C 			MOV EDX, OFFSET SoldierC3_1_4
 000041D3  E8 00000000 E     5C 			CALL WriteString
 000041D8  59		     5C 		POP ECX
 000041D9  59		     5C 		POP ECX
 000041DA  5E		     5C 		POP ESI
 000041DB  5A		     4C 			POP  EDX
 000041DC  FE C6	     4C 			INC  DH
 000041DE  E8 00000000 E     4C 			Call GoToXY
 000041E3  52		     4C 			PUSH EDX
 000041E4  52		     5C 		PUSH EDX
 000041E5  51		     5C 		PUSH ECX
 000041E6  56		     5C 		PUSH ESI
 000041E7  BA 00000522 R     5C 			MOV EDX, OFFSET SoldierC3_1_5
 000041EC  E8 00000000 E     5C 			CALL WriteString
 000041F1  59		     5C 		POP ECX
 000041F2  59		     5C 		POP ECX
 000041F3  5E		     5C 		POP ESI
 000041F4  5A		     4C 			POP  EDX
 000041F5  FE C6	     4C 			INC  DH
 000041F7  E8 00000000 E     4C 			Call GoToXY
 00004228  8A 15 00000002 R  4C 		MOV  	dl, CurrentPointX
 0000422E  8A 35 00000003 R  4C 		MOV  	dh, CurrentPointY
 00004234  88 15 00000000 R  4C 		MOV		LastPointX,	dl
 0000423A  88 35 00000001 R  4C 		MOV 	LastPointY,	dh
 00004240  8A 93 000009AD R  4C 		MOV  	dl, BYTE PTR CompSoldiers[EBX].X
 00004246  B6 0E	     4C 		MOV  	dh, BYTE PTR 14
 00004248  88 15 00000002 R  4C 		MOV 	CurrentPointX,	dl
 0000424E  88 35 00000003 R  4C 		MOV 	CurrentPointY,	dh
 00004254  E8 00000000 E     4C 		CALL 	Gotoxy  
 00004262  52		     4C 			PUSH EDX
 00004263  52		     5C 		PUSH EDX
 00004264  51		     5C 		PUSH ECX
 00004265  56		     5C 		PUSH ESI
 00004266  BA 00000547 R     5C 			MOV EDX, OFFSET MonsterA1_1_1
 0000426B  E8 00000000 E     5C 			CALL WriteString
 00004270  59		     5C 		POP ECX
 00004271  59		     5C 		POP ECX
 00004272  5E		     5C 		POP ESI
 00004273  5A		     4C 			POP  EDX
 00004274  FE C6	     4C 			INC  DH
 00004276  E8 00000000 E     4C 			Call GoToXY
 0000427B  52		     4C 			PUSH EDX
 0000427C  52		     5C 		PUSH EDX
 0000427D  51		     5C 		PUSH ECX
 0000427E  56		     5C 		PUSH ESI
 0000427F  BA 0000054E R     5C 			MOV EDX, OFFSET MonsterA1_1_2
 00004284  E8 00000000 E     5C 			CALL WriteString
 00004289  59		     5C 		POP ECX
 0000428A  59		     5C 		POP ECX
 0000428B  5E		     5C 		POP ESI
 0000428C  5A		     4C 			POP  EDX
 0000428D  FE C6	     4C 			INC  DH
 0000428F  E8 00000000 E     4C 			Call GoToXY
 00004294  52		     4C 			PUSH EDX
 00004295  52		     5C 		PUSH EDX
 00004296  51		     5C 		PUSH ECX
 00004297  56		     5C 		PUSH ESI
 00004298  BA 00000557 R     5C 			MOV EDX, OFFSET MonsterA1_1_3
 0000429D  E8 00000000 E     5C 			CALL WriteString
 000042A2  59		     5C 		POP ECX
 000042A3  59		     5C 		POP ECX
 000042A4  5E		     5C 		POP ESI
 000042A5  5A		     4C 			POP  EDX
 000042A6  FE C6	     4C 			INC  DH
 000042A8  E8 00000000 E     4C 			Call GoToXY
 000042AD  52		     4C 			PUSH EDX
 000042AE  52		     5C 		PUSH EDX
 000042AF  51		     5C 		PUSH ECX
 000042B0  56		     5C 		PUSH ESI
 000042B1  BA 0000055E R     5C 			MOV EDX, OFFSET MonsterA1_1_4
 000042B6  E8 00000000 E     5C 			CALL WriteString
 000042BB  59		     5C 		POP ECX
 000042BC  59		     5C 		POP ECX
 000042BD  5E		     5C 		POP ESI
 000042BE  5A		     4C 			POP  EDX
 000042BF  FE C6	     4C 			INC  DH
 000042C1  E8 00000000 E     4C 			Call GoToXY
 000042D8  52		     4C 			PUSH EDX
 000042D9  52		     5C 		PUSH EDX
 000042DA  51		     5C 		PUSH ECX
 000042DB  56		     5C 		PUSH ESI
 000042DC  BA 00000547 R     5C 			MOV EDX, OFFSET MonsterA1_1_1
 000042E1  E8 00000000 E     5C 			CALL WriteString
 000042E6  59		     5C 		POP ECX
 000042E7  59		     5C 		POP ECX
 000042E8  5E		     5C 		POP ESI
 000042E9  5A		     4C 			POP  EDX
 000042EA  FE C6	     4C 			INC  DH
 000042EC  E8 00000000 E     4C 			Call GoToXY
 000042F1  52		     4C 			PUSH EDX
 000042F2  52		     5C 		PUSH EDX
 000042F3  51		     5C 		PUSH ECX
 000042F4  56		     5C 		PUSH ESI
 000042F5  BA 0000054E R     5C 			MOV EDX, OFFSET MonsterA1_1_2
 000042FA  E8 00000000 E     5C 			CALL WriteString
 000042FF  59		     5C 		POP ECX
 00004300  59		     5C 		POP ECX
 00004301  5E		     5C 		POP ESI
 00004302  5A		     4C 			POP  EDX
 00004303  FE C6	     4C 			INC  DH
 00004305  E8 00000000 E     4C 			Call GoToXY
 0000430A  52		     4C 			PUSH EDX
 0000430B  52		     5C 		PUSH EDX
 0000430C  51		     5C 		PUSH ECX
 0000430D  56		     5C 		PUSH ESI
 0000430E  BA 00000557 R     5C 			MOV EDX, OFFSET MonsterA1_1_3
 00004313  E8 00000000 E     5C 			CALL WriteString
 00004318  59		     5C 		POP ECX
 00004319  59		     5C 		POP ECX
 0000431A  5E		     5C 		POP ESI
 0000431B  5A		     4C 			POP  EDX
 0000431C  FE C6	     4C 			INC  DH
 0000431E  E8 00000000 E     4C 			Call GoToXY
 00004323  52		     4C 			PUSH EDX
 00004324  52		     5C 		PUSH EDX
 00004325  51		     5C 		PUSH ECX
 00004326  56		     5C 		PUSH ESI
 00004327  BA 0000055E R     5C 			MOV EDX, OFFSET MonsterA1_1_4
 0000432C  E8 00000000 E     5C 			CALL WriteString
 00004331  59		     5C 		POP ECX
 00004332  59		     5C 		POP ECX
 00004333  5E		     5C 		POP ESI
 00004334  5A		     4C 			POP  EDX
 00004335  FE C6	     4C 			INC  DH
 00004337  E8 00000000 E     4C 			Call GoToXY
 0000434E  8A 15 00000002 R  4C 		MOV  	dl, CurrentPointX
 00004354  8A 35 00000003 R  4C 		MOV  	dh, CurrentPointY
 0000435A  88 15 00000000 R  4C 		MOV		LastPointX,	dl
 00004360  88 35 00000001 R  4C 		MOV 	LastPointY,	dh
 00004366  8A 93 000009AD R  4C 		MOV  	dl, BYTE PTR CompSoldiers[EBX].X
 0000436C  B6 0E	     4C 		MOV  	dh, BYTE PTR 14
 0000436E  88 15 00000002 R  4C 		MOV 	CurrentPointX,	dl
 00004374  88 35 00000003 R  4C 		MOV 	CurrentPointY,	dh
 0000437A  E8 00000000 E     4C 		CALL 	Gotoxy  
 00004388  52		     4C 			PUSH EDX
 00004389  52		     5C 		PUSH EDX
 0000438A  51		     5C 		PUSH ECX
 0000438B  56		     5C 		PUSH ESI
 0000438C  BA 00000563 R     5C 			MOV EDX, OFFSET MonsterA2_1_1
 00004391  E8 00000000 E     5C 			CALL WriteString
 00004396  59		     5C 		POP ECX
 00004397  59		     5C 		POP ECX
 00004398  5E		     5C 		POP ESI
 00004399  5A		     4C 			POP  EDX
 0000439A  FE C6	     4C 			INC  DH
 0000439C  E8 00000000 E     4C 			Call GoToXY
 000043A1  52		     4C 			PUSH EDX
 000043A2  52		     5C 		PUSH EDX
 000043A3  51		     5C 		PUSH ECX
 000043A4  56		     5C 		PUSH ESI
 000043A5  BA 00000569 R     5C 			MOV EDX, OFFSET MonsterA2_1_2
 000043AA  E8 00000000 E     5C 			CALL WriteString
 000043AF  59		     5C 		POP ECX
 000043B0  59		     5C 		POP ECX
 000043B1  5E		     5C 		POP ESI
 000043B2  5A		     4C 			POP  EDX
 000043B3  FE C6	     4C 			INC  DH
 000043B5  E8 00000000 E     4C 			Call GoToXY
 000043BA  52		     4C 			PUSH EDX
 000043BB  52		     5C 		PUSH EDX
 000043BC  51		     5C 		PUSH ECX
 000043BD  56		     5C 		PUSH ESI
 000043BE  BA 00000572 R     5C 			MOV EDX, OFFSET MonsterA2_1_3
 000043C3  E8 00000000 E     5C 			CALL WriteString
 000043C8  59		     5C 		POP ECX
 000043C9  59		     5C 		POP ECX
 000043CA  5E		     5C 		POP ESI
 000043CB  5A		     4C 			POP  EDX
 000043CC  FE C6	     4C 			INC  DH
 000043CE  E8 00000000 E     4C 			Call GoToXY
 000043D3  52		     4C 			PUSH EDX
 000043D4  52		     5C 		PUSH EDX
 000043D5  51		     5C 		PUSH ECX
 000043D6  56		     5C 		PUSH ESI
 000043D7  BA 0000057A R     5C 			MOV EDX, OFFSET MonsterA2_1_4
 000043DC  E8 00000000 E     5C 			CALL WriteString
 000043E1  59		     5C 		POP ECX
 000043E2  59		     5C 		POP ECX
 000043E3  5E		     5C 		POP ESI
 000043E4  5A		     4C 			POP  EDX
 000043E5  FE C6	     4C 			INC  DH
 000043E7  E8 00000000 E     4C 			Call GoToXY
 000043FE  52		     4C 			PUSH EDX
 000043FF  52		     5C 		PUSH EDX
 00004400  51		     5C 		PUSH ECX
 00004401  56		     5C 		PUSH ESI
 00004402  BA 00000563 R     5C 			MOV EDX, OFFSET MonsterA2_1_1
 00004407  E8 00000000 E     5C 			CALL WriteString
 0000440C  59		     5C 		POP ECX
 0000440D  59		     5C 		POP ECX
 0000440E  5E		     5C 		POP ESI
 0000440F  5A		     4C 			POP  EDX
 00004410  FE C6	     4C 			INC  DH
 00004412  E8 00000000 E     4C 			Call GoToXY
 00004417  52		     4C 			PUSH EDX
 00004418  52		     5C 		PUSH EDX
 00004419  51		     5C 		PUSH ECX
 0000441A  56		     5C 		PUSH ESI
 0000441B  BA 00000569 R     5C 			MOV EDX, OFFSET MonsterA2_1_2
 00004420  E8 00000000 E     5C 			CALL WriteString
 00004425  59		     5C 		POP ECX
 00004426  59		     5C 		POP ECX
 00004427  5E		     5C 		POP ESI
 00004428  5A		     4C 			POP  EDX
 00004429  FE C6	     4C 			INC  DH
 0000442B  E8 00000000 E     4C 			Call GoToXY
 00004430  52		     4C 			PUSH EDX
 00004431  52		     5C 		PUSH EDX
 00004432  51		     5C 		PUSH ECX
 00004433  56		     5C 		PUSH ESI
 00004434  BA 00000572 R     5C 			MOV EDX, OFFSET MonsterA2_1_3
 00004439  E8 00000000 E     5C 			CALL WriteString
 0000443E  59		     5C 		POP ECX
 0000443F  59		     5C 		POP ECX
 00004440  5E		     5C 		POP ESI
 00004441  5A		     4C 			POP  EDX
 00004442  FE C6	     4C 			INC  DH
 00004444  E8 00000000 E     4C 			Call GoToXY
 00004449  52		     4C 			PUSH EDX
 0000444A  52		     5C 		PUSH EDX
 0000444B  51		     5C 		PUSH ECX
 0000444C  56		     5C 		PUSH ESI
 0000444D  BA 0000057A R     5C 			MOV EDX, OFFSET MonsterA2_1_4
 00004452  E8 00000000 E     5C 			CALL WriteString
 00004457  59		     5C 		POP ECX
 00004458  59		     5C 		POP ECX
 00004459  5E		     5C 		POP ESI
 0000445A  5A		     4C 			POP  EDX
 0000445B  FE C6	     4C 			INC  DH
 0000445D  E8 00000000 E     4C 			Call GoToXY
 00004474  8A 15 00000002 R  4C 		MOV  	dl, CurrentPointX
 0000447A  8A 35 00000003 R  4C 		MOV  	dh, CurrentPointY
 00004480  88 15 00000000 R  4C 		MOV		LastPointX,	dl
 00004486  88 35 00000001 R  4C 		MOV 	LastPointY,	dh
 0000448C  8A 93 000009AD R  4C 		MOV  	dl, BYTE PTR CompSoldiers[EBX].X
 00004492  B6 0C	     4C 		MOV  	dh, BYTE PTR 12
 00004494  88 15 00000002 R  4C 		MOV 	CurrentPointX,	dl
 0000449A  88 35 00000003 R  4C 		MOV 	CurrentPointY,	dh
 000044A0  E8 00000000 E     4C 		CALL 	Gotoxy  
 000044B2  52		     4C 			PUSH EDX
 000044B3  52		     5C 		PUSH EDX
 000044B4  51		     5C 		PUSH ECX
 000044B5  56		     5C 		PUSH ESI
 000044B6  BA 00000582 R     5C 			MOV EDX, OFFSET MonsterA3_1_1
 000044BB  E8 00000000 E     5C 			CALL WriteString
 000044C0  59		     5C 		POP ECX
 000044C1  59		     5C 		POP ECX
 000044C2  5E		     5C 		POP ESI
 000044C3  5A		     4C 			POP  EDX
 000044C4  FE C6	     4C 			INC  DH
 000044C6  E8 00000000 E     4C 			Call GoToXY
 000044CB  52		     4C 			PUSH EDX
 000044CC  52		     5C 		PUSH EDX
 000044CD  51		     5C 		PUSH ECX
 000044CE  56		     5C 		PUSH ESI
 000044CF  BA 0000058B R     5C 			MOV EDX, OFFSET MonsterA3_1_2
 000044D4  E8 00000000 E     5C 			CALL WriteString
 000044D9  59		     5C 		POP ECX
 000044DA  59		     5C 		POP ECX
 000044DB  5E		     5C 		POP ESI
 000044DC  5A		     4C 			POP  EDX
 000044DD  FE C6	     4C 			INC  DH
 000044DF  E8 00000000 E     4C 			Call GoToXY
 000044E4  52		     4C 			PUSH EDX
 000044E5  52		     5C 		PUSH EDX
 000044E6  51		     5C 		PUSH ECX
 000044E7  56		     5C 		PUSH ESI
 000044E8  BA 00000593 R     5C 			MOV EDX, OFFSET MonsterA3_1_3
 000044ED  E8 00000000 E     5C 			CALL WriteString
 000044F2  59		     5C 		POP ECX
 000044F3  59		     5C 		POP ECX
 000044F4  5E		     5C 		POP ESI
 000044F5  5A		     4C 			POP  EDX
 000044F6  FE C6	     4C 			INC  DH
 000044F8  E8 00000000 E     4C 			Call GoToXY
 000044FD  52		     4C 			PUSH EDX
 000044FE  52		     5C 		PUSH EDX
 000044FF  51		     5C 		PUSH ECX
 00004500  56		     5C 		PUSH ESI
 00004501  BA 0000059E R     5C 			MOV EDX, OFFSET MonsterA3_1_4
 00004506  E8 00000000 E     5C 			CALL WriteString
 0000450B  59		     5C 		POP ECX
 0000450C  59		     5C 		POP ECX
 0000450D  5E		     5C 		POP ESI
 0000450E  5A		     4C 			POP  EDX
 0000450F  FE C6	     4C 			INC  DH
 00004511  E8 00000000 E     4C 			Call GoToXY
 00004516  52		     4C 			PUSH EDX
 00004517  52		     5C 		PUSH EDX
 00004518  51		     5C 		PUSH ECX
 00004519  56		     5C 		PUSH ESI
 0000451A  BA 000005A8 R     5C 			MOV EDX, OFFSET MonsterA3_1_5
 0000451F  E8 00000000 E     5C 			CALL WriteString
 00004524  59		     5C 		POP ECX
 00004525  59		     5C 		POP ECX
 00004526  5E		     5C 		POP ESI
 00004527  5A		     4C 			POP  EDX
 00004528  FE C6	     4C 			INC  DH
 0000452A  E8 00000000 E     4C 			Call GoToXY
 0000452F  52		     4C 			PUSH EDX
 00004530  52		     5C 		PUSH EDX
 00004531  51		     5C 		PUSH ECX
 00004532  56		     5C 		PUSH ESI
 00004533  BA 000005B1 R     5C 			MOV EDX, OFFSET MonsterA3_1_6
 00004538  E8 00000000 E     5C 			CALL WriteString
 0000453D  59		     5C 		POP ECX
 0000453E  59		     5C 		POP ECX
 0000453F  5E		     5C 		POP ESI
 00004540  5A		     4C 			POP  EDX
 00004541  FE C6	     4C 			INC  DH
 00004543  E8 00000000 E     4C 			Call GoToXY
 0000455A  52		     4C 			PUSH EDX
 0000455B  52		     5C 		PUSH EDX
 0000455C  51		     5C 		PUSH ECX
 0000455D  56		     5C 		PUSH ESI
 0000455E  BA 00000582 R     5C 			MOV EDX, OFFSET MonsterA3_1_1
 00004563  E8 00000000 E     5C 			CALL WriteString
 00004568  59		     5C 		POP ECX
 00004569  59		     5C 		POP ECX
 0000456A  5E		     5C 		POP ESI
 0000456B  5A		     4C 			POP  EDX
 0000456C  FE C6	     4C 			INC  DH
 0000456E  E8 00000000 E     4C 			Call GoToXY
 00004573  52		     4C 			PUSH EDX
 00004574  52		     5C 		PUSH EDX
 00004575  51		     5C 		PUSH ECX
 00004576  56		     5C 		PUSH ESI
 00004577  BA 0000058B R     5C 			MOV EDX, OFFSET MonsterA3_1_2
 0000457C  E8 00000000 E     5C 			CALL WriteString
 00004581  59		     5C 		POP ECX
 00004582  59		     5C 		POP ECX
 00004583  5E		     5C 		POP ESI
 00004584  5A		     4C 			POP  EDX
 00004585  FE C6	     4C 			INC  DH
 00004587  E8 00000000 E     4C 			Call GoToXY
 0000458C  52		     4C 			PUSH EDX
 0000458D  52		     5C 		PUSH EDX
 0000458E  51		     5C 		PUSH ECX
 0000458F  56		     5C 		PUSH ESI
 00004590  BA 00000593 R     5C 			MOV EDX, OFFSET MonsterA3_1_3
 00004595  E8 00000000 E     5C 			CALL WriteString
 0000459A  59		     5C 		POP ECX
 0000459B  59		     5C 		POP ECX
 0000459C  5E		     5C 		POP ESI
 0000459D  5A		     4C 			POP  EDX
 0000459E  FE C6	     4C 			INC  DH
 000045A0  E8 00000000 E     4C 			Call GoToXY
 000045A5  52		     4C 			PUSH EDX
 000045A6  52		     5C 		PUSH EDX
 000045A7  51		     5C 		PUSH ECX
 000045A8  56		     5C 		PUSH ESI
 000045A9  BA 0000059E R     5C 			MOV EDX, OFFSET MonsterA3_1_4
 000045AE  E8 00000000 E     5C 			CALL WriteString
 000045B3  59		     5C 		POP ECX
 000045B4  59		     5C 		POP ECX
 000045B5  5E		     5C 		POP ESI
 000045B6  5A		     4C 			POP  EDX
 000045B7  FE C6	     4C 			INC  DH
 000045B9  E8 00000000 E     4C 			Call GoToXY
 000045BE  52		     4C 			PUSH EDX
 000045BF  52		     5C 		PUSH EDX
 000045C0  51		     5C 		PUSH ECX
 000045C1  56		     5C 		PUSH ESI
 000045C2  BA 000005A8 R     5C 			MOV EDX, OFFSET MonsterA3_1_5
 000045C7  E8 00000000 E     5C 			CALL WriteString
 000045CC  59		     5C 		POP ECX
 000045CD  59		     5C 		POP ECX
 000045CE  5E		     5C 		POP ESI
 000045CF  5A		     4C 			POP  EDX
 000045D0  FE C6	     4C 			INC  DH
 000045D2  E8 00000000 E     4C 			Call GoToXY
 000045D7  52		     4C 			PUSH EDX
 000045D8  52		     5C 		PUSH EDX
 000045D9  51		     5C 		PUSH ECX
 000045DA  56		     5C 		PUSH ESI
 000045DB  BA 000005B1 R     5C 			MOV EDX, OFFSET MonsterA3_1_6
 000045E0  E8 00000000 E     5C 			CALL WriteString
 000045E5  59		     5C 		POP ECX
 000045E6  59		     5C 		POP ECX
 000045E7  5E		     5C 		POP ESI
 000045E8  5A		     4C 			POP  EDX
 000045E9  FE C6	     4C 			INC  DH
 000045EB  E8 00000000 E     4C 			Call GoToXY
 0000460F  8A 15 00000002 R  4C 		MOV  	dl, CurrentPointX
 00004615  8A 35 00000003 R  4C 		MOV  	dh, CurrentPointY
 0000461B  88 15 00000000 R  4C 		MOV		LastPointX,	dl
 00004621  88 35 00000001 R  4C 		MOV 	LastPointY,	dh
 00004627  8A 93 000009AD R  4C 		MOV  	dl, BYTE PTR CompSoldiers[EBX].X
 0000462D  B6 0F	     4C 		MOV  	dh, BYTE PTR 15
 0000462F  88 15 00000002 R  4C 		MOV 	CurrentPointX,	dl
 00004635  88 35 00000003 R  4C 		MOV 	CurrentPointY,	dh
 0000463B  E8 00000000 E     4C 		CALL 	Gotoxy  
 00004652  52		     4C 			PUSH EDX
 00004653  52		     5C 		PUSH EDX
 00004654  51		     5C 		PUSH ECX
 00004655  56		     5C 		PUSH ESI
 00004656  BA 000005B9 R     5C 			MOV EDX, OFFSET MonsterB1_1_1
 0000465B  E8 00000000 E     5C 			CALL WriteString
 00004660  59		     5C 		POP ECX
 00004661  59		     5C 		POP ECX
 00004662  5E		     5C 		POP ESI
 00004663  5A		     4C 			POP  EDX
 00004664  FE C6	     4C 			INC  DH
 00004666  E8 00000000 E     4C 			Call GoToXY
 0000466B  52		     4C 			PUSH EDX
 0000466C  52		     5C 		PUSH EDX
 0000466D  51		     5C 		PUSH ECX
 0000466E  56		     5C 		PUSH ESI
 0000466F  BA 000005BE R     5C 			MOV EDX, OFFSET MonsterB1_1_2
 00004674  E8 00000000 E     5C 			CALL WriteString
 00004679  59		     5C 		POP ECX
 0000467A  59		     5C 		POP ECX
 0000467B  5E		     5C 		POP ESI
 0000467C  5A		     4C 			POP  EDX
 0000467D  FE C6	     4C 			INC  DH
 0000467F  E8 00000000 E     4C 			Call GoToXY
 00004684  52		     4C 			PUSH EDX
 00004685  52		     5C 		PUSH EDX
 00004686  51		     5C 		PUSH ECX
 00004687  56		     5C 		PUSH ESI
 00004688  BA 000005C3 R     5C 			MOV EDX, OFFSET MonsterB1_1_3
 0000468D  E8 00000000 E     5C 			CALL WriteString
 00004692  59		     5C 		POP ECX
 00004693  59		     5C 		POP ECX
 00004694  5E		     5C 		POP ESI
 00004695  5A		     4C 			POP  EDX
 00004696  FE C6	     4C 			INC  DH
 00004698  E8 00000000 E     4C 			Call GoToXY
 000046B4  52		     4C 			PUSH EDX
 000046B5  52		     5C 		PUSH EDX
 000046B6  51		     5C 		PUSH ECX
 000046B7  56		     5C 		PUSH ESI
 000046B8  BA 000005C8 R     5C 			MOV EDX, OFFSET MonsterB1_2_1
 000046BD  E8 00000000 E     5C 			CALL WriteString
 000046C2  59		     5C 		POP ECX
 000046C3  59		     5C 		POP ECX
 000046C4  5E		     5C 		POP ESI
 000046C5  5A		     4C 			POP  EDX
 000046C6  FE C6	     4C 			INC  DH
 000046C8  E8 00000000 E     4C 			Call GoToXY
 000046CD  52		     4C 			PUSH EDX
 000046CE  52		     5C 		PUSH EDX
 000046CF  51		     5C 		PUSH ECX
 000046D0  56		     5C 		PUSH ESI
 000046D1  BA 000005CD R     5C 			MOV EDX, OFFSET MonsterB1_2_2
 000046D6  E8 00000000 E     5C 			CALL WriteString
 000046DB  59		     5C 		POP ECX
 000046DC  59		     5C 		POP ECX
 000046DD  5E		     5C 		POP ESI
 000046DE  5A		     4C 			POP  EDX
 000046DF  FE C6	     4C 			INC  DH
 000046E1  E8 00000000 E     4C 			Call GoToXY
 000046E6  52		     4C 			PUSH EDX
 000046E7  52		     5C 		PUSH EDX
 000046E8  51		     5C 		PUSH ECX
 000046E9  56		     5C 		PUSH ESI
 000046EA  BA 000005D2 R     5C 			MOV EDX, OFFSET MonsterB1_2_3
 000046EF  E8 00000000 E     5C 			CALL WriteString
 000046F4  59		     5C 		POP ECX
 000046F5  59		     5C 		POP ECX
 000046F6  5E		     5C 		POP ESI
 000046F7  5A		     4C 			POP  EDX
 000046F8  FE C6	     4C 			INC  DH
 000046FA  E8 00000000 E     4C 			Call GoToXY
 00004704  52		     4C 			PUSH EDX
 00004705  52		     5C 		PUSH EDX
 00004706  51		     5C 		PUSH ECX
 00004707  56		     5C 		PUSH ESI
 00004708  BA 000005D7 R     5C 			MOV EDX, OFFSET MonsterB1_3_1
 0000470D  E8 00000000 E     5C 			CALL WriteString
 00004712  59		     5C 		POP ECX
 00004713  59		     5C 		POP ECX
 00004714  5E		     5C 		POP ESI
 00004715  5A		     4C 			POP  EDX
 00004716  FE C6	     4C 			INC  DH
 00004718  E8 00000000 E     4C 			Call GoToXY
 0000471D  52		     4C 			PUSH EDX
 0000471E  52		     5C 		PUSH EDX
 0000471F  51		     5C 		PUSH ECX
 00004720  56		     5C 		PUSH ESI
 00004721  BA 000005DC R     5C 			MOV EDX, OFFSET MonsterB1_3_2
 00004726  E8 00000000 E     5C 			CALL WriteString
 0000472B  59		     5C 		POP ECX
 0000472C  59		     5C 		POP ECX
 0000472D  5E		     5C 		POP ESI
 0000472E  5A		     4C 			POP  EDX
 0000472F  FE C6	     4C 			INC  DH
 00004731  E8 00000000 E     4C 			Call GoToXY
 00004736  52		     4C 			PUSH EDX
 00004737  52		     5C 		PUSH EDX
 00004738  51		     5C 		PUSH ECX
 00004739  56		     5C 		PUSH ESI
 0000473A  BA 000005E1 R     5C 			MOV EDX, OFFSET MonsterB1_3_3
 0000473F  E8 00000000 E     5C 			CALL WriteString
 00004744  59		     5C 		POP ECX
 00004745  59		     5C 		POP ECX
 00004746  5E		     5C 		POP ESI
 00004747  5A		     4C 			POP  EDX
 00004748  FE C6	     4C 			INC  DH
 0000474A  E8 00000000 E     4C 			Call GoToXY
 00004761  8A 15 00000002 R  4C 		MOV  	dl, CurrentPointX
 00004767  8A 35 00000003 R  4C 		MOV  	dh, CurrentPointY
 0000476D  88 15 00000000 R  4C 		MOV		LastPointX,	dl
 00004773  88 35 00000001 R  4C 		MOV 	LastPointY,	dh
 00004779  8A 93 000009AD R  4C 		MOV  	dl, BYTE PTR CompSoldiers[EBX].X
 0000477F  B6 0D	     4C 		MOV  	dh, BYTE PTR 13
 00004781  88 15 00000002 R  4C 		MOV 	CurrentPointX,	dl
 00004787  88 35 00000003 R  4C 		MOV 	CurrentPointY,	dh
 0000478D  E8 00000000 E     4C 		CALL 	Gotoxy  
 000047A8  52		     4C 			PUSH EDX
 000047A9  52		     5C 		PUSH EDX
 000047AA  51		     5C 		PUSH ECX
 000047AB  56		     5C 		PUSH ESI
 000047AC  BA 000005E6 R     5C 			MOV EDX, OFFSET MonsterB2_1_1
 000047B1  E8 00000000 E     5C 			CALL WriteString
 000047B6  59		     5C 		POP ECX
 000047B7  59		     5C 		POP ECX
 000047B8  5E		     5C 		POP ESI
 000047B9  5A		     4C 			POP  EDX
 000047BA  FE C6	     4C 			INC  DH
 000047BC  E8 00000000 E     4C 			Call GoToXY
 000047C1  52		     4C 			PUSH EDX
 000047C2  52		     5C 		PUSH EDX
 000047C3  51		     5C 		PUSH ECX
 000047C4  56		     5C 		PUSH ESI
 000047C5  BA 000005ED R     5C 			MOV EDX, OFFSET MonsterB2_1_2
 000047CA  E8 00000000 E     5C 			CALL WriteString
 000047CF  59		     5C 		POP ECX
 000047D0  59		     5C 		POP ECX
 000047D1  5E		     5C 		POP ESI
 000047D2  5A		     4C 			POP  EDX
 000047D3  FE C6	     4C 			INC  DH
 000047D5  E8 00000000 E     4C 			Call GoToXY
 000047DA  52		     4C 			PUSH EDX
 000047DB  52		     5C 		PUSH EDX
 000047DC  51		     5C 		PUSH ECX
 000047DD  56		     5C 		PUSH ESI
 000047DE  BA 000005F4 R     5C 			MOV EDX, OFFSET MonsterB2_1_3
 000047E3  E8 00000000 E     5C 			CALL WriteString
 000047E8  59		     5C 		POP ECX
 000047E9  59		     5C 		POP ECX
 000047EA  5E		     5C 		POP ESI
 000047EB  5A		     4C 			POP  EDX
 000047EC  FE C6	     4C 			INC  DH
 000047EE  E8 00000000 E     4C 			Call GoToXY
 000047F3  52		     4C 			PUSH EDX
 000047F4  52		     5C 		PUSH EDX
 000047F5  51		     5C 		PUSH ECX
 000047F6  56		     5C 		PUSH ESI
 000047F7  BA 000005FC R     5C 			MOV EDX, OFFSET MonsterB2_1_4
 000047FC  E8 00000000 E     5C 			CALL WriteString
 00004801  59		     5C 		POP ECX
 00004802  59		     5C 		POP ECX
 00004803  5E		     5C 		POP ESI
 00004804  5A		     4C 			POP  EDX
 00004805  FE C6	     4C 			INC  DH
 00004807  E8 00000000 E     4C 			Call GoToXY
 0000480C  52		     4C 			PUSH EDX
 0000480D  52		     5C 		PUSH EDX
 0000480E  51		     5C 		PUSH ECX
 0000480F  56		     5C 		PUSH ESI
 00004810  BA 00000603 R     5C 			MOV EDX, OFFSET MonsterB2_1_5
 00004815  E8 00000000 E     5C 			CALL WriteString
 0000481A  59		     5C 		POP ECX
 0000481B  59		     5C 		POP ECX
 0000481C  5E		     5C 		POP ESI
 0000481D  5A		     4C 			POP  EDX
 0000481E  FE C6	     4C 			INC  DH
 00004820  E8 00000000 E     4C 			Call GoToXY
 00004840  52		     4C 			PUSH EDX
 00004841  52		     5C 		PUSH EDX
 00004842  51		     5C 		PUSH ECX
 00004843  56		     5C 		PUSH ESI
 00004844  BA 0000060A R     5C 			MOV EDX, OFFSET MonsterB2_2_1
 00004849  E8 00000000 E     5C 			CALL WriteString
 0000484E  59		     5C 		POP ECX
 0000484F  59		     5C 		POP ECX
 00004850  5E		     5C 		POP ESI
 00004851  5A		     4C 			POP  EDX
 00004852  FE C6	     4C 			INC  DH
 00004854  E8 00000000 E     4C 			Call GoToXY
 00004859  52		     4C 			PUSH EDX
 0000485A  52		     5C 		PUSH EDX
 0000485B  51		     5C 		PUSH ECX
 0000485C  56		     5C 		PUSH ESI
 0000485D  BA 00000611 R     5C 			MOV EDX, OFFSET MonsterB2_2_2
 00004862  E8 00000000 E     5C 			CALL WriteString
 00004867  59		     5C 		POP ECX
 00004868  59		     5C 		POP ECX
 00004869  5E		     5C 		POP ESI
 0000486A  5A		     4C 			POP  EDX
 0000486B  FE C6	     4C 			INC  DH
 0000486D  E8 00000000 E     4C 			Call GoToXY
 00004872  52		     4C 			PUSH EDX
 00004873  52		     5C 		PUSH EDX
 00004874  51		     5C 		PUSH ECX
 00004875  56		     5C 		PUSH ESI
 00004876  BA 00000619 R     5C 			MOV EDX, OFFSET MonsterB2_2_3
 0000487B  E8 00000000 E     5C 			CALL WriteString
 00004880  59		     5C 		POP ECX
 00004881  59		     5C 		POP ECX
 00004882  5E		     5C 		POP ESI
 00004883  5A		     4C 			POP  EDX
 00004884  FE C6	     4C 			INC  DH
 00004886  E8 00000000 E     4C 			Call GoToXY
 0000488B  52		     4C 			PUSH EDX
 0000488C  52		     5C 		PUSH EDX
 0000488D  51		     5C 		PUSH ECX
 0000488E  56		     5C 		PUSH ESI
 0000488F  BA 00000620 R     5C 			MOV EDX, OFFSET MonsterB2_2_4
 00004894  E8 00000000 E     5C 			CALL WriteString
 00004899  59		     5C 		POP ECX
 0000489A  59		     5C 		POP ECX
 0000489B  5E		     5C 		POP ESI
 0000489C  5A		     4C 			POP  EDX
 0000489D  FE C6	     4C 			INC  DH
 0000489F  E8 00000000 E     4C 			Call GoToXY
 000048A4  52		     4C 			PUSH EDX
 000048A5  52		     5C 		PUSH EDX
 000048A6  51		     5C 		PUSH ECX
 000048A7  56		     5C 		PUSH ESI
 000048A8  BA 00000627 R     5C 			MOV EDX, OFFSET MonsterB2_2_5
 000048AD  E8 00000000 E     5C 			CALL WriteString
 000048B2  59		     5C 		POP ECX
 000048B3  59		     5C 		POP ECX
 000048B4  5E		     5C 		POP ESI
 000048B5  5A		     4C 			POP  EDX
 000048B6  FE C6	     4C 			INC  DH
 000048B8  E8 00000000 E     4C 			Call GoToXY
 000048C2  52		     4C 			PUSH EDX
 000048C3  52		     5C 		PUSH EDX
 000048C4  51		     5C 		PUSH ECX
 000048C5  56		     5C 		PUSH ESI
 000048C6  BA 0000062E R     5C 			MOV EDX, OFFSET MonsterB2_3_1
 000048CB  E8 00000000 E     5C 			CALL WriteString
 000048D0  59		     5C 		POP ECX
 000048D1  59		     5C 		POP ECX
 000048D2  5E		     5C 		POP ESI
 000048D3  5A		     4C 			POP  EDX
 000048D4  FE C6	     4C 			INC  DH
 000048D6  E8 00000000 E     4C 			Call GoToXY
 000048DB  52		     4C 			PUSH EDX
 000048DC  52		     5C 		PUSH EDX
 000048DD  51		     5C 		PUSH ECX
 000048DE  56		     5C 		PUSH ESI
 000048DF  BA 00000636 R     5C 			MOV EDX, OFFSET MonsterB2_3_2
 000048E4  E8 00000000 E     5C 			CALL WriteString
 000048E9  59		     5C 		POP ECX
 000048EA  59		     5C 		POP ECX
 000048EB  5E		     5C 		POP ESI
 000048EC  5A		     4C 			POP  EDX
 000048ED  FE C6	     4C 			INC  DH
 000048EF  E8 00000000 E     4C 			Call GoToXY
 000048F4  52		     4C 			PUSH EDX
 000048F5  52		     5C 		PUSH EDX
 000048F6  51		     5C 		PUSH ECX
 000048F7  56		     5C 		PUSH ESI
 000048F8  BA 0000063D R     5C 			MOV EDX, OFFSET MonsterB2_3_3
 000048FD  E8 00000000 E     5C 			CALL WriteString
 00004902  59		     5C 		POP ECX
 00004903  59		     5C 		POP ECX
 00004904  5E		     5C 		POP ESI
 00004905  5A		     4C 			POP  EDX
 00004906  FE C6	     4C 			INC  DH
 00004908  E8 00000000 E     4C 			Call GoToXY
 0000490D  52		     4C 			PUSH EDX
 0000490E  52		     5C 		PUSH EDX
 0000490F  51		     5C 		PUSH ECX
 00004910  56		     5C 		PUSH ESI
 00004911  BA 00000644 R     5C 			MOV EDX, OFFSET MonsterB2_3_4
 00004916  E8 00000000 E     5C 			CALL WriteString
 0000491B  59		     5C 		POP ECX
 0000491C  59		     5C 		POP ECX
 0000491D  5E		     5C 		POP ESI
 0000491E  5A		     4C 			POP  EDX
 0000491F  FE C6	     4C 			INC  DH
 00004921  E8 00000000 E     4C 			Call GoToXY
 00004926  52		     4C 			PUSH EDX
 00004927  52		     5C 		PUSH EDX
 00004928  51		     5C 		PUSH ECX
 00004929  56		     5C 		PUSH ESI
 0000492A  BA 0000064B R     5C 			MOV EDX, OFFSET MonsterB2_3_5
 0000492F  E8 00000000 E     5C 			CALL WriteString
 00004934  59		     5C 		POP ECX
 00004935  59		     5C 		POP ECX
 00004936  5E		     5C 		POP ESI
 00004937  5A		     4C 			POP  EDX
 00004938  FE C6	     4C 			INC  DH
 0000493A  E8 00000000 E     4C 			Call GoToXY
 00004951  8A 15 00000002 R  4C 		MOV  	dl, CurrentPointX
 00004957  8A 35 00000003 R  4C 		MOV  	dh, CurrentPointY
 0000495D  88 15 00000000 R  4C 		MOV		LastPointX,	dl
 00004963  88 35 00000001 R  4C 		MOV 	LastPointY,	dh
 00004969  8A 93 000009AD R  4C 		MOV  	dl, BYTE PTR CompSoldiers[EBX].X
 0000496F  B6 0D	     4C 		MOV  	dh, BYTE PTR 13
 00004971  88 15 00000002 R  4C 		MOV 	CurrentPointX,	dl
 00004977  88 35 00000003 R  4C 		MOV 	CurrentPointY,	dh
 0000497D  E8 00000000 E     4C 		CALL 	Gotoxy  
 00004998  52		     4C 			PUSH EDX
 00004999  52		     5C 		PUSH EDX
 0000499A  51		     5C 		PUSH ECX
 0000499B  56		     5C 		PUSH ESI
 0000499C  BA 00000652 R     5C 			MOV EDX, OFFSET MonsterB3_1_1
 000049A1  E8 00000000 E     5C 			CALL WriteString
 000049A6  59		     5C 		POP ECX
 000049A7  59		     5C 		POP ECX
 000049A8  5E		     5C 		POP ESI
 000049A9  5A		     4C 			POP  EDX
 000049AA  FE C6	     4C 			INC  DH
 000049AC  E8 00000000 E     4C 			Call GoToXY
 000049B1  52		     4C 			PUSH EDX
 000049B2  52		     5C 		PUSH EDX
 000049B3  51		     5C 		PUSH ECX
 000049B4  56		     5C 		PUSH ESI
 000049B5  BA 0000065A R     5C 			MOV EDX, OFFSET MonsterB3_1_2
 000049BA  E8 00000000 E     5C 			CALL WriteString
 000049BF  59		     5C 		POP ECX
 000049C0  59		     5C 		POP ECX
 000049C1  5E		     5C 		POP ESI
 000049C2  5A		     4C 			POP  EDX
 000049C3  FE C6	     4C 			INC  DH
 000049C5  E8 00000000 E     4C 			Call GoToXY
 000049CA  52		     4C 			PUSH EDX
 000049CB  52		     5C 		PUSH EDX
 000049CC  51		     5C 		PUSH ECX
 000049CD  56		     5C 		PUSH ESI
 000049CE  BA 00000662 R     5C 			MOV EDX, OFFSET MonsterB3_1_3
 000049D3  E8 00000000 E     5C 			CALL WriteString
 000049D8  59		     5C 		POP ECX
 000049D9  59		     5C 		POP ECX
 000049DA  5E		     5C 		POP ESI
 000049DB  5A		     4C 			POP  EDX
 000049DC  FE C6	     4C 			INC  DH
 000049DE  E8 00000000 E     4C 			Call GoToXY
 000049E3  52		     4C 			PUSH EDX
 000049E4  52		     5C 		PUSH EDX
 000049E5  51		     5C 		PUSH ECX
 000049E6  56		     5C 		PUSH ESI
 000049E7  BA 0000066B R     5C 			MOV EDX, OFFSET MonsterB3_1_4
 000049EC  E8 00000000 E     5C 			CALL WriteString
 000049F1  59		     5C 		POP ECX
 000049F2  59		     5C 		POP ECX
 000049F3  5E		     5C 		POP ESI
 000049F4  5A		     4C 			POP  EDX
 000049F5  FE C6	     4C 			INC  DH
 000049F7  E8 00000000 E     4C 			Call GoToXY
 000049FC  52		     4C 			PUSH EDX
 000049FD  52		     5C 		PUSH EDX
 000049FE  51		     5C 		PUSH ECX
 000049FF  56		     5C 		PUSH ESI
 00004A00  BA 00000673 R     5C 			MOV EDX, OFFSET MonsterB3_1_5
 00004A05  E8 00000000 E     5C 			CALL WriteString
 00004A0A  59		     5C 		POP ECX
 00004A0B  59		     5C 		POP ECX
 00004A0C  5E		     5C 		POP ESI
 00004A0D  5A		     4C 			POP  EDX
 00004A0E  FE C6	     4C 			INC  DH
 00004A10  E8 00000000 E     4C 			Call GoToXY
 00004A2C  52		     4C 			PUSH EDX
 00004A2D  52		     5C 		PUSH EDX
 00004A2E  51		     5C 		PUSH ECX
 00004A2F  56		     5C 		PUSH ESI
 00004A30  BA 0000067B R     5C 			MOV EDX, OFFSET MonsterB3_2_1
 00004A35  E8 00000000 E     5C 			CALL WriteString
 00004A3A  59		     5C 		POP ECX
 00004A3B  59		     5C 		POP ECX
 00004A3C  5E		     5C 		POP ESI
 00004A3D  5A		     4C 			POP  EDX
 00004A3E  FE C6	     4C 			INC  DH
 00004A40  E8 00000000 E     4C 			Call GoToXY
 00004A45  52		     4C 			PUSH EDX
 00004A46  52		     5C 		PUSH EDX
 00004A47  51		     5C 		PUSH ECX
 00004A48  56		     5C 		PUSH ESI
 00004A49  BA 00000683 R     5C 			MOV EDX, OFFSET MonsterB3_2_2
 00004A4E  E8 00000000 E     5C 			CALL WriteString
 00004A53  59		     5C 		POP ECX
 00004A54  59		     5C 		POP ECX
 00004A55  5E		     5C 		POP ESI
 00004A56  5A		     4C 			POP  EDX
 00004A57  FE C6	     4C 			INC  DH
 00004A59  E8 00000000 E     4C 			Call GoToXY
 00004A5E  52		     4C 			PUSH EDX
 00004A5F  52		     5C 		PUSH EDX
 00004A60  51		     5C 		PUSH ECX
 00004A61  56		     5C 		PUSH ESI
 00004A62  BA 0000068C R     5C 			MOV EDX, OFFSET MonsterB3_2_3
 00004A67  E8 00000000 E     5C 			CALL WriteString
 00004A6C  59		     5C 		POP ECX
 00004A6D  59		     5C 		POP ECX
 00004A6E  5E		     5C 		POP ESI
 00004A6F  5A		     4C 			POP  EDX
 00004A70  FE C6	     4C 			INC  DH
 00004A72  E8 00000000 E     4C 			Call GoToXY
 00004A77  52		     4C 			PUSH EDX
 00004A78  52		     5C 		PUSH EDX
 00004A79  51		     5C 		PUSH ECX
 00004A7A  56		     5C 		PUSH ESI
 00004A7B  BA 00000694 R     5C 			MOV EDX, OFFSET MonsterB3_2_4
 00004A80  E8 00000000 E     5C 			CALL WriteString
 00004A85  59		     5C 		POP ECX
 00004A86  59		     5C 		POP ECX
 00004A87  5E		     5C 		POP ESI
 00004A88  5A		     4C 			POP  EDX
 00004A89  FE C6	     4C 			INC  DH
 00004A8B  E8 00000000 E     4C 			Call GoToXY
 00004A90  52		     4C 			PUSH EDX
 00004A91  52		     5C 		PUSH EDX
 00004A92  51		     5C 		PUSH ECX
 00004A93  56		     5C 		PUSH ESI
 00004A94  BA 0000069C R     5C 			MOV EDX, OFFSET MonsterB3_2_5
 00004A99  E8 00000000 E     5C 			CALL WriteString
 00004A9E  59		     5C 		POP ECX
 00004A9F  59		     5C 		POP ECX
 00004AA0  5E		     5C 		POP ESI
 00004AA1  5A		     4C 			POP  EDX
 00004AA2  FE C6	     4C 			INC  DH
 00004AA4  E8 00000000 E     4C 			Call GoToXY
 00004AAB  52		     4C 			PUSH EDX
 00004AAC  52		     5C 		PUSH EDX
 00004AAD  51		     5C 		PUSH ECX
 00004AAE  56		     5C 		PUSH ESI
 00004AAF  BA 000006A4 R     5C 			MOV EDX, OFFSET MonsterB3_3_1
 00004AB4  E8 00000000 E     5C 			CALL WriteString
 00004AB9  59		     5C 		POP ECX
 00004ABA  59		     5C 		POP ECX
 00004ABB  5E		     5C 		POP ESI
 00004ABC  5A		     4C 			POP  EDX
 00004ABD  FE C6	     4C 			INC  DH
 00004ABF  E8 00000000 E     4C 			Call GoToXY
 00004AC4  52		     4C 			PUSH EDX
 00004AC5  52		     5C 		PUSH EDX
 00004AC6  51		     5C 		PUSH ECX
 00004AC7  56		     5C 		PUSH ESI
 00004AC8  BA 000006AD R     5C 			MOV EDX, OFFSET MonsterB3_3_2
 00004ACD  E8 00000000 E     5C 			CALL WriteString
 00004AD2  59		     5C 		POP ECX
 00004AD3  59		     5C 		POP ECX
 00004AD4  5E		     5C 		POP ESI
 00004AD5  5A		     4C 			POP  EDX
 00004AD6  FE C6	     4C 			INC  DH
 00004AD8  E8 00000000 E     4C 			Call GoToXY
 00004ADD  52		     4C 			PUSH EDX
 00004ADE  52		     5C 		PUSH EDX
 00004ADF  51		     5C 		PUSH ECX
 00004AE0  56		     5C 		PUSH ESI
 00004AE1  BA 000006B5 R     5C 			MOV EDX, OFFSET MonsterB3_3_3
 00004AE6  E8 00000000 E     5C 			CALL WriteString
 00004AEB  59		     5C 		POP ECX
 00004AEC  59		     5C 		POP ECX
 00004AED  5E		     5C 		POP ESI
 00004AEE  5A		     4C 			POP  EDX
 00004AEF  FE C6	     4C 			INC  DH
 00004AF1  E8 00000000 E     4C 			Call GoToXY
 00004AF6  52		     4C 			PUSH EDX
 00004AF7  52		     5C 		PUSH EDX
 00004AF8  51		     5C 		PUSH ECX
 00004AF9  56		     5C 		PUSH ESI
 00004AFA  BA 000006BD R     5C 			MOV EDX, OFFSET MonsterB3_3_4
 00004AFF  E8 00000000 E     5C 			CALL WriteString
 00004B04  59		     5C 		POP ECX
 00004B05  59		     5C 		POP ECX
 00004B06  5E		     5C 		POP ESI
 00004B07  5A		     4C 			POP  EDX
 00004B08  FE C6	     4C 			INC  DH
 00004B0A  E8 00000000 E     4C 			Call GoToXY
 00004B0F  52		     4C 			PUSH EDX
 00004B10  52		     5C 		PUSH EDX
 00004B11  51		     5C 		PUSH ECX
 00004B12  56		     5C 		PUSH ESI
 00004B13  BA 000006C5 R     5C 			MOV EDX, OFFSET MonsterB3_3_5
 00004B18  E8 00000000 E     5C 			CALL WriteString
 00004B1D  59		     5C 		POP ECX
 00004B1E  59		     5C 		POP ECX
 00004B1F  5E		     5C 		POP ESI
 00004B20  5A		     4C 			POP  EDX
 00004B21  FE C6	     4C 			INC  DH
 00004B23  E8 00000000 E     4C 			Call GoToXY
 00004B43  8A 15 00000002 R  4C 		MOV  	dl, CurrentPointX
 00004B49  8A 35 00000003 R  4C 		MOV  	dh, CurrentPointY
 00004B4F  88 15 00000000 R  4C 		MOV		LastPointX,	dl
 00004B55  88 35 00000001 R  4C 		MOV 	LastPointY,	dh
 00004B5B  8A 93 000009AD R  4C 		MOV  	dl, BYTE PTR CompSoldiers[EBX].X
 00004B61  B6 10	     4C 		MOV  	dh, BYTE PTR 16
 00004B63  88 15 00000002 R  4C 		MOV 	CurrentPointX,	dl
 00004B69  88 35 00000003 R  4C 		MOV 	CurrentPointY,	dh
 00004B6F  E8 00000000 E     4C 		CALL 	Gotoxy  
 00004B74  52		     4C 			PUSH EDX
 00004B75  52		     5C 		PUSH EDX
 00004B76  51		     5C 		PUSH ECX
 00004B77  56		     5C 		PUSH ESI
 00004B78  BA 000006CD R     5C 			MOV EDX, OFFSET MonsterC1_1_1
 00004B7D  E8 00000000 E     5C 			CALL WriteString
 00004B82  59		     5C 		POP ECX
 00004B83  59		     5C 		POP ECX
 00004B84  5E		     5C 		POP ESI
 00004B85  5A		     4C 			POP  EDX
 00004B86  FE C6	     4C 			INC  DH
 00004B88  E8 00000000 E     4C 			Call GoToXY
 00004B8D  52		     4C 			PUSH EDX
 00004B8E  52		     5C 		PUSH EDX
 00004B8F  51		     5C 		PUSH ECX
 00004B90  56		     5C 		PUSH ESI
 00004B91  BA 000006D6 R     5C 			MOV EDX, OFFSET MonsterC1_1_2
 00004B96  E8 00000000 E     5C 			CALL WriteString
 00004B9B  59		     5C 		POP ECX
 00004B9C  59		     5C 		POP ECX
 00004B9D  5E		     5C 		POP ESI
 00004B9E  5A		     4C 			POP  EDX
 00004B9F  FE C6	     4C 			INC  DH
 00004BA1  E8 00000000 E     4C 			Call GoToXY
 00004BB8  8A 15 00000002 R  4C 		MOV  	dl, CurrentPointX
 00004BBE  8A 35 00000003 R  4C 		MOV  	dh, CurrentPointY
 00004BC4  88 15 00000000 R  4C 		MOV		LastPointX,	dl
 00004BCA  88 35 00000001 R  4C 		MOV 	LastPointY,	dh
 00004BD0  8A 93 000009AD R  4C 		MOV  	dl, BYTE PTR CompSoldiers[EBX].X
 00004BD6  B6 0D	     4C 		MOV  	dh, BYTE PTR 13
 00004BD8  88 15 00000002 R  4C 		MOV 	CurrentPointX,	dl
 00004BDE  88 35 00000003 R  4C 		MOV 	CurrentPointY,	dh
 00004BE4  E8 00000000 E     4C 		CALL 	Gotoxy  
 00004BF6  52		     4C 			PUSH EDX
 00004BF7  52		     5C 		PUSH EDX
 00004BF8  51		     5C 		PUSH ECX
 00004BF9  56		     5C 		PUSH ESI
 00004BFA  BA 0000070E R     5C 			MOV EDX, OFFSET MonsterC2_2_1
 00004BFF  E8 00000000 E     5C 			CALL WriteString
 00004C04  59		     5C 		POP ECX
 00004C05  59		     5C 		POP ECX
 00004C06  5E		     5C 		POP ESI
 00004C07  5A		     4C 			POP  EDX
 00004C08  FE C6	     4C 			INC  DH
 00004C0A  E8 00000000 E     4C 			Call GoToXY
 00004C0F  52		     4C 			PUSH EDX
 00004C10  52		     5C 		PUSH EDX
 00004C11  51		     5C 		PUSH ECX
 00004C12  56		     5C 		PUSH ESI
 00004C13  BA 00000717 R     5C 			MOV EDX, OFFSET MonsterC2_2_2
 00004C18  E8 00000000 E     5C 			CALL WriteString
 00004C1D  59		     5C 		POP ECX
 00004C1E  59		     5C 		POP ECX
 00004C1F  5E		     5C 		POP ESI
 00004C20  5A		     4C 			POP  EDX
 00004C21  FE C6	     4C 			INC  DH
 00004C23  E8 00000000 E     4C 			Call GoToXY
 00004C28  52		     4C 			PUSH EDX
 00004C29  52		     5C 		PUSH EDX
 00004C2A  51		     5C 		PUSH ECX
 00004C2B  56		     5C 		PUSH ESI
 00004C2C  BA 00000722 R     5C 			MOV EDX, OFFSET MonsterC2_2_3
 00004C31  E8 00000000 E     5C 			CALL WriteString
 00004C36  59		     5C 		POP ECX
 00004C37  59		     5C 		POP ECX
 00004C38  5E		     5C 		POP ESI
 00004C39  5A		     4C 			POP  EDX
 00004C3A  FE C6	     4C 			INC  DH
 00004C3C  E8 00000000 E     4C 			Call GoToXY
 00004C41  52		     4C 			PUSH EDX
 00004C42  52		     5C 		PUSH EDX
 00004C43  51		     5C 		PUSH ECX
 00004C44  56		     5C 		PUSH ESI
 00004C45  BA 0000072B R     5C 			MOV EDX, OFFSET MonsterC2_2_4
 00004C4A  E8 00000000 E     5C 			CALL WriteString
 00004C4F  59		     5C 		POP ECX
 00004C50  59		     5C 		POP ECX
 00004C51  5E		     5C 		POP ESI
 00004C52  5A		     4C 			POP  EDX
 00004C53  FE C6	     4C 			INC  DH
 00004C55  E8 00000000 E     4C 			Call GoToXY
 00004C5A  52		     4C 			PUSH EDX
 00004C5B  52		     5C 		PUSH EDX
 00004C5C  51		     5C 		PUSH ECX
 00004C5D  56		     5C 		PUSH ESI
 00004C5E  BA 00000736 R     5C 			MOV EDX, OFFSET MonsterC2_2_5
 00004C63  E8 00000000 E     5C 			CALL WriteString
 00004C68  59		     5C 		POP ECX
 00004C69  59		     5C 		POP ECX
 00004C6A  5E		     5C 		POP ESI
 00004C6B  5A		     4C 			POP  EDX
 00004C6C  FE C6	     4C 			INC  DH
 00004C6E  E8 00000000 E     4C 			Call GoToXY
 00004C85  52		     4C 			PUSH EDX
 00004C86  52		     5C 		PUSH EDX
 00004C87  51		     5C 		PUSH ECX
 00004C88  56		     5C 		PUSH ESI
 00004C89  BA 000006DD R     5C 			MOV EDX, OFFSET MonsterC2_1_1
 00004C8E  E8 00000000 E     5C 			CALL WriteString
 00004C93  59		     5C 		POP ECX
 00004C94  59		     5C 		POP ECX
 00004C95  5E		     5C 		POP ESI
 00004C96  5A		     4C 			POP  EDX
 00004C97  FE C6	     4C 			INC  DH
 00004C99  E8 00000000 E     4C 			Call GoToXY
 00004C9E  52		     4C 			PUSH EDX
 00004C9F  52		     5C 		PUSH EDX
 00004CA0  51		     5C 		PUSH ECX
 00004CA1  56		     5C 		PUSH ESI
 00004CA2  BA 000006E8 R     5C 			MOV EDX, OFFSET MonsterC2_1_2
 00004CA7  E8 00000000 E     5C 			CALL WriteString
 00004CAC  59		     5C 		POP ECX
 00004CAD  59		     5C 		POP ECX
 00004CAE  5E		     5C 		POP ESI
 00004CAF  5A		     4C 			POP  EDX
 00004CB0  FE C6	     4C 			INC  DH
 00004CB2  E8 00000000 E     4C 			Call GoToXY
 00004CB7  52		     4C 			PUSH EDX
 00004CB8  52		     5C 		PUSH EDX
 00004CB9  51		     5C 		PUSH ECX
 00004CBA  56		     5C 		PUSH ESI
 00004CBB  BA 000006F1 R     5C 			MOV EDX, OFFSET MonsterC2_1_3
 00004CC0  E8 00000000 E     5C 			CALL WriteString
 00004CC5  59		     5C 		POP ECX
 00004CC6  59		     5C 		POP ECX
 00004CC7  5E		     5C 		POP ESI
 00004CC8  5A		     4C 			POP  EDX
 00004CC9  FE C6	     4C 			INC  DH
 00004CCB  E8 00000000 E     4C 			Call GoToXY
 00004CD0  52		     4C 			PUSH EDX
 00004CD1  52		     5C 		PUSH EDX
 00004CD2  51		     5C 		PUSH ECX
 00004CD3  56		     5C 		PUSH ESI
 00004CD4  BA 000006FC R     5C 			MOV EDX, OFFSET MonsterC2_1_4
 00004CD9  E8 00000000 E     5C 			CALL WriteString
 00004CDE  59		     5C 		POP ECX
 00004CDF  59		     5C 		POP ECX
 00004CE0  5E		     5C 		POP ESI
 00004CE1  5A		     4C 			POP  EDX
 00004CE2  FE C6	     4C 			INC  DH
 00004CE4  E8 00000000 E     4C 			Call GoToXY
 00004CE9  52		     4C 			PUSH EDX
 00004CEA  52		     5C 		PUSH EDX
 00004CEB  51		     5C 		PUSH ECX
 00004CEC  56		     5C 		PUSH ESI
 00004CED  BA 00000705 R     5C 			MOV EDX, OFFSET MonsterC2_1_5
 00004CF2  E8 00000000 E     5C 			CALL WriteString
 00004CF7  59		     5C 		POP ECX
 00004CF8  59		     5C 		POP ECX
 00004CF9  5E		     5C 		POP ESI
 00004CFA  5A		     4C 			POP  EDX
 00004CFB  FE C6	     4C 			INC  DH
 00004CFD  E8 00000000 E     4C 			Call GoToXY
 00004D14  8A 15 00000002 R  4C 		MOV  	dl, CurrentPointX
 00004D1A  8A 35 00000003 R  4C 		MOV  	dh, CurrentPointY
 00004D20  88 15 00000000 R  4C 		MOV		LastPointX,	dl
 00004D26  88 35 00000001 R  4C 		MOV 	LastPointY,	dh
 00004D2C  8A 93 000009AD R  4C 		MOV  	dl, BYTE PTR CompSoldiers[EBX].X
 00004D32  B6 0C	     4C 		MOV  	dh, BYTE PTR 12
 00004D34  88 15 00000002 R  4C 		MOV 	CurrentPointX,	dl
 00004D3A  88 35 00000003 R  4C 		MOV 	CurrentPointY,	dh
 00004D40  E8 00000000 E     4C 		CALL 	Gotoxy  
 00004D5B  52		     4C 			PUSH EDX
 00004D5C  52		     5C 		PUSH EDX
 00004D5D  51		     5C 		PUSH ECX
 00004D5E  56		     5C 		PUSH ESI
 00004D5F  BA 0000073F R     5C 			MOV EDX, OFFSET MonsterC3_1_1
 00004D64  E8 00000000 E     5C 			CALL WriteString
 00004D69  59		     5C 		POP ECX
 00004D6A  59		     5C 		POP ECX
 00004D6B  5E		     5C 		POP ESI
 00004D6C  5A		     4C 			POP  EDX
 00004D6D  FE C6	     4C 			INC  DH
 00004D6F  E8 00000000 E     4C 			Call GoToXY
 00004D74  52		     4C 			PUSH EDX
 00004D75  52		     5C 		PUSH EDX
 00004D76  51		     5C 		PUSH ECX
 00004D77  56		     5C 		PUSH ESI
 00004D78  BA 0000074D R     5C 			MOV EDX, OFFSET MonsterC3_1_2
 00004D7D  E8 00000000 E     5C 			CALL WriteString
 00004D82  59		     5C 		POP ECX
 00004D83  59		     5C 		POP ECX
 00004D84  5E		     5C 		POP ESI
 00004D85  5A		     4C 			POP  EDX
 00004D86  FE C6	     4C 			INC  DH
 00004D88  E8 00000000 E     4C 			Call GoToXY
 00004D8D  52		     4C 			PUSH EDX
 00004D8E  52		     5C 		PUSH EDX
 00004D8F  51		     5C 		PUSH ECX
 00004D90  56		     5C 		PUSH ESI
 00004D91  BA 0000075A R     5C 			MOV EDX, OFFSET MonsterC3_1_3
 00004D96  E8 00000000 E     5C 			CALL WriteString
 00004D9B  59		     5C 		POP ECX
 00004D9C  59		     5C 		POP ECX
 00004D9D  5E		     5C 		POP ESI
 00004D9E  5A		     4C 			POP  EDX
 00004D9F  FE C6	     4C 			INC  DH
 00004DA1  E8 00000000 E     4C 			Call GoToXY
 00004DA6  52		     4C 			PUSH EDX
 00004DA7  52		     5C 		PUSH EDX
 00004DA8  51		     5C 		PUSH ECX
 00004DA9  56		     5C 		PUSH ESI
 00004DAA  BA 0000076B R     5C 			MOV EDX, OFFSET MonsterC3_1_4
 00004DAF  E8 00000000 E     5C 			CALL WriteString
 00004DB4  59		     5C 		POP ECX
 00004DB5  59		     5C 		POP ECX
 00004DB6  5E		     5C 		POP ESI
 00004DB7  5A		     4C 			POP  EDX
 00004DB8  FE C6	     4C 			INC  DH
 00004DBA  E8 00000000 E     4C 			Call GoToXY
 00004DBF  52		     4C 			PUSH EDX
 00004DC0  52		     5C 		PUSH EDX
 00004DC1  51		     5C 		PUSH ECX
 00004DC2  56		     5C 		PUSH ESI
 00004DC3  BA 0000077A R     5C 			MOV EDX, OFFSET MonsterC3_1_5
 00004DC8  E8 00000000 E     5C 			CALL WriteString
 00004DCD  59		     5C 		POP ECX
 00004DCE  59		     5C 		POP ECX
 00004DCF  5E		     5C 		POP ESI
 00004DD0  5A		     4C 			POP  EDX
 00004DD1  FE C6	     4C 			INC  DH
 00004DD3  E8 00000000 E     4C 			Call GoToXY
 00004DD8  52		     4C 			PUSH EDX
 00004DD9  52		     5C 		PUSH EDX
 00004DDA  51		     5C 		PUSH ECX
 00004DDB  56		     5C 		PUSH ESI
 00004DDC  BA 00000787 R     5C 			MOV EDX, OFFSET MonsterC3_1_6
 00004DE1  E8 00000000 E     5C 			CALL WriteString
 00004DE6  59		     5C 		POP ECX
 00004DE7  59		     5C 		POP ECX
 00004DE8  5E		     5C 		POP ESI
 00004DE9  5A		     4C 			POP  EDX
 00004DEA  FE C6	     4C 			INC  DH
 00004DEC  E8 00000000 E     4C 			Call GoToXY
 00004E0C  52		     4C 			PUSH EDX
 00004E0D  52		     5C 		PUSH EDX
 00004E0E  51		     5C 		PUSH ECX
 00004E0F  56		     5C 		PUSH ESI
 00004E10  BA 00000798 R     5C 			MOV EDX, OFFSET MonsterC3_2_1
 00004E15  E8 00000000 E     5C 			CALL WriteString
 00004E1A  59		     5C 		POP ECX
 00004E1B  59		     5C 		POP ECX
 00004E1C  5E		     5C 		POP ESI
 00004E1D  5A		     4C 			POP  EDX
 00004E1E  FE C6	     4C 			INC  DH
 00004E20  E8 00000000 E     4C 			Call GoToXY
 00004E25  52		     4C 			PUSH EDX
 00004E26  52		     5C 		PUSH EDX
 00004E27  51		     5C 		PUSH ECX
 00004E28  56		     5C 		PUSH ESI
 00004E29  BA 000007A6 R     5C 			MOV EDX, OFFSET MonsterC3_2_2
 00004E2E  E8 00000000 E     5C 			CALL WriteString
 00004E33  59		     5C 		POP ECX
 00004E34  59		     5C 		POP ECX
 00004E35  5E		     5C 		POP ESI
 00004E36  5A		     4C 			POP  EDX
 00004E37  FE C6	     4C 			INC  DH
 00004E39  E8 00000000 E     4C 			Call GoToXY
 00004E3E  52		     4C 			PUSH EDX
 00004E3F  52		     5C 		PUSH EDX
 00004E40  51		     5C 		PUSH ECX
 00004E41  56		     5C 		PUSH ESI
 00004E42  BA 000007B3 R     5C 			MOV EDX, OFFSET MonsterC3_2_3
 00004E47  E8 00000000 E     5C 			CALL WriteString
 00004E4C  59		     5C 		POP ECX
 00004E4D  59		     5C 		POP ECX
 00004E4E  5E		     5C 		POP ESI
 00004E4F  5A		     4C 			POP  EDX
 00004E50  FE C6	     4C 			INC  DH
 00004E52  E8 00000000 E     4C 			Call GoToXY
 00004E57  52		     4C 			PUSH EDX
 00004E58  52		     5C 		PUSH EDX
 00004E59  51		     5C 		PUSH ECX
 00004E5A  56		     5C 		PUSH ESI
 00004E5B  BA 000007C4 R     5C 			MOV EDX, OFFSET MonsterC3_2_4
 00004E60  E8 00000000 E     5C 			CALL WriteString
 00004E65  59		     5C 		POP ECX
 00004E66  59		     5C 		POP ECX
 00004E67  5E		     5C 		POP ESI
 00004E68  5A		     4C 			POP  EDX
 00004E69  FE C6	     4C 			INC  DH
 00004E6B  E8 00000000 E     4C 			Call GoToXY
 00004E70  52		     4C 			PUSH EDX
 00004E71  52		     5C 		PUSH EDX
 00004E72  51		     5C 		PUSH ECX
 00004E73  56		     5C 		PUSH ESI
 00004E74  BA 000007D3 R     5C 			MOV EDX, OFFSET MonsterC3_2_5
 00004E79  E8 00000000 E     5C 			CALL WriteString
 00004E7E  59		     5C 		POP ECX
 00004E7F  59		     5C 		POP ECX
 00004E80  5E		     5C 		POP ESI
 00004E81  5A		     4C 			POP  EDX
 00004E82  FE C6	     4C 			INC  DH
 00004E84  E8 00000000 E     4C 			Call GoToXY
 00004E89  52		     4C 			PUSH EDX
 00004E8A  52		     5C 		PUSH EDX
 00004E8B  51		     5C 		PUSH ECX
 00004E8C  56		     5C 		PUSH ESI
 00004E8D  BA 000007E0 R     5C 			MOV EDX, OFFSET MonsterC3_2_6
 00004E92  E8 00000000 E     5C 			CALL WriteString
 00004E97  59		     5C 		POP ECX
 00004E98  59		     5C 		POP ECX
 00004E99  5E		     5C 		POP ESI
 00004E9A  5A		     4C 			POP  EDX
 00004E9B  FE C6	     4C 			INC  DH
 00004E9D  E8 00000000 E     4C 			Call GoToXY
 00004EA7  52		     4C 			PUSH EDX
 00004EA8  52		     5C 		PUSH EDX
 00004EA9  51		     5C 		PUSH ECX
 00004EAA  56		     5C 		PUSH ESI
 00004EAB  BA 000007F1 R     5C 			MOV EDX, OFFSET MonsterC3_3_1
 00004EB0  E8 00000000 E     5C 			CALL WriteString
 00004EB5  59		     5C 		POP ECX
 00004EB6  59		     5C 		POP ECX
 00004EB7  5E		     5C 		POP ESI
 00004EB8  5A		     4C 			POP  EDX
 00004EB9  FE C6	     4C 			INC  DH
 00004EBB  E8 00000000 E     4C 			Call GoToXY
 00004EC0  52		     4C 			PUSH EDX
 00004EC1  52		     5C 		PUSH EDX
 00004EC2  51		     5C 		PUSH ECX
 00004EC3  56		     5C 		PUSH ESI
 00004EC4  BA 000007FF R     5C 			MOV EDX, OFFSET MonsterC3_3_2
 00004EC9  E8 00000000 E     5C 			CALL WriteString
 00004ECE  59		     5C 		POP ECX
 00004ECF  59		     5C 		POP ECX
 00004ED0  5E		     5C 		POP ESI
 00004ED1  5A		     4C 			POP  EDX
 00004ED2  FE C6	     4C 			INC  DH
 00004ED4  E8 00000000 E     4C 			Call GoToXY
 00004ED9  52		     4C 			PUSH EDX
 00004EDA  52		     5C 		PUSH EDX
 00004EDB  51		     5C 		PUSH ECX
 00004EDC  56		     5C 		PUSH ESI
 00004EDD  BA 0000080C R     5C 			MOV EDX, OFFSET MonsterC3_3_3
 00004EE2  E8 00000000 E     5C 			CALL WriteString
 00004EE7  59		     5C 		POP ECX
 00004EE8  59		     5C 		POP ECX
 00004EE9  5E		     5C 		POP ESI
 00004EEA  5A		     4C 			POP  EDX
 00004EEB  FE C6	     4C 			INC  DH
 00004EED  E8 00000000 E     4C 			Call GoToXY
 00004EF2  52		     4C 			PUSH EDX
 00004EF3  52		     5C 		PUSH EDX
 00004EF4  51		     5C 		PUSH ECX
 00004EF5  56		     5C 		PUSH ESI
 00004EF6  BA 0000081E R     5C 			MOV EDX, OFFSET MonsterC3_3_4
 00004EFB  E8 00000000 E     5C 			CALL WriteString
 00004F00  59		     5C 		POP ECX
 00004F01  59		     5C 		POP ECX
 00004F02  5E		     5C 		POP ESI
 00004F03  5A		     4C 			POP  EDX
 00004F04  FE C6	     4C 			INC  DH
 00004F06  E8 00000000 E     4C 			Call GoToXY
 00004F0B  52		     4C 			PUSH EDX
 00004F0C  52		     5C 		PUSH EDX
 00004F0D  51		     5C 		PUSH ECX
 00004F0E  56		     5C 		PUSH ESI
 00004F0F  BA 0000082B R     5C 			MOV EDX, OFFSET MonsterC3_3_5
 00004F14  E8 00000000 E     5C 			CALL WriteString
 00004F19  59		     5C 		POP ECX
 00004F1A  59		     5C 		POP ECX
 00004F1B  5E		     5C 		POP ESI
 00004F1C  5A		     4C 			POP  EDX
 00004F1D  FE C6	     4C 			INC  DH
 00004F1F  E8 00000000 E     4C 			Call GoToXY
 00004F24  52		     4C 			PUSH EDX
 00004F25  52		     5C 		PUSH EDX
 00004F26  51		     5C 		PUSH ECX
 00004F27  56		     5C 		PUSH ESI
 00004F28  BA 00000838 R     5C 			MOV EDX, OFFSET MonsterC3_3_6
 00004F2D  E8 00000000 E     5C 			CALL WriteString
 00004F32  59		     5C 		POP ECX
 00004F33  59		     5C 		POP ECX
 00004F34  5E		     5C 		POP ESI
 00004F35  5A		     4C 			POP  EDX
 00004F36  FE C6	     4C 			INC  DH
 00004F38  E8 00000000 E     4C 			Call GoToXY
			      C 				NextInc	8, DSs
 00004F3D  41		     1C 		INC ECX
 00004F3E  83 F9 08	     1C 		CMP ECX, 8
 00004F41  0F 8C FFFFCB04    1C 		JL DSs
 00004F47  61		      C 		POPA
 00004F48  C3		      C 		RET
 00004F49		      C 	DrawingSoldiers		ENDP
			      C 
					INCLUDE	Build.inc
			      C ;	Version 3
			      C ;;;;;;;;;;;;;;;;;;;;;;;;;;;;;;;;
			      C ;;;;						;;;;
			      C ;;;;	Build New Soldier 	;;;;
			      C ;;;;						;;;;
			      C ;;;;;;;;;;;;;;;;;;;;;;;;;;;;;;;;
 00000DD9		      C .Data
			      C 	TakeMoney	 MACRO	Arms,	Level, CanBuild
			      C 		CopyFrom CanBuild,	0
			      C 		GettingSoldierMoneyByIndex Arms, Level, GetterHandler
			      C 		MOV EAX, GetterHandler
			      C 		.IF( UserMoney >= EAX )
			      C 			SubBy 	UserMoney, 	GetterHandler
			      C 			CopyFrom 	CanBuild, 	1
			      C 		.ENDIF
			      C 		ENDM
			      C 	TriggleBuild MACRO 	League,	Arms
			      C 		PUSHA
			      C 			MOV EAX, League
			      C 			MOV EBX, Arms
			      C 			.IF( EAX == 0)
			      C 				.IF( EBX == 1)
			      C 					BuildUserSoldierA
			      C 				.ELSEIF( EBX == 2)
			      C 					BuildUserSoldierB
			      C 				.ELSEIF( EBX == 3)
			      C 					BuildUserSoldierC
			      C 				.ENDIF
			      C 			.ELSE
			      C 				.IF( EBX == 1)
			      C 					BuildCompSoldierA
			      C 				.ELSEIF( EBX == 2)
			      C 					BuildCompSoldierB
			      C 				.ELSEIF( EBX == 3)
			      C 					BuildCompSoldierC
			      C 				.ENDIF
			      C 			.ENDIF
			      C 		POPA
			      C 		ENDM
			      C 	BuildSoldierBufferTime 	MACRO	League,		Arms
			      C 		PUSHA
			      C 			.IF( Timer_UserBuild == 0)
			      C 				CopyFrom Timer_UserBuild, 1
			      C 			.ENDIF
			      C 			MOV EAX,	League
			      C 			.IF( EAX == 0 )
			      C 				PUSHArray 	User_BuildQueue,	Arms
			      C 			.ELSE
			      C 				PUSHArray	Comp_BuildQueue,	Arms
			      C 			.ENDIF
			      C 		POPA
			      C 		ENDM
			      C 	BuildSoldier MACRO Object, League, Arms, Speed
			      C 		PUSHA
			      C 			INVOKE FindUsableSoldier, League, Arms
			      C 		POPA
			      C 		ENDM
 00004F49		      C .Code	
 00004F49		      C 	FindUsableSoldier PROC, League:DWORD, Arms:DWORD
 00004F4C  60		      C 		PUSHA
			      C 				;WriteD League
			      C 				;AnyKeyToContinue
			      C 
			      C 			.IF (League == 0)
			      C 				LoopTimes 0
 00004F57  B9 00000000	     1C 		MOV 	ECX,	0
 00004F5C		      C 				FindUser:
			      C 					ObjectOffset ECX
 00004F5C  B8 0000002C	     1C 		MOV EAX, (SIZEOF Soldier)
 00004F61  8B D9	     1C 		MOV EBX, ECX
 00004F63  F7 E3	     1C 		MUL EBX
 00004F65  8B D8	     1C 		MOV EBX, EAX
			      C 					.IF (UserSoldiers[EBX].Alive == 0)
			      C 						SettingSoldierAlive		UserSoldiers, ECX, 1
 00004F74  60		     1C 		PUSHA
 00004F75  B8 0000002C	     2C 		MOV EAX, (SIZEOF Soldier)
 00004F7A  8B D9	     2C 		MOV EBX, ECX
 00004F7C  F7 E3	     2C 		MUL EBX
 00004F7E  8B D8	     2C 		MOV EBX, EAX
 00004F80  50		     2C 		PUSH EAX
 00004F81  B8 00000001	     2C 			MOV EAX, 1
 00004F86  89 83 00000871 R  2C 			MOV UserSoldiers[EBX].Alive, 	EAX
 00004F8C  58		     2C 		POP EAX
 00004F8D  61		     1C 		POPA
			      C 						SettingSoldierArms 		UserSoldiers, ECX, Arms
 00004F8E  60		     1C 		PUSHA
 00004F8F  B8 0000002C	     2C 		MOV EAX, (SIZEOF Soldier)
 00004F94  8B D9	     2C 		MOV EBX, ECX
 00004F96  F7 E3	     2C 		MUL EBX
 00004F98  8B D8	     2C 		MOV EBX, EAX
 00004F9A  50		     2C 		PUSH EAX
 00004F9B  8B 45 0C	     2C 			MOV EAX, Arms
 00004F9E  89 83 0000085D R  2C 			MOV UserSoldiers[EBX].Arms, 	EAX
 00004FA4  58		     2C 		POP EAX
 00004FA5  61		     1C 		POPA
			      C 						SettingSoldierX	 		UserSoldiers, ECX, 20
 00004FA6  60		     1C 		PUSHA
 00004FA7  B8 0000002C	     2C 		MOV EAX, (SIZEOF Soldier)
 00004FAC  8B D9	     2C 		MOV EBX, ECX
 00004FAE  F7 E3	     2C 		MUL EBX
 00004FB0  8B D8	     2C 		MOV EBX, EAX
 00004FB2  50		     2C 		PUSH EAX
 00004FB3  B8 00000014	     2C 			MOV EAX, 20
 00004FB8  89 83 0000084D R  2C 			MOV UserSoldiers[EBX].X, 	EAX
 00004FBE  58		     2C 		POP EAX
 00004FBF  61		     1C 		POPA
			      C 						SettingSoldierLeague	UserSoldiers, ECX, 0
 00004FC0  60		     1C 		PUSHA
 00004FC1  B8 0000002C	     2C 		MOV EAX, (SIZEOF Soldier)
 00004FC6  8B D9	     2C 		MOV EBX, ECX
 00004FC8  F7 E3	     2C 		MUL EBX
 00004FCA  8B D8	     2C 		MOV EBX, EAX
 00004FCC  50		     2C 		PUSH EAX
 00004FCD  B8 00000000	     2C 			MOV EAX, 0
 00004FD2  89 83 00000861 R  2C 			MOV UserSoldiers[EBX].League, 	EAX
 00004FD8  58		     2C 		POP EAX
 00004FD9  61		     1C 		POPA
			      C 						SettingSoldierLevel		UserSoldiers, ECX, UserCurrLevel
 00004FDA  60		     1C 		PUSHA
 00004FDB  B8 0000002C	     2C 		MOV EAX, (SIZEOF Soldier)
 00004FE0  8B D9	     2C 		MOV EBX, ECX
 00004FE2  F7 E3	     2C 		MUL EBX
 00004FE4  8B D8	     2C 		MOV EBX, EAX
 00004FE6  50		     2C 		PUSH EAX
 00004FE7  A1 00000CB0 R     2C 			MOV EAX, UserCurrLevel
 00004FEC  89 83 00000859 R  2C 			MOV UserSoldiers[EBX].Level, 	EAX
 00004FF2  58		     2C 		POP EAX
 00004FF3  61		     1C 		POPA
			      C 						SettingSoldierWaitFor	UserSoldiers, ECX, -1
 00004FF4  60		     1C 		PUSHA
 00004FF5  B8 0000002C	     2C 		MOV EAX, (SIZEOF Soldier)
 00004FFA  8B D9	     2C 		MOV EBX, ECX
 00004FFC  F7 E3	     2C 		MUL EBX
 00004FFE  8B D8	     2C 		MOV EBX, EAX
 00005000  50		     2C 		PUSH EAX
 00005001  B8 FFFFFFFF	     2C 			MOV EAX, -1
 00005006  89 83 00000869 R  2C 			MOV UserSoldiers[EBX].WaitFor, 	EAX
 0000500C  58		     2C 		POP EAX
 0000500D  61		     1C 		POPA
			      C 						SettingSoldierAttackTo	UserSoldiers, ECX, -1
 0000500E  60		     1C 		PUSHA
 0000500F  B8 0000002C	     2C 		MOV EAX, (SIZEOF Soldier)
 00005014  8B D9	     2C 		MOV EBX, ECX
 00005016  F7 E3	     2C 		MUL EBX
 00005018  8B D8	     2C 		MOV EBX, EAX
 0000501A  50		     2C 		PUSH EAX
 0000501B  B8 FFFFFFFF	     2C 			MOV EAX, -1
 00005020  89 83 0000086D R  2C 			MOV UserSoldiers[EBX].AttackTo, 	EAX
 00005026  58		     2C 		POP EAX
 00005027  61		     1C 		POPA
			      C 						SettingSoldierState		UserSoldiers, ECX, 0
 00005028  60		     1C 		PUSHA
 00005029  B8 0000002C	     2C 		MOV EAX, (SIZEOF Soldier)
 0000502E  8B D9	     2C 		MOV EBX, ECX
 00005030  F7 E3	     2C 		MUL EBX
 00005032  8B D8	     2C 		MOV EBX, EAX
 00005034  50		     2C 		PUSH EAX
 00005035  B8 00000000	     2C 			MOV EAX, 0
 0000503A  89 83 00000865 R  2C 			MOV UserSoldiers[EBX].State, 	EAX
 00005040  58		     2C 		POP EAX
 00005041  61		     1C 		POPA
			      C 						SettingSoldierInitialHP	UserSoldiers, ECX
 00005042  60		     1C 		PUSHA
 00005043  B8 0000002C	     2C 		MOV EAX, (SIZEOF Soldier)
 00005048  8B D9	     2C 		MOV EBX, ECX
 0000504A  F7 E3	     2C 		MUL EBX
 0000504C  8B D8	     2C 		MOV EBX, EAX
 0000504E  8B 83 0000085D R  2C 		MOV EAX, UserSoldiers[EBX].Arms
 00005054  48		     2C 		DEC EAX
 00005055  BA 0000000C	     2C 		MOV EDX, 12
 0000505A  F7 E2	     2C 		MUL EDX
 0000505C  8B D0	     2C 		MOV EDX, EAX
 0000505E  8B 83 00000859 R  2C 		MOV EAX, UserSoldiers[EBX].Level
 00005064  48		     2C 		DEC EAX
 00005065  C1 E0 02	     2C 		SHL EAX, 2
 00005068  03 C2	     2C 		ADD EAX, EDX
 0000506A  50		     2C 		PUSH EAX
 0000506B  8B 80 00000B99 R  2C 			MOV EAX, Soldier_HP[EAX]
 00005071  89 83 00000849 R  2C 			MOV UserSoldiers[EBX].HP, 	EAX
 00005077  58		     2C 		POP EAX
 00005078  61		     1C 		POPA
			      C 						SettingSoldierAttack	UserSoldiers, ECX
 00005079  60		     1C 		PUSHA
 0000507A  B8 0000002C	     2C 		MOV EAX, (SIZEOF Soldier)
 0000507F  8B D9	     2C 		MOV EBX, ECX
 00005081  F7 E3	     2C 		MUL EBX
 00005083  8B D8	     2C 		MOV EBX, EAX
 00005085  8B 83 0000085D R  2C 		MOV EAX, UserSoldiers[EBX].Arms
 0000508B  48		     2C 		DEC EAX
 0000508C  BA 0000000C	     2C 		MOV EDX, 12
 00005091  F7 E2	     2C 		MUL EDX
 00005093  8B D0	     2C 		MOV EDX, EAX
 00005095  8B 83 00000859 R  2C 		MOV EAX, UserSoldiers[EBX].Level
 0000509B  48		     2C 		DEC EAX
 0000509C  C1 E0 02	     2C 		SHL EAX, 2
 0000509F  03 C2	     2C 		ADD EAX, EDX
 000050A1  50		     2C 		PUSH EAX
 000050A2  8B 80 00000BBD R  2C 			MOV EAX, Soldier_Attack[EAX]
 000050A8  89 83 00000855 R  2C 			MOV UserSoldiers[EBX].ATK, 	EAX
 000050AE  58		     2C 		POP EAX
 000050AF  61		     1C 		POPA
 000050B0  61		      C 						POPA
			      C 						RET
			      C 					.ENDIF
			      C 					NextInc 8, FindUser
 000050B5  41		     1C 		INC ECX
 000050B6  83 F9 08	     1C 		CMP ECX, 8
 000050B9  0F 8C FFFFFE9D    1C 		JL FindUser
			      C 			.ELSEIF (League == 1)
			      C 				LoopTimes 0
 000050CE  B9 00000000	     1C 		MOV 	ECX,	0
 000050D3		      C 				FindComp:
			      C 					ObjectOffset ECX
 000050D3  B8 0000002C	     1C 		MOV EAX, (SIZEOF Soldier)
 000050D8  8B D9	     1C 		MOV EBX, ECX
 000050DA  F7 E3	     1C 		MUL EBX
 000050DC  8B D8	     1C 		MOV EBX, EAX
			      C 					.IF (CompSoldiers[EBX].Alive == 0)
			      C 						SettingSoldierAlive		CompSoldiers, ECX, 1
 000050EB  60		     1C 		PUSHA
 000050EC  B8 0000002C	     2C 		MOV EAX, (SIZEOF Soldier)
 000050F1  8B D9	     2C 		MOV EBX, ECX
 000050F3  F7 E3	     2C 		MUL EBX
 000050F5  8B D8	     2C 		MOV EBX, EAX
 000050F7  50		     2C 		PUSH EAX
 000050F8  B8 00000001	     2C 			MOV EAX, 1
 000050FD  89 83 000009D1 R  2C 			MOV CompSoldiers[EBX].Alive, 	EAX
 00005103  58		     2C 		POP EAX
 00005104  61		     1C 		POPA
			      C 						SettingSoldierArms 		CompSoldiers, ECX, Arms
 00005105  60		     1C 		PUSHA
 00005106  B8 0000002C	     2C 		MOV EAX, (SIZEOF Soldier)
 0000510B  8B D9	     2C 		MOV EBX, ECX
 0000510D  F7 E3	     2C 		MUL EBX
 0000510F  8B D8	     2C 		MOV EBX, EAX
 00005111  50		     2C 		PUSH EAX
 00005112  8B 45 0C	     2C 			MOV EAX, Arms
 00005115  89 83 000009BD R  2C 			MOV CompSoldiers[EBX].Arms, 	EAX
 0000511B  58		     2C 		POP EAX
 0000511C  61		     1C 		POPA
			      C 						SettingSoldierX	 		CompSoldiers, ECX, 100
 0000511D  60		     1C 		PUSHA
 0000511E  B8 0000002C	     2C 		MOV EAX, (SIZEOF Soldier)
 00005123  8B D9	     2C 		MOV EBX, ECX
 00005125  F7 E3	     2C 		MUL EBX
 00005127  8B D8	     2C 		MOV EBX, EAX
 00005129  50		     2C 		PUSH EAX
 0000512A  B8 00000064	     2C 			MOV EAX, 100
 0000512F  89 83 000009AD R  2C 			MOV CompSoldiers[EBX].X, 	EAX
 00005135  58		     2C 		POP EAX
 00005136  61		     1C 		POPA
			      C 						SettingSoldierLeague	CompSoldiers, ECX, 1
 00005137  60		     1C 		PUSHA
 00005138  B8 0000002C	     2C 		MOV EAX, (SIZEOF Soldier)
 0000513D  8B D9	     2C 		MOV EBX, ECX
 0000513F  F7 E3	     2C 		MUL EBX
 00005141  8B D8	     2C 		MOV EBX, EAX
 00005143  50		     2C 		PUSH EAX
 00005144  B8 00000001	     2C 			MOV EAX, 1
 00005149  89 83 000009C1 R  2C 			MOV CompSoldiers[EBX].League, 	EAX
 0000514F  58		     2C 		POP EAX
 00005150  61		     1C 		POPA
			      C 						SettingSoldierLevel		CompSoldiers, ECX, CompCurrLevel
 00005151  60		     1C 		PUSHA
 00005152  B8 0000002C	     2C 		MOV EAX, (SIZEOF Soldier)
 00005157  8B D9	     2C 		MOV EBX, ECX
 00005159  F7 E3	     2C 		MUL EBX
 0000515B  8B D8	     2C 		MOV EBX, EAX
 0000515D  50		     2C 		PUSH EAX
 0000515E  A1 00000CB4 R     2C 			MOV EAX, CompCurrLevel
 00005163  89 83 000009B9 R  2C 			MOV CompSoldiers[EBX].Level, 	EAX
 00005169  58		     2C 		POP EAX
 0000516A  61		     1C 		POPA
			      C 						SettingSoldierWaitFor	CompSoldiers, ECX, -1
 0000516B  60		     1C 		PUSHA
 0000516C  B8 0000002C	     2C 		MOV EAX, (SIZEOF Soldier)
 00005171  8B D9	     2C 		MOV EBX, ECX
 00005173  F7 E3	     2C 		MUL EBX
 00005175  8B D8	     2C 		MOV EBX, EAX
 00005177  50		     2C 		PUSH EAX
 00005178  B8 FFFFFFFF	     2C 			MOV EAX, -1
 0000517D  89 83 000009C9 R  2C 			MOV CompSoldiers[EBX].WaitFor, 	EAX
 00005183  58		     2C 		POP EAX
 00005184  61		     1C 		POPA
			      C 						SettingSoldierAttackTo	CompSoldiers, ECX, -1
 00005185  60		     1C 		PUSHA
 00005186  B8 0000002C	     2C 		MOV EAX, (SIZEOF Soldier)
 0000518B  8B D9	     2C 		MOV EBX, ECX
 0000518D  F7 E3	     2C 		MUL EBX
 0000518F  8B D8	     2C 		MOV EBX, EAX
 00005191  50		     2C 		PUSH EAX
 00005192  B8 FFFFFFFF	     2C 			MOV EAX, -1
 00005197  89 83 000009CD R  2C 			MOV CompSoldiers[EBX].AttackTo, 	EAX
 0000519D  58		     2C 		POP EAX
 0000519E  61		     1C 		POPA
			      C 						SettingSoldierState		CompSoldiers, ECX, 0
 0000519F  60		     1C 		PUSHA
 000051A0  B8 0000002C	     2C 		MOV EAX, (SIZEOF Soldier)
 000051A5  8B D9	     2C 		MOV EBX, ECX
 000051A7  F7 E3	     2C 		MUL EBX
 000051A9  8B D8	     2C 		MOV EBX, EAX
 000051AB  50		     2C 		PUSH EAX
 000051AC  B8 00000000	     2C 			MOV EAX, 0
 000051B1  89 83 000009C5 R  2C 			MOV CompSoldiers[EBX].State, 	EAX
 000051B7  58		     2C 		POP EAX
 000051B8  61		     1C 		POPA
			      C 						SettingSoldierInitialHP	CompSoldiers, ECX
 000051B9  60		     1C 		PUSHA
 000051BA  B8 0000002C	     2C 		MOV EAX, (SIZEOF Soldier)
 000051BF  8B D9	     2C 		MOV EBX, ECX
 000051C1  F7 E3	     2C 		MUL EBX
 000051C3  8B D8	     2C 		MOV EBX, EAX
 000051C5  8B 83 000009BD R  2C 		MOV EAX, CompSoldiers[EBX].Arms
 000051CB  48		     2C 		DEC EAX
 000051CC  BA 0000000C	     2C 		MOV EDX, 12
 000051D1  F7 E2	     2C 		MUL EDX
 000051D3  8B D0	     2C 		MOV EDX, EAX
 000051D5  8B 83 000009B9 R  2C 		MOV EAX, CompSoldiers[EBX].Level
 000051DB  48		     2C 		DEC EAX
 000051DC  C1 E0 02	     2C 		SHL EAX, 2
 000051DF  03 C2	     2C 		ADD EAX, EDX
 000051E1  50		     2C 		PUSH EAX
 000051E2  8B 80 00000B99 R  2C 			MOV EAX, Soldier_HP[EAX]
 000051E8  89 83 000009A9 R  2C 			MOV CompSoldiers[EBX].HP, 	EAX
 000051EE  58		     2C 		POP EAX
 000051EF  61		     1C 		POPA
			      C 						SettingSoldierAttack	CompSoldiers, ECX
 000051F0  60		     1C 		PUSHA
 000051F1  B8 0000002C	     2C 		MOV EAX, (SIZEOF Soldier)
 000051F6  8B D9	     2C 		MOV EBX, ECX
 000051F8  F7 E3	     2C 		MUL EBX
 000051FA  8B D8	     2C 		MOV EBX, EAX
 000051FC  8B 83 000009BD R  2C 		MOV EAX, CompSoldiers[EBX].Arms
 00005202  48		     2C 		DEC EAX
 00005203  BA 0000000C	     2C 		MOV EDX, 12
 00005208  F7 E2	     2C 		MUL EDX
 0000520A  8B D0	     2C 		MOV EDX, EAX
 0000520C  8B 83 000009B9 R  2C 		MOV EAX, CompSoldiers[EBX].Level
 00005212  48		     2C 		DEC EAX
 00005213  C1 E0 02	     2C 		SHL EAX, 2
 00005216  03 C2	     2C 		ADD EAX, EDX
 00005218  50		     2C 		PUSH EAX
 00005219  8B 80 00000BBD R  2C 			MOV EAX, Soldier_Attack[EAX]
 0000521F  89 83 000009B5 R  2C 			MOV CompSoldiers[EBX].ATK, 	EAX
 00005225  58		     2C 		POP EAX
 00005226  61		     1C 		POPA
 00005227  61		      C 						POPA
			      C 						RET
			      C 					.ENDIF
			      C 					NextInc 8,	FindComp
 0000522C  41		     1C 		INC ECX
 0000522D  83 F9 08	     1C 		CMP ECX, 8
 00005230  0F 8C FFFFFE9D    1C 		JL FindComp
			      C 			.ENDIF
 00005236  61		      C 		POPA
			      C 		RET
 0000523B		      C 	FindUsableSoldier ENDP
			      C 
			      C 
					INCLUDE	Function.inc
			      C ;	Version 3
 00000DD9		      C .Data
			      C 
			      C 	LevelUpCheck MACRO
			      C 		.IF( UserLevelUpFlag == 1)
			      C 			INC UserCurrLevel
			      C 			CopyFrom UserLevelUpFlag, 0
			      C 		.ENDIF
			      C 		.IF( CompLevelUpFlag == 1)
			      C 			INC CompCurrLevel
			      C 			CopyFrom CompLevelUpFlag, 0
			      C 		.ENDIF
			      C 
			      C 		ENDM
			      C 
 00000DD9 00000000	      C 	CanBuildCallBack	DWORD 0
			      C 	KeyHandler MACRO
			      C 		PUSHA
			      C 			MOV EAX, 0
			      C 			Call ReadKey
			      C 			.IF( AL == 'Q' || AL == 'q' )
			      C 				;BuildUserSoldierA
			      C 				TakeMoney	1,	UserCurrLevel, CanBuildCallBack
			      C 				.IF( CanBuildCallBack == 1 )
			      C 					BuildSoldierBufferTime 	0,	1
			      C 				.ENDIF
			      C 			.ELSEIF( AL == 'W' || AL == 'w')
			      C 				;BuildUserSoldierB
			      C 				TakeMoney	2,	UserCurrLevel, CanBuildCallBack
			      C 				.IF( CanBuildCallBack == 1 )
			      C 					BuildSoldierBufferTime 	0,	2
			      C 				.ENDIF
			      C 			.ELSEIF( AL == 'E' || AL == 'e')
			      C 				;BuildUserSoldierC
			      C 				TakeMoney	3, UserCurrLevel, CanBuildCallBack
			      C 				.IF( CanBuildCallBack == 1 )
			      C 					BuildSoldierBufferTime 	0,	3
			      C 				.ENDIF
			      C 
			      C 			.ELSEIF( AL == 'I' || AL == 'i')
			      C 				BuildCompSoldierA
			      C 				;BuildSoldierBufferTime 	1, 1
			      C 			.ELSEIF( AL == 'O' || AL == 'o')
			      C 				BuildCompSoldierB
			      C 				;BuildSoldierBufferTime 	1, 2
			      C 			.ELSEIF( AL == 'P' || AL == 'p')
			      C 				BuildCompSoldierC
			      C 				;BuildSoldierBufferTime 	1, 3
			      C 
			      C 
			      C 			.ELSEIF( AL == 'Z' || AL == 'z')
			      C 				.IF( UserCurrLevel < 3)
			      C 					.IF( UserCurrLevel == 1 )
			      C 						.IF( UserMoney > 1000)
			      C 							CopyFrom UserLevelUpFlag, 1
			      C 						.ELSE
			      C 							CopyFrom EnoughTimer, 1
			      C 							SettingColor Gray
			      C 							Key_Z
			      C 							DefaultColor
			      C 						.ENDIF
			      C 					.ELSEIF( UserCurrLevel == 2 )
			      C 						.IF( UserMoney > 3000)
			      C 							CopyFrom UserLevelUpFlag, 1
			      C 						.ELSE
			      C 							CopyFrom EnoughTimer, 1
			      C 							SettingColor Gray
			      C 							Key_Z
			      C 							DefaultColor
			      C 						.ENDIF
			      C 					.ELSEIF( UserCurrLevel == 3 )
			      C 						.IF( UserMoney > 5000 )
			      C 							CopyFrom UserLevelUpFlag, 1
			      C 						.ELSE
			      C 							CopyFrom EnoughTimer, 1
			      C 							SettingColor Black
			      C 							Key_Z
			      C 							DefaultColor
			      C 						.ENDIF
			      C 					.ENDIF
			      C 				.ENDIF
			      C 			.ELSEIF( AL == 'X' || AL == 'x')
			      C 				.IF( CompCurrLevel < 3)
			      C 					CopyFrom CompLevelUpFlag, 1
			      C 				.ENDIF
			      C 			.ENDIF
			      C 		POPA
			      C 		ENDM
			      C 
			      C 
			      C ;;;;;;;;;;;;;;;;;;;;;;;;;;;;;;;;
			      C ;;;;						;;;;
			      C ;;;;		Dialog 	 		;;;;
			      C ;;;;						;;;;
			      C ;;;;;;;;;;;;;;;;;;;;;;;;;;;;;;;;
			      C 
 00000DDD		      C .Data
			      C 
			      C 
 00000DDD 47 72 65 65 74      C 	Dialog_Example_1	DB "Greetings , warrior ! ",0
	   69 6E 67 73 20
	   2C 20 77 61 72
	   72 69 6F 72 20
	   21 20 00
 00000DF4 54 68 61 6E 6B      C 	Dialog_Example_2	DB "Thank you for accepting this task to protect Atlantis.",0
	   20 79 6F 75 20
	   66 6F 72 20 61
	   63 63 65 70 74
	   69 6E 67 20 74
	   68 69 73 20 74
	   61 73 6B 20 74
	   6F 20 70 72 6F
	   74 65 63 74 20
	   41 74 6C 61 6E
	   74 69 73 2E 00
 00000E2B 4E 6F 77 2C 00      C 	Dialog_Example_3	DB "Now,",0
 00000E30 57 65 20 61 72      C 	Dialog_Example_4	DB "We are attacked by those who long for treasure of Atlantis.",0
	   65 20 61 74 74
	   61 63 6B 65 64
	   20 62 79 20 74
	   68 6F 73 65 20
	   77 68 6F 20 6C
	   6F 6E 67 20 66
	   6F 72 20 74 72
	   65 61 73 75 72
	   65 20 6F 66 20
	   41 74 6C 61 6E
	   74 69 73 2E 00
 00000E6C 50 6C 65 61 73      C 	Dialog_Example_5	DB "Please fight with us side by side and bring the victory.",0
	   65 20 66 69 67
	   68 74 20 77 69
	   74 68 20 75 73
	   20 73 69 64 65
	   20 62 79 20 73
	   69 64 65 20 61
	   6E 64 20 62 72
	   69 6E 67 20 74
	   68 65 20 76 69
	   63 74 6F 72 79
	   2E 00
			      C 
			      C 	Introduce MACRO
			      C 		DrawCastle	 	0, 0
			      C 		DrawCastle		1, 103
			      C 
			      C 		Dialog 	Dialog_Example_1
			      C 		Dialog 	Dialog_Example_2
			      C 		Dialog 	Dialog_Example_3
			      C 		Dialog 	Dialog_Example_4
			      C 		Dialog 	Dialog_Example_5
			      C 
			      C 
			      C 		ENDM
			      C 	Dialog 	MACRO 	String
			      C 		PUSHAD
			      C 			WriteSAtCenter	60,	23,	String
			      C 			AnyKeyToContinue
			      C 			SettingColor	Black
			      C 			WriteSAtCenter	60,	23,	String
			      C 			DefaultColor
			      C 			Translate 0,0
			      C 		POPAD
			      C 		ENDM
			      C 
			      C ;;;;;;;;;;;;;;;;;;;;;;;;;;;;;;;;
			      C ;;;;						;;;;
			      C ;;;;		Moving 	 		;;;;
			      C ;;;;						;;;;
			      C ;;;;;;;;;;;;;;;;;;;;;;;;;;;;;;;;
 00000EA5		      C .Data
			      C 	MOVE MACRO Object, ID, AddX, AddY
			      C 		ObjectOffset ID
			      C 		.IF Object[EBX].League == 0
			      C 			INC Object[EBX].X
			      C 		.ELSE
			      C 			DEC Object[EBX].X
			      C 		.ENDIF
			      C 		AddBy Object[EBX].Y, AddY
			      C 		ENDM
 = CALL MoveingSoldiers	      C 	MoveOnSoldiers EQU	<CALL MoveingSoldiers>
 00000EA5 00000000	      C 	CurrentID 		DWORD 	?
 00000EA9 00000000	      C 	CollisionCurrID	DWORD	?
 00000EAD 00000000	      C 	WaitCheckCurrID	DWORD	?
 0000523B		      C .Code
 0000523B		      C 	MoveingSoldiers PROC
			      C 		LoopTimes 0
 0000523B  B9 00000000	     1C 		MOV 	ECX,	0
 00005240		      C 		MUS:
			      C 			ObjectOffset ECX
 00005240  B8 0000002C	     1C 		MOV EAX, (SIZEOF Soldier)
 00005245  8B D9	     1C 		MOV EBX, ECX
 00005247  F7 E3	     1C 		MUL EBX
 00005249  8B D8	     1C 		MOV EBX, EAX
			      C 			CopyFrom 	CurrentID,	ECX
 0000524B  50		     1C 		PUSH EAX
 0000524C  8B C1	     1C 			MOV EAX, ECX
 0000524E  A3 00000EA5 R     1C 			MOV CurrentID, 	EAX
 00005253  58		     1C 		POP EAX
			      C 			.IF UserSoldiers[EBX].Alive == 1
			      C 				CastleAttackCheck UserSoldiers, CurrentID
 00005261  60		     1C 	PUSHAD
 00005262  B8 0000002C	     2C 		MOV EAX, (SIZEOF Soldier)
 00005267  8B 1D 00000EA5 R  2C 		MOV EBX, CurrentID
 0000526D  F7 E3	     2C 		MUL EBX
 0000526F  8B D8	     2C 		MOV EBX, EAX
 0000527A  60		     2C 		PUSHA
 0000527B  B8 0000002C	     3C 		MOV EAX, (SIZEOF Soldier)
 00005280  8B 1D 00000EA5 R  3C 		MOV EBX, CurrentID
 00005286  F7 E3	     3C 		MUL EBX
 00005288  8B D8	     3C 		MOV EBX, EAX
 0000528A  50		     3C 		PUSH EAX
 0000528B  8B 83 0000084D R  3C 			MOV EAX, UserSoldiers[EBX].X
 00005291  A3 00000CA4 R     3C 			MOV GetterHandler, 	EAX
 00005296  58		     3C 		POP EAX
 00005297  61		     2C 		POPA
 000052A1  60		     2C 		PUSHA
 000052A2  B8 0000002C	     3C 		MOV EAX, (SIZEOF Soldier)
 000052A7  8B 1D 00000EA5 R  3C 		MOV EBX, CurrentID
 000052AD  F7 E3	     3C 		MUL EBX
 000052AF  8B D8	     3C 		MOV EBX, EAX
 000052B1  50		     3C 		PUSH EAX
 000052B2  B8 00000008	     3C 			MOV EAX, 8
 000052B7  89 83 0000086D R  3C 			MOV UserSoldiers[EBX].AttackTo, 	EAX
 000052BD  58		     3C 		POP EAX
 000052BE  61		     2C 		POPA
 000052C1  60		     2C 		PUSHA
 000052C2  B8 0000002C	     3C 		MOV EAX, (SIZEOF Soldier)
 000052C7  8B 1D 00000EA5 R  3C 		MOV EBX, CurrentID
 000052CD  F7 E3	     3C 		MUL EBX
 000052CF  8B D8	     3C 		MOV EBX, EAX
 000052D1  50		     3C 		PUSH EAX
 000052D2  8B 83 000009AD R  3C 			MOV EAX, CompSoldiers[EBX].X
 000052D8  A3 00000CA4 R     3C 			MOV GetterHandler, 	EAX
 000052DD  58		     3C 		POP EAX
 000052DE  61		     2C 		POPA
 000052E8  60		     2C 		PUSHA
 000052E9  B8 0000002C	     3C 		MOV EAX, (SIZEOF Soldier)
 000052EE  8B 1D 00000EA5 R  3C 		MOV EBX, CurrentID
 000052F4  F7 E3	     3C 		MUL EBX
 000052F6  8B D8	     3C 		MOV EBX, EAX
 000052F8  50		     3C 		PUSH EAX
 000052F9  B8 00000008	     3C 			MOV EAX, 8
 000052FE  89 83 000009CD R  3C 			MOV CompSoldiers[EBX].AttackTo, 	EAX
 00005304  58		     3C 		POP EAX
 00005305  61		     2C 		POPA
 00005306  61		     1C 	POPAD
			      C 				.IF( UserSoldiers[EBX].AttackTo == -1 )
			      C 					.IF ( UserSoldiers[EBX].WaitFor == -1 )
			      C 						MOVE 		UserSoldiers, 	CurrentID, 1, 0
 0000531D  B8 0000002C	     2C 		MOV EAX, (SIZEOF Soldier)
 00005322  8B 1D 00000EA5 R  2C 		MOV EBX, CurrentID
 00005328  F7 E3	     2C 		MUL EBX
 0000532A  8B D8	     2C 		MOV EBX, EAX
 00005335  FF 83 0000084D R  1C 			INC UserSoldiers[EBX].X
 0000533D  FF 8B 0000084D R  1C 			DEC UserSoldiers[EBX].X
 00005343  50		     2C 		PUSH EAX
 00005344  B8 00000000	     2C 			MOV EAX, 0
 00005349  01 83 00000851 R  2C 			ADD UserSoldiers[EBX].Y, 	EAX
 0000534F  58		     2C 		POP EAX
			      C 					.ENDIF
			      C 					UserWaitStackCheck	CurrentID
 00005350  60		     1C 	PUSHA
 00005351  60		     2C 		PUSHA
 00005352  B8 0000002C	     3C 		MOV EAX, (SIZEOF Soldier)
 00005357  8B 1D 00000EA5 R  3C 		MOV EBX, CurrentID
 0000535D  F7 E3	     3C 		MUL EBX
 0000535F  8B D8	     3C 		MOV EBX, EAX
 00005361  50		     3C 		PUSH EAX
 00005362  B8 FFFFFFFF	     3C 			MOV EAX, -1
 00005367  89 83 00000869 R  3C 			MOV UserSoldiers[EBX].WaitFor, 	EAX
 0000536D  58		     3C 		POP EAX
 0000536E  61		     2C 		POPA
 0000536F  B9 00000000	     2C 		MOV 	ECX,	0
 00005374		     1C 		UserWattingChecking:
 00005374  B8 0000002C	     2C 		MOV EAX, (SIZEOF Soldier)
 00005379  8B D9	     2C 		MOV EBX, ECX
 0000537B  F7 E3	     2C 		MUL EBX
 0000537D  8B D8	     2C 		MOV EBX, EAX
 00005398  60		     2C 	PUSHA
 00005399  BA 00000000	     2C 		MOV EDX,	0
 000053A2  60		     3C 		PUSHA
 000053A3  B8 0000002C	     4C 		MOV EAX, (SIZEOF Soldier)
 000053A8  8B 1D 00000EA5 R  4C 		MOV EBX, CurrentID
 000053AE  F7 E3	     4C 		MUL EBX
 000053B0  8B D8	     4C 		MOV EBX, EAX
 000053B2  50		     4C 		PUSH EAX
 000053B3  8B 83 0000084D R  4C 			MOV EAX, UserSoldiers[EBX].X
 000053B9  A3 00000D99 R     4C 			MOV Collision_A_X, 	EAX
 000053BE  58		     4C 		POP EAX
 000053BF  61		     3C 		POPA
 000053C0  60		     3C 		PUSHA
 000053C1  B8 0000002C	     4C 		MOV EAX, (SIZEOF Soldier)
 000053C6  8B D9	     4C 		MOV EBX, ECX
 000053C8  F7 E3	     4C 		MUL EBX
 000053CA  8B D8	     4C 		MOV EBX, EAX
 000053CC  50		     4C 		PUSH EAX
 000053CD  8B 83 0000084D R  4C 			MOV EAX, UserSoldiers[EBX].X
 000053D3  A3 00000D9D R     4C 			MOV Collision_B_X, 	EAX
 000053D8  58		     4C 		POP EAX
 000053D9  61		     3C 		POPA
 000053DC  60		     3C 		PUSHA
 000053DD  B8 0000002C	     4C 		MOV EAX, (SIZEOF Soldier)
 000053E2  8B 1D 00000EA5 R  4C 		MOV EBX, CurrentID
 000053E8  F7 E3	     4C 		MUL EBX
 000053EA  8B D8	     4C 		MOV EBX, EAX
 000053EC  50		     4C 		PUSH EAX
 000053ED  8B 83 000009AD R  4C 			MOV EAX, CompSoldiers[EBX].X
 000053F3  A3 00000D99 R     4C 			MOV Collision_A_X, 	EAX
 000053F8  58		     4C 		POP EAX
 000053F9  61		     3C 		POPA
 000053FA  60		     3C 		PUSHA
 000053FB  B8 0000002C	     4C 		MOV EAX, (SIZEOF Soldier)
 00005400  8B D9	     4C 		MOV EBX, ECX
 00005402  F7 E3	     4C 		MUL EBX
 00005404  8B D8	     4C 		MOV EBX, EAX
 00005406  50		     4C 		PUSH EAX
 00005407  8B 83 000009AD R  4C 			MOV EAX, CompSoldiers[EBX].X
 0000540D  A3 00000D9D R     4C 			MOV Collision_B_X, 	EAX
 00005412  58		     4C 		POP EAX
 00005413  61		     3C 		POPA
 00005414  A1 00000D99 R     2C 		MOV		EAX,	Collision_A_X
 00005419  8B 1D 00000D9D R  2C 		MOV		EBX,	Collision_B_X
 0000543B  50		     3C 		PUSH EAX
 0000543C  8B C3	     3C 			MOV EAX, EBX
 0000543E  A3 00000CA0 R     3C 			MOV SetterBuffer, 	EAX
 00005443  58		     3C 		POP EAX
 00005444  29 05 00000CA0 R  2C 			SUB 		SetterBuffer, 	EAX
 0000544A  60		     3C 		PUSHA
 0000544B  B8 0000002C	     4C 		MOV EAX, (SIZEOF Soldier)
 00005450  8B 1D 00000EA5 R  4C 		MOV EBX, CurrentID
 00005456  F7 E3	     4C 		MUL EBX
 00005458  8B D8	     4C 		MOV EBX, EAX
 0000545A  8B 83 0000085D R  4C 		MOV EAX, UserSoldiers[EBX].Arms
 00005460  48		     4C 		DEC EAX
 00005461  BA 0000000C	     4C 		MOV EDX, 12
 00005466  F7 E2	     4C 		MUL EDX
 00005468  8B D0	     4C 		MOV EDX, EAX
 0000546A  8B 83 00000859 R  4C 		MOV EAX, UserSoldiers[EBX].Level
 00005470  48		     4C 		DEC EAX
 00005471  C1 E0 02	     4C 		SHL EAX, 2
 00005474  03 C2	     4C 		ADD EAX, EDX
 0000547F  50		     4C 		PUSH EAX
 00005480  8B 80 00000B2D R  4C 			MOV EAX, UserSoldier_Width[EAX]
 00005486  A3 00000CA4 R     4C 			MOV GetterHandler, 	EAX
 0000548B  58		     4C 		POP EAX
 0000548E  50		     4C 		PUSH EAX
 0000548F  8B 80 00000B75 R  4C 			MOV EAX, CompSoldier_Width[EAX]
 00005495  A3 00000CA4 R     4C 			MOV GetterHandler, 	EAX
 0000549A  58		     4C 		POP EAX
 0000549B  61		     3C 		POPA
 0000549C  8B 0D 00000CA4 R  2C 			MOV ECX, GetterHandler
 000054AA  60		     3C 		PUSHA
 000054AB  B8 0000002C	     4C 		MOV EAX, (SIZEOF Soldier)
 000054B0  8B 1D 00000EA5 R  4C 		MOV EBX, CurrentID
 000054B6  F7 E3	     4C 		MUL EBX
 000054B8  8B D8	     4C 		MOV EBX, EAX
 000054BA  50		     4C 		PUSH EAX
 000054BB  8B C1	     4C 			MOV EAX, ECX
 000054BD  89 83 00000869 R  4C 			MOV UserSoldiers[EBX].WaitFor, 	EAX
 000054C3  58		     4C 		POP EAX
 000054C4  61		     3C 		POPA
 000054C5  50		     3C 		PUSH EAX
 000054C6  B8 00000001	     3C 			MOV EAX, 1
 000054CB  A3 00000CA4 R     3C 			MOV GetterHandler, 	EAX
 000054D0  58		     3C 		POP EAX
 000054D6  50		     3C 		PUSH EAX
 000054D7  B8 00000000	     3C 			MOV EAX, 0
 000054DC  A3 00000CA4 R     3C 			MOV GetterHandler, 	EAX
 000054E1  58		     3C 		POP EAX
 00005504  50		     3C 		PUSH EAX
 00005505  8B C0	     3C 			MOV EAX, EAX
 00005507  A3 00000CA0 R     3C 			MOV SetterBuffer, 	EAX
 0000550C  58		     3C 		POP EAX
 0000550D  29 1D 00000CA0 R  2C 			SUB 		SetterBuffer, 	EBX
 00005513  60		     3C 		PUSHA
 00005514  B8 0000002C	     4C 		MOV EAX, (SIZEOF Soldier)
 00005519  8B 1D 00000EA5 R  4C 		MOV EBX, CurrentID
 0000551F  F7 E3	     4C 		MUL EBX
 00005521  8B D8	     4C 		MOV EBX, EAX
 00005523  8B 83 000009BD R  4C 		MOV EAX, CompSoldiers[EBX].Arms
 00005529  48		     4C 		DEC EAX
 0000552A  BA 0000000C	     4C 		MOV EDX, 12
 0000552F  F7 E2	     4C 		MUL EDX
 00005531  8B D0	     4C 		MOV EDX, EAX
 00005533  8B 83 000009B9 R  4C 		MOV EAX, CompSoldiers[EBX].Level
 00005539  48		     4C 		DEC EAX
 0000553A  C1 E0 02	     4C 		SHL EAX, 2
 0000553D  03 C2	     4C 		ADD EAX, EDX
 00005548  50		     4C 		PUSH EAX
 00005549  8B 80 00000B2D R  4C 			MOV EAX, UserSoldier_Width[EAX]
 0000554F  A3 00000CA4 R     4C 			MOV GetterHandler, 	EAX
 00005554  58		     4C 		POP EAX
 00005557  50		     4C 		PUSH EAX
 00005558  8B 80 00000B75 R  4C 			MOV EAX, CompSoldier_Width[EAX]
 0000555E  A3 00000CA4 R     4C 			MOV GetterHandler, 	EAX
 00005563  58		     4C 		POP EAX
 00005564  61		     3C 		POPA
 00005565  8B 0D 00000CA4 R  2C 			MOV ECX, GetterHandler
 00005573  60		     3C 		PUSHA
 00005574  B8 0000002C	     4C 		MOV EAX, (SIZEOF Soldier)
 00005579  8B 1D 00000EA5 R  4C 		MOV EBX, CurrentID
 0000557F  F7 E3	     4C 		MUL EBX
 00005581  8B D8	     4C 		MOV EBX, EAX
 00005583  50		     4C 		PUSH EAX
 00005584  8B C1	     4C 			MOV EAX, ECX
 00005586  89 83 000009C9 R  4C 			MOV CompSoldiers[EBX].WaitFor, 	EAX
 0000558C  58		     4C 		POP EAX
 0000558D  61		     3C 		POPA
 0000558E  50		     3C 		PUSH EAX
 0000558F  B8 00000001	     3C 			MOV EAX, 1
 00005594  A3 00000CA4 R     3C 			MOV GetterHandler, 	EAX
 00005599  58		     3C 		POP EAX
 0000559C  50		     3C 		PUSH EAX
 0000559D  B8 00000000	     3C 			MOV EAX, 0
 000055A2  A3 00000CA4 R     3C 			MOV GetterHandler, 	EAX
 000055A7  58		     3C 		POP EAX
 000055A8  61		     2C 	POPA
 000055B2  41		     2C 		INC ECX
 000055B3  83 F9 07	     2C 		CMP ECX, 7
 000055B6  0F 8C FFFFFDB8    2C 		JL UserWattingChecking
 000055BC  61		     1C 	POPA
			      C 					CollisionCheck	 	CurrentID
 000055BD  60		     1C 	PUSHA
 000055BE  B8 0000002C	     2C 		MOV EAX, (SIZEOF Soldier)
 000055C3  8B 1D 00000EA5 R  2C 		MOV EBX, CurrentID
 000055C9  F7 E3	     2C 		MUL EBX
 000055CB  8B D8	     2C 		MOV EBX, EAX
 000055DA  B9 00000000	     2C 		MOV 	ECX,	0
 000055DF		     1C 			CollisionChecking:
 000055DF  50		     2C 		PUSH EAX
 000055E0  8B C1	     2C 			MOV EAX, ECX
 000055E2  A3 00000DA1 R     2C 			MOV Collision_Check_ID, 	EAX
 000055E7  58		     2C 		POP EAX
 000055E8  B8 0000002C	     2C 		MOV EAX, (SIZEOF Soldier)
 000055ED  8B 1D 00000DA1 R  2C 		MOV EBX, Collision_Check_ID
 000055F3  F7 E3	     2C 		MUL EBX
 000055F5  8B D8	     2C 		MOV EBX, EAX
 00005604  60		     2C 	PUSHA
 00005605  60		     3C 		PUSHA
 00005606  B8 0000002C	     4C 		MOV EAX, (SIZEOF Soldier)
 0000560B  8B 1D 00000EA5 R  4C 		MOV EBX, CurrentID
 00005611  F7 E3	     4C 		MUL EBX
 00005613  8B D8	     4C 		MOV EBX, EAX
 00005615  50		     4C 		PUSH EAX
 00005616  8B 83 0000084D R  4C 			MOV EAX, UserSoldiers[EBX].X
 0000561C  A3 00000D99 R     4C 			MOV Collision_A_X, 	EAX
 00005621  58		     4C 		POP EAX
 00005622  61		     3C 		POPA
 00005623  60		     3C 		PUSHA
 00005624  B8 0000002C	     4C 		MOV EAX, (SIZEOF Soldier)
 00005629  8B 1D 00000DA1 R  4C 		MOV EBX, Collision_Check_ID
 0000562F  F7 E3	     4C 		MUL EBX
 00005631  8B D8	     4C 		MOV EBX, EAX
 00005633  50		     4C 		PUSH EAX
 00005634  8B 83 000009AD R  4C 			MOV EAX, CompSoldiers[EBX].X
 0000563A  A3 00000D9D R     4C 			MOV Collision_B_X, 	EAX
 0000563F  58		     4C 		POP EAX
 00005640  61		     3C 		POPA
 00005641  A1 00000D99 R     2C 		MOV		EAX,	Collision_A_X
 00005646  8B 1D 00000D9D R  2C 		MOV 	EBX,	Collision_B_X
 0000564C  8B D3	     2C 		MOV 	EDX,	EBX
 0000564E  2B D0	     2C 		SUB 	EDX,	EAX
 00005650  60		     3C 		PUSHA
 00005651  B8 0000002C	     4C 		MOV EAX, (SIZEOF Soldier)
 00005656  8B 1D 00000EA5 R  4C 		MOV EBX, CurrentID
 0000565C  F7 E3	     4C 		MUL EBX
 0000565E  8B D8	     4C 		MOV EBX, EAX
 00005660  8B 83 0000085D R  4C 		MOV EAX, UserSoldiers[EBX].Arms
 00005666  48		     4C 		DEC EAX
 00005667  BA 0000000C	     4C 		MOV EDX, 12
 0000566C  F7 E2	     4C 		MUL EDX
 0000566E  8B D0	     4C 		MOV EDX, EAX
 00005670  8B 83 00000859 R  4C 		MOV EAX, UserSoldiers[EBX].Level
 00005676  48		     4C 		DEC EAX
 00005677  C1 E0 02	     4C 		SHL EAX, 2
 0000567A  03 C2	     4C 		ADD EAX, EDX
 00005685  50		     4C 		PUSH EAX
 00005686  8B 80 00000B2D R  4C 			MOV EAX, UserSoldier_Width[EAX]
 0000568C  A3 00000CA4 R     4C 			MOV GetterHandler, 	EAX
 00005691  58		     4C 		POP EAX
 00005694  50		     4C 		PUSH EAX
 00005695  8B 80 00000B75 R  4C 			MOV EAX, CompSoldier_Width[EAX]
 0000569B  A3 00000CA4 R     4C 			MOV GetterHandler, 	EAX
 000056A0  58		     4C 		POP EAX
 000056A1  61		     3C 		POPA
 000056A2  8B 0D 00000CA4 R  2C 		MOV ECX, GetterHandler
 000056B4  60		     3C 		PUSHA
 000056B5  B8 0000002C	     4C 		MOV EAX, (SIZEOF Soldier)
 000056BA  8B 1D 00000EA5 R  4C 		MOV EBX, CurrentID
 000056C0  F7 E3	     4C 		MUL EBX
 000056C2  8B D8	     4C 		MOV EBX, EAX
 000056C4  50		     4C 		PUSH EAX
 000056C5  A1 00000DA1 R     4C 			MOV EAX, Collision_Check_ID
 000056CA  89 83 0000086D R  4C 			MOV UserSoldiers[EBX].AttackTo, 	EAX
 000056D0  58		     4C 		POP EAX
 000056D1  61		     3C 		POPA
 000056D2  60		     3C 		PUSHA
 000056D3  B8 0000002C	     4C 		MOV EAX, (SIZEOF Soldier)
 000056D8  8B 1D 00000DA1 R  4C 		MOV EBX, Collision_Check_ID
 000056DE  F7 E3	     4C 		MUL EBX
 000056E0  8B D8	     4C 		MOV EBX, EAX
 000056E2  50		     4C 		PUSH EAX
 000056E3  A1 00000EA5 R     4C 			MOV EAX, CurrentID
 000056E8  89 83 000009CD R  4C 			MOV CompSoldiers[EBX].AttackTo, 	EAX
 000056EE  58		     4C 		POP EAX
 000056EF  61		     3C 		POPA
 000056F0  50		     3C 		PUSH EAX
 000056F1  B8 00000001	     3C 			MOV EAX, 1
 000056F6  A3 00000CA4 R     3C 			MOV GetterHandler, 	EAX
 000056FB  58		     3C 		POP EAX
 000056FE  50		     3C 		PUSH EAX
 000056FF  B8 00000000	     3C 			MOV EAX, 0
 00005704  A3 00000CA4 R     3C 			MOV GetterHandler, 	EAX
 00005709  58		     3C 		POP EAX
 0000570A  61		     2C 	POPA
 00005714  41		     2C 		INC ECX
 00005715  83 F9 07	     2C 		CMP ECX, 7
 00005718  0F 8C FFFFFEC1    2C 		JL CollisionChecking
 0000571E  61		     1C 	POPA
			      C 				.ELSEIF( UserSoldiers[EBX].AttackTo != -1 )
			      C 					CopyFrom UserAttackSoldier, CurrentID
 0000572A  50		     1C 		PUSH EAX
 0000572B  A1 00000EA5 R     1C 			MOV EAX, CurrentID
 00005730  A3 00000DA5 R     1C 			MOV UserAttackSoldier, 	EAX
 00005735  58		     1C 		POP EAX
			      C 					CopyFrom UserAttackTarget, UserSoldiers[EBX].AttackTo
 00005736  50		     1C 		PUSH EAX
 00005737  8B 83 0000086D R  1C 			MOV EAX, UserSoldiers[EBX].AttackTo
 0000573D  A3 00000DAD R     1C 			MOV UserAttackTarget, 	EAX
 00005742  58		     1C 		POP EAX
			      C 					.IF UserAttackTimer == 0
			      C 						CopyFrom UserAttackTimer,	1
 0000574C  50		     1C 		PUSH EAX
 0000574D  B8 00000001	     1C 			MOV EAX, 1
 00005752  A3 00000CF0 R     1C 			MOV UserAttackTimer, 	EAX
 00005757  58		     1C 		POP EAX
			      C 					.ENDIF
			      C 				.ENDIF
			      C 			.ENDIF
			      C 			NextInc	8, MUS
 00005758  41		     1C 		INC ECX
 00005759  83 F9 08	     1C 		CMP ECX, 8
 0000575C  0F 8C FFFFFADE    1C 		JL MUS
			      C 		LoopTimes 0
 00005762  B9 00000000	     1C 		MOV 	ECX,	0
 00005767		      C 		MCS:
			      C 			ObjectOffset ECX
 00005767  B8 0000002C	     1C 		MOV EAX, (SIZEOF Soldier)
 0000576C  8B D9	     1C 		MOV EBX, ECX
 0000576E  F7 E3	     1C 		MUL EBX
 00005770  8B D8	     1C 		MOV EBX, EAX
			      C 			CopyFrom 	CurrentID,	ECX
 00005772  50		     1C 		PUSH EAX
 00005773  8B C1	     1C 			MOV EAX, ECX
 00005775  A3 00000EA5 R     1C 			MOV CurrentID, 	EAX
 0000577A  58		     1C 		POP EAX
			      C 			;WaitStackCheck	1,	ECX
			      C 			.IF CompSoldiers[EBX].Alive == 1 
			      C 				CastleAttackCheck CompSoldiers, CurrentID
 00005788  60		     1C 	PUSHAD
 00005789  B8 0000002C	     2C 		MOV EAX, (SIZEOF Soldier)
 0000578E  8B 1D 00000EA5 R  2C 		MOV EBX, CurrentID
 00005794  F7 E3	     2C 		MUL EBX
 00005796  8B D8	     2C 		MOV EBX, EAX
 000057A1  60		     2C 		PUSHA
 000057A2  B8 0000002C	     3C 		MOV EAX, (SIZEOF Soldier)
 000057A7  8B 1D 00000EA5 R  3C 		MOV EBX, CurrentID
 000057AD  F7 E3	     3C 		MUL EBX
 000057AF  8B D8	     3C 		MOV EBX, EAX
 000057B1  50		     3C 		PUSH EAX
 000057B2  8B 83 0000084D R  3C 			MOV EAX, UserSoldiers[EBX].X
 000057B8  A3 00000CA4 R     3C 			MOV GetterHandler, 	EAX
 000057BD  58		     3C 		POP EAX
 000057BE  61		     2C 		POPA
 000057C8  60		     2C 		PUSHA
 000057C9  B8 0000002C	     3C 		MOV EAX, (SIZEOF Soldier)
 000057CE  8B 1D 00000EA5 R  3C 		MOV EBX, CurrentID
 000057D4  F7 E3	     3C 		MUL EBX
 000057D6  8B D8	     3C 		MOV EBX, EAX
 000057D8  50		     3C 		PUSH EAX
 000057D9  B8 00000008	     3C 			MOV EAX, 8
 000057DE  89 83 0000086D R  3C 			MOV UserSoldiers[EBX].AttackTo, 	EAX
 000057E4  58		     3C 		POP EAX
 000057E5  61		     2C 		POPA
 000057E8  60		     2C 		PUSHA
 000057E9  B8 0000002C	     3C 		MOV EAX, (SIZEOF Soldier)
 000057EE  8B 1D 00000EA5 R  3C 		MOV EBX, CurrentID
 000057F4  F7 E3	     3C 		MUL EBX
 000057F6  8B D8	     3C 		MOV EBX, EAX
 000057F8  50		     3C 		PUSH EAX
 000057F9  8B 83 000009AD R  3C 			MOV EAX, CompSoldiers[EBX].X
 000057FF  A3 00000CA4 R     3C 			MOV GetterHandler, 	EAX
 00005804  58		     3C 		POP EAX
 00005805  61		     2C 		POPA
 0000580F  60		     2C 		PUSHA
 00005810  B8 0000002C	     3C 		MOV EAX, (SIZEOF Soldier)
 00005815  8B 1D 00000EA5 R  3C 		MOV EBX, CurrentID
 0000581B  F7 E3	     3C 		MUL EBX
 0000581D  8B D8	     3C 		MOV EBX, EAX
 0000581F  50		     3C 		PUSH EAX
 00005820  B8 00000008	     3C 			MOV EAX, 8
 00005825  89 83 000009CD R  3C 			MOV CompSoldiers[EBX].AttackTo, 	EAX
 0000582B  58		     3C 		POP EAX
 0000582C  61		     2C 		POPA
 0000582D  61		     1C 	POPAD
			      C 				.IF(CompSoldiers[EBX].AttackTo == -1)
			      C 					.IF( CompSoldiers[EBX].WaitFor == -1 )			
			      C 						MOVE CompSoldiers, ECX, -1, 0
 00005844  B8 0000002C	     2C 		MOV EAX, (SIZEOF Soldier)
 00005849  8B D9	     2C 		MOV EBX, ECX
 0000584B  F7 E3	     2C 		MUL EBX
 0000584D  8B D8	     2C 		MOV EBX, EAX
 00005858  FF 83 000009AD R  1C 			INC CompSoldiers[EBX].X
 00005860  FF 8B 000009AD R  1C 			DEC CompSoldiers[EBX].X
 00005866  50		     2C 		PUSH EAX
 00005867  B8 00000000	     2C 			MOV EAX, 0
 0000586C  01 83 000009B1 R  2C 			ADD CompSoldiers[EBX].Y, 	EAX
 00005872  58		     2C 		POP EAX
			      C 					.ENDIF
			      C 					CopyFrom 	WaitCheckCurrID,	ECX
 00005873  50		     1C 		PUSH EAX
 00005874  8B C1	     1C 			MOV EAX, ECX
 00005876  A3 00000EAD R     1C 			MOV WaitCheckCurrID, 	EAX
 0000587B  58		     1C 		POP EAX
			      C 					CompWaitStackCheck	WaitCheckCurrID
 0000587C  60		     1C 	PUSHA
 0000587D  60		     2C 		PUSHA
 0000587E  B8 0000002C	     3C 		MOV EAX, (SIZEOF Soldier)
 00005883  8B 1D 00000EAD R  3C 		MOV EBX, WaitCheckCurrID
 00005889  F7 E3	     3C 		MUL EBX
 0000588B  8B D8	     3C 		MOV EBX, EAX
 0000588D  50		     3C 		PUSH EAX
 0000588E  B8 FFFFFFFF	     3C 			MOV EAX, -1
 00005893  89 83 000009C9 R  3C 			MOV CompSoldiers[EBX].WaitFor, 	EAX
 00005899  58		     3C 		POP EAX
 0000589A  61		     2C 		POPA
 0000589B  B9 00000000	     2C 		MOV 	ECX,	0
 000058A0		     1C 		CompWattingChecking:
 000058A0  B8 0000002C	     2C 		MOV EAX, (SIZEOF Soldier)
 000058A5  8B D9	     2C 		MOV EBX, ECX
 000058A7  F7 E3	     2C 		MUL EBX
 000058A9  8B D8	     2C 		MOV EBX, EAX
 000058C4  60		     2C 	PUSHA
 000058C5  BA 00000001	     2C 		MOV EDX,	1
 000058CE  60		     3C 		PUSHA
 000058CF  B8 0000002C	     4C 		MOV EAX, (SIZEOF Soldier)
 000058D4  8B 1D 00000EAD R  4C 		MOV EBX, WaitCheckCurrID
 000058DA  F7 E3	     4C 		MUL EBX
 000058DC  8B D8	     4C 		MOV EBX, EAX
 000058DE  50		     4C 		PUSH EAX
 000058DF  8B 83 0000084D R  4C 			MOV EAX, UserSoldiers[EBX].X
 000058E5  A3 00000D99 R     4C 			MOV Collision_A_X, 	EAX
 000058EA  58		     4C 		POP EAX
 000058EB  61		     3C 		POPA
 000058EC  60		     3C 		PUSHA
 000058ED  B8 0000002C	     4C 		MOV EAX, (SIZEOF Soldier)
 000058F2  8B D9	     4C 		MOV EBX, ECX
 000058F4  F7 E3	     4C 		MUL EBX
 000058F6  8B D8	     4C 		MOV EBX, EAX
 000058F8  50		     4C 		PUSH EAX
 000058F9  8B 83 0000084D R  4C 			MOV EAX, UserSoldiers[EBX].X
 000058FF  A3 00000D9D R     4C 			MOV Collision_B_X, 	EAX
 00005904  58		     4C 		POP EAX
 00005905  61		     3C 		POPA
 00005908  60		     3C 		PUSHA
 00005909  B8 0000002C	     4C 		MOV EAX, (SIZEOF Soldier)
 0000590E  8B 1D 00000EAD R  4C 		MOV EBX, WaitCheckCurrID
 00005914  F7 E3	     4C 		MUL EBX
 00005916  8B D8	     4C 		MOV EBX, EAX
 00005918  50		     4C 		PUSH EAX
 00005919  8B 83 000009AD R  4C 			MOV EAX, CompSoldiers[EBX].X
 0000591F  A3 00000D99 R     4C 			MOV Collision_A_X, 	EAX
 00005924  58		     4C 		POP EAX
 00005925  61		     3C 		POPA
 00005926  60		     3C 		PUSHA
 00005927  B8 0000002C	     4C 		MOV EAX, (SIZEOF Soldier)
 0000592C  8B D9	     4C 		MOV EBX, ECX
 0000592E  F7 E3	     4C 		MUL EBX
 00005930  8B D8	     4C 		MOV EBX, EAX
 00005932  50		     4C 		PUSH EAX
 00005933  8B 83 000009AD R  4C 			MOV EAX, CompSoldiers[EBX].X
 00005939  A3 00000D9D R     4C 			MOV Collision_B_X, 	EAX
 0000593E  58		     4C 		POP EAX
 0000593F  61		     3C 		POPA
 00005940  A1 00000D99 R     2C 		MOV		EAX,	Collision_A_X
 00005945  8B 1D 00000D9D R  2C 		MOV		EBX,	Collision_B_X
 00005967  50		     3C 		PUSH EAX
 00005968  8B C3	     3C 			MOV EAX, EBX
 0000596A  A3 00000CA0 R     3C 			MOV SetterBuffer, 	EAX
 0000596F  58		     3C 		POP EAX
 00005970  29 05 00000CA0 R  2C 			SUB 		SetterBuffer, 	EAX
 00005976  60		     3C 		PUSHA
 00005977  B8 0000002C	     4C 		MOV EAX, (SIZEOF Soldier)
 0000597C  8B 1D 00000EAD R  4C 		MOV EBX, WaitCheckCurrID
 00005982  F7 E3	     4C 		MUL EBX
 00005984  8B D8	     4C 		MOV EBX, EAX
 00005986  8B 83 0000085D R  4C 		MOV EAX, UserSoldiers[EBX].Arms
 0000598C  48		     4C 		DEC EAX
 0000598D  BA 0000000C	     4C 		MOV EDX, 12
 00005992  F7 E2	     4C 		MUL EDX
 00005994  8B D0	     4C 		MOV EDX, EAX
 00005996  8B 83 00000859 R  4C 		MOV EAX, UserSoldiers[EBX].Level
 0000599C  48		     4C 		DEC EAX
 0000599D  C1 E0 02	     4C 		SHL EAX, 2
 000059A0  03 C2	     4C 		ADD EAX, EDX
 000059AB  50		     4C 		PUSH EAX
 000059AC  8B 80 00000B2D R  4C 			MOV EAX, UserSoldier_Width[EAX]
 000059B2  A3 00000CA4 R     4C 			MOV GetterHandler, 	EAX
 000059B7  58		     4C 		POP EAX
 000059BA  50		     4C 		PUSH EAX
 000059BB  8B 80 00000B75 R  4C 			MOV EAX, CompSoldier_Width[EAX]
 000059C1  A3 00000CA4 R     4C 			MOV GetterHandler, 	EAX
 000059C6  58		     4C 		POP EAX
 000059C7  61		     3C 		POPA
 000059C8  8B 0D 00000CA4 R  2C 			MOV ECX, GetterHandler
 000059D6  60		     3C 		PUSHA
 000059D7  B8 0000002C	     4C 		MOV EAX, (SIZEOF Soldier)
 000059DC  8B 1D 00000EAD R  4C 		MOV EBX, WaitCheckCurrID
 000059E2  F7 E3	     4C 		MUL EBX
 000059E4  8B D8	     4C 		MOV EBX, EAX
 000059E6  50		     4C 		PUSH EAX
 000059E7  8B C1	     4C 			MOV EAX, ECX
 000059E9  89 83 00000869 R  4C 			MOV UserSoldiers[EBX].WaitFor, 	EAX
 000059EF  58		     4C 		POP EAX
 000059F0  61		     3C 		POPA
 000059F1  50		     3C 		PUSH EAX
 000059F2  B8 00000001	     3C 			MOV EAX, 1
 000059F7  A3 00000CA4 R     3C 			MOV GetterHandler, 	EAX
 000059FC  58		     3C 		POP EAX
 00005A02  50		     3C 		PUSH EAX
 00005A03  B8 00000000	     3C 			MOV EAX, 0
 00005A08  A3 00000CA4 R     3C 			MOV GetterHandler, 	EAX
 00005A0D  58		     3C 		POP EAX
 00005A30  50		     3C 		PUSH EAX
 00005A31  8B C0	     3C 			MOV EAX, EAX
 00005A33  A3 00000CA0 R     3C 			MOV SetterBuffer, 	EAX
 00005A38  58		     3C 		POP EAX
 00005A39  29 1D 00000CA0 R  2C 			SUB 		SetterBuffer, 	EBX
 00005A3F  60		     3C 		PUSHA
 00005A40  B8 0000002C	     4C 		MOV EAX, (SIZEOF Soldier)
 00005A45  8B 1D 00000EAD R  4C 		MOV EBX, WaitCheckCurrID
 00005A4B  F7 E3	     4C 		MUL EBX
 00005A4D  8B D8	     4C 		MOV EBX, EAX
 00005A4F  8B 83 000009BD R  4C 		MOV EAX, CompSoldiers[EBX].Arms
 00005A55  48		     4C 		DEC EAX
 00005A56  BA 0000000C	     4C 		MOV EDX, 12
 00005A5B  F7 E2	     4C 		MUL EDX
 00005A5D  8B D0	     4C 		MOV EDX, EAX
 00005A5F  8B 83 000009B9 R  4C 		MOV EAX, CompSoldiers[EBX].Level
 00005A65  48		     4C 		DEC EAX
 00005A66  C1 E0 02	     4C 		SHL EAX, 2
 00005A69  03 C2	     4C 		ADD EAX, EDX
 00005A74  50		     4C 		PUSH EAX
 00005A75  8B 80 00000B2D R  4C 			MOV EAX, UserSoldier_Width[EAX]
 00005A7B  A3 00000CA4 R     4C 			MOV GetterHandler, 	EAX
 00005A80  58		     4C 		POP EAX
 00005A83  50		     4C 		PUSH EAX
 00005A84  8B 80 00000B75 R  4C 			MOV EAX, CompSoldier_Width[EAX]
 00005A8A  A3 00000CA4 R     4C 			MOV GetterHandler, 	EAX
 00005A8F  58		     4C 		POP EAX
 00005A90  61		     3C 		POPA
 00005A91  8B 0D 00000CA4 R  2C 			MOV ECX, GetterHandler
 00005A9F  60		     3C 		PUSHA
 00005AA0  B8 0000002C	     4C 		MOV EAX, (SIZEOF Soldier)
 00005AA5  8B 1D 00000EAD R  4C 		MOV EBX, WaitCheckCurrID
 00005AAB  F7 E3	     4C 		MUL EBX
 00005AAD  8B D8	     4C 		MOV EBX, EAX
 00005AAF  50		     4C 		PUSH EAX
 00005AB0  8B C1	     4C 			MOV EAX, ECX
 00005AB2  89 83 000009C9 R  4C 			MOV CompSoldiers[EBX].WaitFor, 	EAX
 00005AB8  58		     4C 		POP EAX
 00005AB9  61		     3C 		POPA
 00005ABA  50		     3C 		PUSH EAX
 00005ABB  B8 00000001	     3C 			MOV EAX, 1
 00005AC0  A3 00000CA4 R     3C 			MOV GetterHandler, 	EAX
 00005AC5  58		     3C 		POP EAX
 00005AC8  50		     3C 		PUSH EAX
 00005AC9  B8 00000000	     3C 			MOV EAX, 0
 00005ACE  A3 00000CA4 R     3C 			MOV GetterHandler, 	EAX
 00005AD3  58		     3C 		POP EAX
 00005AD4  61		     2C 	POPA
 00005ADE  41		     2C 		INC ECX
 00005ADF  83 F9 07	     2C 		CMP ECX, 7
 00005AE2  0F 8C FFFFFDB8    2C 		JL CompWattingChecking
 00005AE8  61		     1C 	POPA
			      C 				.ELSEIF (CompSoldiers[EBX].AttackTo != -1)
			      C 					CopyFrom CompAttackSoldier, ECX
 00005AF4  50		     1C 		PUSH EAX
 00005AF5  8B C1	     1C 			MOV EAX, ECX
 00005AF7  A3 00000DA9 R     1C 			MOV CompAttackSoldier, 	EAX
 00005AFC  58		     1C 		POP EAX
			      C 					CopyFrom CompAttackTarget, CompSoldiers[EBX].AttackTo
 00005AFD  50		     1C 		PUSH EAX
 00005AFE  8B 83 000009CD R  1C 			MOV EAX, CompSoldiers[EBX].AttackTo
 00005B04  A3 00000DB1 R     1C 			MOV CompAttackTarget, 	EAX
 00005B09  58		     1C 		POP EAX
			      C 					.IF CompAttackTimer == 0
			      C 						CopyFrom CompAttackTimer, 1
 00005B13  50		     1C 		PUSH EAX
 00005B14  B8 00000001	     1C 			MOV EAX, 1
 00005B19  A3 00000CF4 R     1C 			MOV CompAttackTimer, 	EAX
 00005B1E  58		     1C 		POP EAX
			      C 					.ENDIF
			      C 				.ENDIF
			      C 				;CollisionCheck	
			      C 			.ENDIF
			      C 			NextInc	8, MCS
 00005B1F  41		     1C 		INC ECX
 00005B20  83 F9 08	     1C 		CMP ECX, 8
 00005B23  0F 8C FFFFFC3E    1C 		JL MCS
 00005B29  C3		      C 		RET
 00005B2A		      C 	MoveingSoldiers ENDP
			      C 

					INCLUDE	AI.inc
			      C ;;;;;;;;;;;;;;;;;;;;;;;;;;;;;;;;
			      C ;;;;						;;;;
			      C ;;;;	   	Timers	 	    ;;;;
			      C ;;;;						;;;;
			      C ;;;;;;;;;;;;;;;;;;;;;;;;;;;;;;;;
 00000EB1		      C .Data
			      C 
			      C 	; counter -> AI_Timer
 00000EB1 00000001	      C 	AI_Timer 		DWORD 1
			      C 
 00000EB5 00000000	      C 	Mod_A_Timer 	DWORD 0
 00000EB9 00000000	      C 	Mod_B_Timer 	DWORD 0
 00000EBD 00000000	      C 	Mod_C_Timer 	DWORD 0
			      C 
			      C 
			      C 
			      C ;;;;;;;;;;;;;;;;;;;;;;;;;;;;;;;;
			      C ;;;;						;;;;
			      C ;;;;		Rule Mods 	    ;;;;
			      C ;;;;						;;;;
			      C ;;;;;;;;;;;;;;;;;;;;;;;;;;;;;;;;
 00000EC1		      C .Data
			      C 
			      C 	;You can design the ai mods here
			      C 	;here is an example
			      C 
			      C 	;	[[	Ative by Certain Event	]]
			      C 	;ResetEvent	EQU <CopyFrom isAttacked, 0>
			      C 	;Mod_When_Attack	MACRO	isAttacked
			      C 	;	MOV 	EAX,	isAttacked
			      C 	;	.IF ( EAX == 1 )
			      C 	;		
			      C 	;		AutoBuild 	Mod_When_Attack_Timer,	0,		BuildCompSoldierB
			      C 	;		AutoBuild 	Mod_When_Attack_Timer,	2,		BuildCompSoldierB
			      C 	;		AutoBuild 	Mod_When_Attack_Timer,	4,		BuildCompSoldierB
			      C 	;		AutoBuild 	Mod_When_Attack_Timer,	6,		BuildCompSoldierC
			      C 	;		BuildOnce	Mod_When_Attack_Timer,	6,		Beats4x,	ResetEvent
			      C 	;	.ENDIF
			      C 	;ENDM
			      C 	
			      C 
			      C 	;	[[	Ative by Time Range	]]
			      C 	;Mod_B	MACRO	Time_Open,	Time_Close
			      C 	;	.IF ( AI_Timer >= Time_Open && AI_Timer <= Time_Close )
			      C 	;		
			      C 	;
			      C 	;		AutoBuild	Mod_B_Timer, 8, 	Beats4X,	BuildCompSoldierA
			      C 	;		AutoBuild	Mod_B_Timer, 16, 	Beats4X,	BuildCompSoldierB
			      C 	;		LoopBuild 	Mod_B_Timer, 16,	Beats4x
			      C 	;
			      C 	;	.ENDIF
			      C 	;ENDM
			      C 
			      C 	;	[[	 UpGrade	]]
			      C 	Mod_UpGrade	MACRO	When
			      C 		.IF ( AI_Timer ==  When )
			      C 			.IF( CompCurrLevel < 3)
			      C 				CopyFrom CompLevelUpFlag, 1
			      C 			.ENDIF
			      C 		.ENDIF	
			      C 	ENDM
			      C 
			      C 	;	[[	 UpGrade	]]
			      C 	Mod_Reset	MACRO	When
			      C 		.IF ( AI_Timer ==  When )
			      C 			CopyFrom AI_Timer, 0
			      C 		.ENDIF	
			      C 	ENDM
			      C 	
			      C 
			      C 	Mod_A 	MACRO 	Time_Open,	Time_Close
			      C 		.IF ( AI_Timer >= Time_Open && AI_Timer <= Time_Close )
			      C 
			      C 			AutoBuild	Mod_A_Timer, 0, 	Beats4x,	BuildCompSoldierA
			      C 			AutoBuild	Mod_A_Timer, 4, 	Beats4x,	BuildCompSoldierA
			      C 			AutoBuild	Mod_A_Timer, 8, 	Beats4x,	BuildCompSoldierB
			      C 			LoopBuild 	Mod_A_Timer, 8,		Beats4x
			      C 			
			      C 		.ENDIF
			      C 		ENDM
			      C 
			      C 	Mod_B 	MACRO 	Time_Open,	Time_Close
			      C 		.IF ( AI_Timer >= Time_Open && AI_Timer <= Time_Close )
			      C 
			      C 			AutoBuild	Mod_B_Timer, 0, 	Beats4x,	BuildCompSoldierA
			      C 			AutoBuild	Mod_B_Timer, 4, 	Beats4x,	BuildCompSoldierA
			      C 			AutoBuild	Mod_B_Timer, 8, 	Beats4x,	BuildCompSoldierC
			      C 			LoopBuild 	Mod_B_Timer, 8,	Beats4x
			      C 			
			      C 		.ENDIF
			      C 		ENDM
			      C 
			      C 	Mod_C 	MACRO 	Time_Open,	Time_Close
			      C 		.IF ( AI_Timer >= Time_Open && AI_Timer <= Time_Close )
			      C 
			      C 			AutoBuild	Mod_C_Timer, 2, 	Beats4x,	BuildCompSoldierB
			      C 			AutoBuild	Mod_C_Timer, 2, 	Beats4x,	BuildCompSoldierC
			      C 			LoopBuild 	Mod_C_Timer, 4,	Beats4x
			      C 			
			      C 		.ENDIF
			      C 		ENDM			
			      C 
			      C 
			      C ;;;;;;;;;;;;;;;;;;;;;;;;;;;;;;;;
			      C ;;;;						;;;;
			      C ;;;;	Main 	Functions	;;;;
			      C ;;;;						;;;;
			      C ;;;;;;;;;;;;;;;;;;;;;;;;;;;;;;;;
 00000EC1		      C .Data
			      C 
			      C 	LoopBuild	MACRO	Timer, Limit, BeatsX
			      C 		.IF ( BeatsX == 1 )
			      C 			INC Timer
			      C 		.ENDIF
			      C 		.IF ( Timer > Limit )
			      C 			CopyFrom Timer, 0
			      C 		.ENDIF
			      C 		ENDM
			      C 
			      C 	BuildOnce	MACRO	Timer, Limit, BeatsX, 	WhenTimesUp
			      C 		.IF ( Timer < Limit )
			      C 			.IF ( BeatsX == 1 )
			      C 				INC Timer
			      C 			.ENDIF
			      C 		.ELSE
			      C 			WhenTimesUp
			      C 		.ENDIF
			      C 		ENDM
			      C 
			      C 	AutoBuild	MACRO	Timer, When, isTrigger, Soldier
			      C 		.IF ( Timer == When && isTrigger == 1)
			      C 			Soldier
			      C 		.ENDIF
			      C 		ENDM
			      C 
			      C 
			      C ;;;;;;;;;;;;;;;;;;;;;;;;;;;;;;;;;;;;
			      C ;;;;;;;;;;;;;;;;;;;;;;;;;;;;;;;;;;;;
			      C ;;;;    ;;;;;;;;;        ;;;;;;;;;;;
			      C ;;;;  ;  ;;;;;;;;;;;  ;;;;;;;;;;;;;;
			      C ;;;;  ;;  ;;;;;;;;;;;  ;;;;;;;;;;;;;
			      C ;;;;  ;;;  ;;;;;;;;;;;  ;;;;;;;;;;;;
			      C ;;;;  ;;;;  ;;;;;;;;;;;  ;;;;;;;;;;;
			      C ;;;;         ;;;;;;;;;;;  ;;;;;;;;;;
			      C ;;;;  ;;;;;;  ;;;;;;;;;;;  ;;;;;;;;;
			      C ;;;;  ;;;;;;;  ;;;;;;;        ;;;;;;
			      C ;;;;;;;;;;;;;;;;;;;;;;;;;;;;;;;;;;;;
			      C ;;;;;;;;;;;;;;;;;;;;;;;;;;;;;;;;;;;;
			      C 
 00000EC1		      C .Data
			      C 	AI MACRO
			      C 		TimerBeat 	AI_Timer,	Beats4x
			      C 
			      C 				;DefaultColor
			      C 				;WriteSAtCenter	60,	10,	Attacking
			      C 				;Translate 20,10
			      C 				;Write '['
			      C ;
			      C 				;WriteI AI_Timer
			      C 				;Write ']'
			      C 				;AnyKeyToContinue
			      C 				;TranslatePrevious
			      C 
			      C 
			      C 
			      C 
			      C 		Mod_A 	0,	10
			      C 		Mod_A 	12,	22
			      C 		Mod_B 	24,	34
			      C 		Mod_C 	38,	48
			      C 
			      C 		Mod_A 	50,	60
			      C 		Mod_A 	62,	72
			      C 		Mod_B 	74,	84
			      C 		Mod_C 	88,	98
			      C 
			      C 		Mod_UpGrade 101
			      C 		Mod_Reset	101
			      C 
			      C 
			      C 		ENDM
			      C 
			      C 
			      C 
			      C 

 00005B2A			.Code
 00005B2A			MAIN:

					StartUp
 00005B2A  E8 00000000 E     1			CLS
 00005B42  50		     2				PUSH 	EAX
 00005B43  B8 00000007	     2					MOV 	EAX, 00000111b
 00005B48  E8 00000000 E     2					CALL	SetTextColor
 00005B4D  58		     2				POP 	EAX
 00005B4E  8A 15 00000002 R  2			MOV  	dl, CurrentPointX
 00005B54  8A 35 00000003 R  2			MOV  	dh, CurrentPointY
 00005B5A  88 15 00000000 R  2			MOV		LastPointX,	dl
 00005B60  88 35 00000001 R  2			MOV 	LastPointY,	dh
 00005B66  B2 00	     2			MOV  	dl, BYTE PTR 0
 00005B68  B6 05	     2			MOV  	dh, BYTE PTR 5
 00005B6A  88 15 00000002 R  2			MOV 	CurrentPointX,	dl
 00005B70  88 35 00000003 R  2			MOV 	CurrentPointY,	dh
 00005B76  E8 00000000 E     2			CALL 	Gotoxy  
 00005B7B  B9 0000001E	     2			MOV 	ECX,	30
 00005B80  BB 00000044	     2			MOV 	EBX,	SIZEOF AtlantisSize
 00005B85  D1 EB	     2			SHR		EBX,	1
 00005B87  2B CB	     2			SUB 	ECX,	EBX
 00005B89  89 0D 00000CA0 R  2			MOV 	SetterBuffer,	ECX
 00005B8F  50		     3			PUSH EAX
 00005B90  51		     3			PUSH ECX
 00005B91  56		     3			PUSH ESI
 00005B92  8B C2	     3				MOV 	EAX,	EDX
 00005B94  8A 15 00000CA0 R  3				MOV  	 DL, BYTE PTR SetterBuffer
 00005B9A  B6 1E	     3				MOV  	 DH, BYTE PTR 30 
 00005B9C  E8 00000000 E     3				CALL 	Gotoxy
 00005BA1  8B D0	     3				MOV 	EDX,	EAX
 00005BA3  BA 00000C5C R     3				MOV EDX, OFFSET AtlantisSize
 00005BA8  E8 00000000 E     3				CALL WriteString
 00005BAD  58		     3			POP EAX
 00005BAE  59		     3			POP ECX
 00005BAF  5E		     3			POP ESI
 00005BB0  8A 15 00000002 R  2			MOV  	dl, CurrentPointX
 00005BB6  8A 35 00000003 R  2			MOV  	dh, CurrentPointY
 00005BBC  88 15 00000000 R  2			MOV		LastPointX,	dl
 00005BC2  88 35 00000001 R  2			MOV 	LastPointY,	dh
 00005BC8  B2 00	     2			MOV  	dl, BYTE PTR 0
 00005BCA  B6 00	     2			MOV  	dh, BYTE PTR 0
 00005BCC  88 15 00000002 R  2			MOV 	CurrentPointX,	dl
 00005BD2  88 35 00000003 R  2			MOV 	CurrentPointY,	dh
 00005BD8  E8 00000000 E     2			CALL 	Gotoxy  
 00005BDD  50		     2			PUSH EAX
 00005BDE  E8 00000000 E     2				CALL ReadChar
 00005BE3  58		     2			POP  EAX
					StartUpLogo
 00005BE4  E8 00000000 E     1			CLS
 00005BF2  50		     2				PUSH 	EAX
 00005BF3  B8 00000008	     2					MOV 	EAX, gray
 00005BF8  E8 00000000 E     2					CALL	SetTextColor
 00005BFD  58		     2				POP 	EAX
 00005BFE  8A 15 00000002 R  2			MOV  	dl, CurrentPointX
 00005C04  8A 35 00000003 R  2			MOV  	dh, CurrentPointY
 00005C0A  88 15 00000000 R  2			MOV		LastPointX,	dl
 00005C10  88 35 00000001 R  2			MOV 	LastPointY,	dh
 00005C16  B2 00	     2			MOV  	dl, BYTE PTR 0
 00005C18  B6 00	     2			MOV  	dh, BYTE PTR 0
 00005C1A  88 15 00000002 R  2			MOV 	CurrentPointX,	dl
 00005C20  88 35 00000003 R  2			MOV 	CurrentPointY,	dh
 00005C26  E8 00000000 E     2			CALL 	Gotoxy  
 00005C2B  52		     2				PUSH EDX
 00005C2C  52		     3			PUSH EDX
 00005C2D  51		     3			PUSH ECX
 00005C2E  56		     3			PUSH ESI
 00005C2F  BA 0000084E R     3				MOV EDX, OFFSET StartUp_0
 00005C34  E8 00000000 E     3				CALL WriteString
 00005C39  59		     3			POP ECX
 00005C3A  59		     3			POP ECX
 00005C3B  5E		     3			POP ESI
 00005C3C  5A		     2				POP  EDX
 00005C3D  FE C6	     2				INC  DH
 00005C3F  E8 00000000 E     2				Call GoToXY
 00005C44  52		     2				PUSH EDX
 00005C45  52		     3			PUSH EDX
 00005C46  51		     3			PUSH ECX
 00005C47  56		     3			PUSH ESI
 00005C48  BA 000008C7 R     3				MOV EDX, OFFSET StartUp_1
 00005C4D  E8 00000000 E     3				CALL WriteString
 00005C52  59		     3			POP ECX
 00005C53  59		     3			POP ECX
 00005C54  5E		     3			POP ESI
 00005C55  5A		     2				POP  EDX
 00005C56  FE C6	     2				INC  DH
 00005C58  E8 00000000 E     2				Call GoToXY
 00005C5D  52		     2				PUSH EDX
 00005C5E  52		     3			PUSH EDX
 00005C5F  51		     3			PUSH ECX
 00005C60  56		     3			PUSH ESI
 00005C61  BA 00000940 R     3				MOV EDX, OFFSET StartUp_2
 00005C66  E8 00000000 E     3				CALL WriteString
 00005C6B  59		     3			POP ECX
 00005C6C  59		     3			POP ECX
 00005C6D  5E		     3			POP ESI
 00005C6E  5A		     2				POP  EDX
 00005C6F  FE C6	     2				INC  DH
 00005C71  E8 00000000 E     2				Call GoToXY
 00005C76  52		     2				PUSH EDX
 00005C77  52		     3			PUSH EDX
 00005C78  51		     3			PUSH ECX
 00005C79  56		     3			PUSH ESI
 00005C7A  BA 000009B9 R     3				MOV EDX, OFFSET StartUp_3
 00005C7F  E8 00000000 E     3				CALL WriteString
 00005C84  59		     3			POP ECX
 00005C85  59		     3			POP ECX
 00005C86  5E		     3			POP ESI
 00005C87  5A		     2				POP  EDX
 00005C88  FE C6	     2				INC  DH
 00005C8A  E8 00000000 E     2				Call GoToXY
 00005C8F  52		     2				PUSH EDX
 00005C90  52		     3			PUSH EDX
 00005C91  51		     3			PUSH ECX
 00005C92  56		     3			PUSH ESI
 00005C93  BA 00000A32 R     3				MOV EDX, OFFSET StartUp_4
 00005C98  E8 00000000 E     3				CALL WriteString
 00005C9D  59		     3			POP ECX
 00005C9E  59		     3			POP ECX
 00005C9F  5E		     3			POP ESI
 00005CA0  5A		     2				POP  EDX
 00005CA1  FE C6	     2				INC  DH
 00005CA3  E8 00000000 E     2				Call GoToXY
 00005CA8  52		     2				PUSH EDX
 00005CA9  52		     3			PUSH EDX
 00005CAA  51		     3			PUSH ECX
 00005CAB  56		     3			PUSH ESI
 00005CAC  BA 00000AAB R     3				MOV EDX, OFFSET StartUp_5
 00005CB1  E8 00000000 E     3				CALL WriteString
 00005CB6  59		     3			POP ECX
 00005CB7  59		     3			POP ECX
 00005CB8  5E		     3			POP ESI
 00005CB9  5A		     2				POP  EDX
 00005CBA  FE C6	     2				INC  DH
 00005CBC  E8 00000000 E     2				Call GoToXY
 00005CC1  52		     2				PUSH EDX
 00005CC2  52		     3			PUSH EDX
 00005CC3  51		     3			PUSH ECX
 00005CC4  56		     3			PUSH ESI
 00005CC5  BA 00000B24 R     3				MOV EDX, OFFSET StartUp_6
 00005CCA  E8 00000000 E     3				CALL WriteString
 00005CCF  59		     3			POP ECX
 00005CD0  59		     3			POP ECX
 00005CD1  5E		     3			POP ESI
 00005CD2  5A		     2				POP  EDX
 00005CD3  FE C6	     2				INC  DH
 00005CD5  E8 00000000 E     2				Call GoToXY
 00005CDA  52		     2				PUSH EDX
 00005CDB  52		     3			PUSH EDX
 00005CDC  51		     3			PUSH ECX
 00005CDD  56		     3			PUSH ESI
 00005CDE  BA 00000B9D R     3				MOV EDX, OFFSET StartUp_7
 00005CE3  E8 00000000 E     3				CALL WriteString
 00005CE8  59		     3			POP ECX
 00005CE9  59		     3			POP ECX
 00005CEA  5E		     3			POP ESI
 00005CEB  5A		     2				POP  EDX
 00005CEC  FE C6	     2				INC  DH
 00005CEE  E8 00000000 E     2				Call GoToXY
 00005CF3  52		     2				PUSH EDX
 00005CF4  52		     3			PUSH EDX
 00005CF5  51		     3			PUSH ECX
 00005CF6  56		     3			PUSH ESI
 00005CF7  BA 00000C16 R     3				MOV EDX, OFFSET StartUp_8
 00005CFC  E8 00000000 E     3				CALL WriteString
 00005D01  59		     3			POP ECX
 00005D02  59		     3			POP ECX
 00005D03  5E		     3			POP ESI
 00005D04  5A		     2				POP  EDX
 00005D05  FE C6	     2				INC  DH
 00005D07  E8 00000000 E     2				Call GoToXY
 00005D0C  52		     2				PUSH EDX
 00005D0D  52		     3			PUSH EDX
 00005D0E  51		     3			PUSH ECX
 00005D0F  56		     3			PUSH ESI
 00005D10  BA 00000C8F R     3				MOV EDX, OFFSET StartUp_9
 00005D15  E8 00000000 E     3				CALL WriteString
 00005D1A  59		     3			POP ECX
 00005D1B  59		     3			POP ECX
 00005D1C  5E		     3			POP ESI
 00005D1D  5A		     2				POP  EDX
 00005D1E  FE C6	     2				INC  DH
 00005D20  E8 00000000 E     2				Call GoToXY
 00005D25  52		     2				PUSH EDX
 00005D26  52		     3			PUSH EDX
 00005D27  51		     3			PUSH ECX
 00005D28  56		     3			PUSH ESI
 00005D29  BA 00000D08 R     3				MOV EDX, OFFSET StartUp_10
 00005D2E  E8 00000000 E     3				CALL WriteString
 00005D33  59		     3			POP ECX
 00005D34  59		     3			POP ECX
 00005D35  5E		     3			POP ESI
 00005D36  5A		     2				POP  EDX
 00005D37  FE C6	     2				INC  DH
 00005D39  E8 00000000 E     2				Call GoToXY
 00005D3E  52		     2				PUSH EDX
 00005D3F  52		     3			PUSH EDX
 00005D40  51		     3			PUSH ECX
 00005D41  56		     3			PUSH ESI
 00005D42  BA 00000D81 R     3				MOV EDX, OFFSET StartUp_11
 00005D47  E8 00000000 E     3				CALL WriteString
 00005D4C  59		     3			POP ECX
 00005D4D  59		     3			POP ECX
 00005D4E  5E		     3			POP ESI
 00005D4F  5A		     2				POP  EDX
 00005D50  FE C6	     2				INC  DH
 00005D52  E8 00000000 E     2				Call GoToXY
 00005D57  52		     2				PUSH EDX
 00005D58  52		     3			PUSH EDX
 00005D59  51		     3			PUSH ECX
 00005D5A  56		     3			PUSH ESI
 00005D5B  BA 00000DFA R     3				MOV EDX, OFFSET StartUp_12
 00005D60  E8 00000000 E     3				CALL WriteString
 00005D65  59		     3			POP ECX
 00005D66  59		     3			POP ECX
 00005D67  5E		     3			POP ESI
 00005D68  5A		     2				POP  EDX
 00005D69  FE C6	     2				INC  DH
 00005D6B  E8 00000000 E     2				Call GoToXY
 00005D70  52		     2				PUSH EDX
 00005D71  52		     3			PUSH EDX
 00005D72  51		     3			PUSH ECX
 00005D73  56		     3			PUSH ESI
 00005D74  BA 00000E73 R     3				MOV EDX, OFFSET StartUp_13
 00005D79  E8 00000000 E     3				CALL WriteString
 00005D7E  59		     3			POP ECX
 00005D7F  59		     3			POP ECX
 00005D80  5E		     3			POP ESI
 00005D81  5A		     2				POP  EDX
 00005D82  FE C6	     2				INC  DH
 00005D84  E8 00000000 E     2				Call GoToXY
 00005D89  52		     2				PUSH EDX
 00005D8A  52		     3			PUSH EDX
 00005D8B  51		     3			PUSH ECX
 00005D8C  56		     3			PUSH ESI
 00005D8D  BA 00000EEC R     3				MOV EDX, OFFSET StartUp_14
 00005D92  E8 00000000 E     3				CALL WriteString
 00005D97  59		     3			POP ECX
 00005D98  59		     3			POP ECX
 00005D99  5E		     3			POP ESI
 00005D9A  5A		     2				POP  EDX
 00005D9B  FE C6	     2				INC  DH
 00005D9D  E8 00000000 E     2				Call GoToXY
 00005DA2  52		     2				PUSH EDX
 00005DA3  52		     3			PUSH EDX
 00005DA4  51		     3			PUSH ECX
 00005DA5  56		     3			PUSH ESI
 00005DA6  BA 00000F65 R     3				MOV EDX, OFFSET StartUp_15
 00005DAB  E8 00000000 E     3				CALL WriteString
 00005DB0  59		     3			POP ECX
 00005DB1  59		     3			POP ECX
 00005DB2  5E		     3			POP ESI
 00005DB3  5A		     2				POP  EDX
 00005DB4  FE C6	     2				INC  DH
 00005DB6  E8 00000000 E     2				Call GoToXY
 00005DBB  52		     2				PUSH EDX
 00005DBC  52		     3			PUSH EDX
 00005DBD  51		     3			PUSH ECX
 00005DBE  56		     3			PUSH ESI
 00005DBF  BA 00000FDE R     3				MOV EDX, OFFSET StartUp_16
 00005DC4  E8 00000000 E     3				CALL WriteString
 00005DC9  59		     3			POP ECX
 00005DCA  59		     3			POP ECX
 00005DCB  5E		     3			POP ESI
 00005DCC  5A		     2				POP  EDX
 00005DCD  FE C6	     2				INC  DH
 00005DCF  E8 00000000 E     2				Call GoToXY
 00005DD4  52		     2				PUSH EDX
 00005DD5  52		     3			PUSH EDX
 00005DD6  51		     3			PUSH ECX
 00005DD7  56		     3			PUSH ESI
 00005DD8  BA 00001057 R     3				MOV EDX, OFFSET StartUp_17
 00005DDD  E8 00000000 E     3				CALL WriteString
 00005DE2  59		     3			POP ECX
 00005DE3  59		     3			POP ECX
 00005DE4  5E		     3			POP ESI
 00005DE5  5A		     2				POP  EDX
 00005DE6  FE C6	     2				INC  DH
 00005DE8  E8 00000000 E     2				Call GoToXY
 00005DED  52		     2				PUSH EDX
 00005DEE  52		     3			PUSH EDX
 00005DEF  51		     3			PUSH ECX
 00005DF0  56		     3			PUSH ESI
 00005DF1  BA 000010D0 R     3				MOV EDX, OFFSET StartUp_18
 00005DF6  E8 00000000 E     3				CALL WriteString
 00005DFB  59		     3			POP ECX
 00005DFC  59		     3			POP ECX
 00005DFD  5E		     3			POP ESI
 00005DFE  5A		     2				POP  EDX
 00005DFF  FE C6	     2				INC  DH
 00005E01  E8 00000000 E     2				Call GoToXY
 00005E06  52		     2				PUSH EDX
 00005E07  52		     3			PUSH EDX
 00005E08  51		     3			PUSH ECX
 00005E09  56		     3			PUSH ESI
 00005E0A  BA 00001149 R     3				MOV EDX, OFFSET StartUp_19
 00005E0F  E8 00000000 E     3				CALL WriteString
 00005E14  59		     3			POP ECX
 00005E15  59		     3			POP ECX
 00005E16  5E		     3			POP ESI
 00005E17  5A		     2				POP  EDX
 00005E18  FE C6	     2				INC  DH
 00005E1A  E8 00000000 E     2				Call GoToXY
 00005E1F  52		     2				PUSH EDX
 00005E20  52		     3			PUSH EDX
 00005E21  51		     3			PUSH ECX
 00005E22  56		     3			PUSH ESI
 00005E23  BA 000011C2 R     3				MOV EDX, OFFSET StartUp_20
 00005E28  E8 00000000 E     3				CALL WriteString
 00005E2D  59		     3			POP ECX
 00005E2E  59		     3			POP ECX
 00005E2F  5E		     3			POP ESI
 00005E30  5A		     2				POP  EDX
 00005E31  FE C6	     2				INC  DH
 00005E33  E8 00000000 E     2				Call GoToXY
 00005E38  52		     2				PUSH EDX
 00005E39  52		     3			PUSH EDX
 00005E3A  51		     3			PUSH ECX
 00005E3B  56		     3			PUSH ESI
 00005E3C  BA 0000123B R     3				MOV EDX, OFFSET StartUp_21
 00005E41  E8 00000000 E     3				CALL WriteString
 00005E46  59		     3			POP ECX
 00005E47  59		     3			POP ECX
 00005E48  5E		     3			POP ESI
 00005E49  5A		     2				POP  EDX
 00005E4A  FE C6	     2				INC  DH
 00005E4C  E8 00000000 E     2				Call GoToXY
 00005E51  52		     2				PUSH EDX
 00005E52  52		     3			PUSH EDX
 00005E53  51		     3			PUSH ECX
 00005E54  56		     3			PUSH ESI
 00005E55  BA 000012B4 R     3				MOV EDX, OFFSET StartUp_22
 00005E5A  E8 00000000 E     3				CALL WriteString
 00005E5F  59		     3			POP ECX
 00005E60  59		     3			POP ECX
 00005E61  5E		     3			POP ESI
 00005E62  5A		     2				POP  EDX
 00005E63  FE C6	     2				INC  DH
 00005E65  E8 00000000 E     2				Call GoToXY
 00005E6A  52		     2				PUSH EDX
 00005E6B  52		     3			PUSH EDX
 00005E6C  51		     3			PUSH ECX
 00005E6D  56		     3			PUSH ESI
 00005E6E  BA 0000132D R     3				MOV EDX, OFFSET StartUp_23
 00005E73  E8 00000000 E     3				CALL WriteString
 00005E78  59		     3			POP ECX
 00005E79  59		     3			POP ECX
 00005E7A  5E		     3			POP ESI
 00005E7B  5A		     2				POP  EDX
 00005E7C  FE C6	     2				INC  DH
 00005E7E  E8 00000000 E     2				Call GoToXY
 00005E83  52		     2				PUSH EDX
 00005E84  52		     3			PUSH EDX
 00005E85  51		     3			PUSH ECX
 00005E86  56		     3			PUSH ESI
 00005E87  BA 000013A6 R     3				MOV EDX, OFFSET StartUp_24
 00005E8C  E8 00000000 E     3				CALL WriteString
 00005E91  59		     3			POP ECX
 00005E92  59		     3			POP ECX
 00005E93  5E		     3			POP ESI
 00005E94  5A		     2				POP  EDX
 00005E95  FE C6	     2				INC  DH
 00005E97  E8 00000000 E     2				Call GoToXY
 00005E9C  52		     2				PUSH EDX
 00005E9D  52		     3			PUSH EDX
 00005E9E  51		     3			PUSH ECX
 00005E9F  56		     3			PUSH ESI
 00005EA0  BA 0000141F R     3				MOV EDX, OFFSET StartUp_25
 00005EA5  E8 00000000 E     3				CALL WriteString
 00005EAA  59		     3			POP ECX
 00005EAB  59		     3			POP ECX
 00005EAC  5E		     3			POP ESI
 00005EAD  5A		     2				POP  EDX
 00005EAE  FE C6	     2				INC  DH
 00005EB0  E8 00000000 E     2				Call GoToXY
 00005EB5  52		     2				PUSH EDX
 00005EB6  52		     3			PUSH EDX
 00005EB7  51		     3			PUSH ECX
 00005EB8  56		     3			PUSH ESI
 00005EB9  BA 00001498 R     3				MOV EDX, OFFSET StartUp_26
 00005EBE  E8 00000000 E     3				CALL WriteString
 00005EC3  59		     3			POP ECX
 00005EC4  59		     3			POP ECX
 00005EC5  5E		     3			POP ESI
 00005EC6  5A		     2				POP  EDX
 00005EC7  FE C6	     2				INC  DH
 00005EC9  E8 00000000 E     2				Call GoToXY
 00005ECE  52		     2				PUSH EDX
 00005ECF  52		     3			PUSH EDX
 00005ED0  51		     3			PUSH ECX
 00005ED1  56		     3			PUSH ESI
 00005ED2  BA 00001511 R     3				MOV EDX, OFFSET StartUp_27
 00005ED7  E8 00000000 E     3				CALL WriteString
 00005EDC  59		     3			POP ECX
 00005EDD  59		     3			POP ECX
 00005EDE  5E		     3			POP ESI
 00005EDF  5A		     2				POP  EDX
 00005EE0  FE C6	     2				INC  DH
 00005EE2  E8 00000000 E     2				Call GoToXY
 00005EE7  52		     2				PUSH EDX
 00005EE8  52		     3			PUSH EDX
 00005EE9  51		     3			PUSH ECX
 00005EEA  56		     3			PUSH ESI
 00005EEB  BA 0000158A R     3				MOV EDX, OFFSET StartUp_28
 00005EF0  E8 00000000 E     3				CALL WriteString
 00005EF5  59		     3			POP ECX
 00005EF6  59		     3			POP ECX
 00005EF7  5E		     3			POP ESI
 00005EF8  5A		     2				POP  EDX
 00005EF9  FE C6	     2				INC  DH
 00005EFB  E8 00000000 E     2				Call GoToXY
 00005F00  52		     2				PUSH EDX
 00005F01  52		     3			PUSH EDX
 00005F02  51		     3			PUSH ECX
 00005F03  56		     3			PUSH ESI
 00005F04  BA 00001603 R     3				MOV EDX, OFFSET StartUp_29
 00005F09  E8 00000000 E     3				CALL WriteString
 00005F0E  59		     3			POP ECX
 00005F0F  59		     3			POP ECX
 00005F10  5E		     3			POP ESI
 00005F11  5A		     2				POP  EDX
 00005F12  FE C6	     2				INC  DH
 00005F14  E8 00000000 E     2				Call GoToXY
 00005F19  8A 15 00000002 R  2			MOV  	dl, CurrentPointX
 00005F1F  8A 35 00000003 R  2			MOV  	dh, CurrentPointY
 00005F25  88 15 00000000 R  2			MOV		LastPointX,	dl
 00005F2B  88 35 00000001 R  2			MOV 	LastPointY,	dh
 00005F31  B2 00	     2			MOV  	dl, BYTE PTR 0
 00005F33  B6 00	     2			MOV  	dh, BYTE PTR 0
 00005F35  88 15 00000002 R  2			MOV 	CurrentPointX,	dl
 00005F3B  88 35 00000003 R  2			MOV 	CurrentPointY,	dh
 00005F41  E8 00000000 E     2			CALL 	Gotoxy  
 00005F46  50		     2			PUSH EAX
 00005F47  E8 00000000 E     2				CALL ReadChar
 00005F4C  58		     2			POP  EAX
					LoopTimes 0FFFH
 00005F4D  B9 00000FFF	     1			MOV 	ECX,	0FFFH
 00005F52  E8 00000000 E		CLS
					DrawPanel
 00005F57  8A 15 00000002 R  2			MOV  	dl, CurrentPointX
 00005F5D  8A 35 00000003 R  2			MOV  	dh, CurrentPointY
 00005F63  88 15 00000000 R  2			MOV		LastPointX,	dl
 00005F69  88 35 00000001 R  2			MOV 	LastPointY,	dh
 00005F6F  B2 00	     2			MOV  	dl, BYTE PTR 0
 00005F71  B6 13	     2			MOV  	dh, BYTE PTR 19
 00005F73  88 15 00000002 R  2			MOV 	CurrentPointX,	dl
 00005F79  88 35 00000003 R  2			MOV 	CurrentPointY,	dh
 00005F7F  E8 00000000 E     2			CALL 	Gotoxy  
 00005F84  52		     2				PUSH EDX
 00005F85  52		     3			PUSH EDX
 00005F86  51		     3			PUSH ECX
 00005F87  56		     3			PUSH ESI
 00005F88  BA 0000035A R     3				MOV EDX, OFFSET INFO_Panel_1
 00005F8D  E8 00000000 E     3				CALL WriteString
 00005F92  59		     3			POP ECX
 00005F93  59		     3			POP ECX
 00005F94  5E		     3			POP ESI
 00005F95  5A		     2				POP  EDX
 00005F96  FE C6	     2				INC  DH
 00005F98  E8 00000000 E     2				Call GoToXY
 00005F9D  52		     2				PUSH EDX
 00005F9E  52		     3			PUSH EDX
 00005F9F  51		     3			PUSH ECX
 00005FA0  56		     3			PUSH ESI
 00005FA1  BA 000003D3 R     3				MOV EDX, OFFSET INFO_Panel_2
 00005FA6  E8 00000000 E     3				CALL WriteString
 00005FAB  59		     3			POP ECX
 00005FAC  59		     3			POP ECX
 00005FAD  5E		     3			POP ESI
 00005FAE  5A		     2				POP  EDX
 00005FAF  FE C6	     2				INC  DH
 00005FB1  E8 00000000 E     2				Call GoToXY
 00005FB6  52		     2				PUSH EDX
 00005FB7  52		     3			PUSH EDX
 00005FB8  51		     3			PUSH ECX
 00005FB9  56		     3			PUSH ESI
 00005FBA  BA 0000044C R     3				MOV EDX, OFFSET INFO_Panel_3
 00005FBF  E8 00000000 E     3				CALL WriteString
 00005FC4  59		     3			POP ECX
 00005FC5  59		     3			POP ECX
 00005FC6  5E		     3			POP ESI
 00005FC7  5A		     2				POP  EDX
 00005FC8  FE C6	     2				INC  DH
 00005FCA  E8 00000000 E     2				Call GoToXY
 00005FCF  52		     2				PUSH EDX
 00005FD0  52		     3			PUSH EDX
 00005FD1  51		     3			PUSH ECX
 00005FD2  56		     3			PUSH ESI
 00005FD3  BA 000004C3 R     3				MOV EDX, OFFSET INFO_Panel_4
 00005FD8  E8 00000000 E     3				CALL WriteString
 00005FDD  59		     3			POP ECX
 00005FDE  59		     3			POP ECX
 00005FDF  5E		     3			POP ESI
 00005FE0  5A		     2				POP  EDX
 00005FE1  FE C6	     2				INC  DH
 00005FE3  E8 00000000 E     2				Call GoToXY
 00005FE8  52		     2				PUSH EDX
 00005FE9  52		     3			PUSH EDX
 00005FEA  51		     3			PUSH ECX
 00005FEB  56		     3			PUSH ESI
 00005FEC  BA 0000053C R     3				MOV EDX, OFFSET INFO_Panel_5
 00005FF1  E8 00000000 E     3				CALL WriteString
 00005FF6  59		     3			POP ECX
 00005FF7  59		     3			POP ECX
 00005FF8  5E		     3			POP ESI
 00005FF9  5A		     2				POP  EDX
 00005FFA  FE C6	     2				INC  DH
 00005FFC  E8 00000000 E     2				Call GoToXY
 00006001  52		     2				PUSH EDX
 00006002  52		     3			PUSH EDX
 00006003  51		     3			PUSH ECX
 00006004  56		     3			PUSH ESI
 00006005  BA 000005B5 R     3				MOV EDX, OFFSET INFO_Panel_6
 0000600A  E8 00000000 E     3				CALL WriteString
 0000600F  59		     3			POP ECX
 00006010  59		     3			POP ECX
 00006011  5E		     3			POP ESI
 00006012  5A		     2				POP  EDX
 00006013  FE C6	     2				INC  DH
 00006015  E8 00000000 E     2				Call GoToXY
 0000601A  52		     2				PUSH EDX
 0000601B  52		     3			PUSH EDX
 0000601C  51		     3			PUSH ECX
 0000601D  56		     3			PUSH ESI
 0000601E  BA 0000062E R     3				MOV EDX, OFFSET INFO_Panel_7
 00006023  E8 00000000 E     3				CALL WriteString
 00006028  59		     3			POP ECX
 00006029  59		     3			POP ECX
 0000602A  5E		     3			POP ESI
 0000602B  5A		     2				POP  EDX
 0000602C  FE C6	     2				INC  DH
 0000602E  E8 00000000 E     2				Call GoToXY
 00006033  52		     2				PUSH EDX
 00006034  52		     3			PUSH EDX
 00006035  51		     3			PUSH ECX
 00006036  56		     3			PUSH ESI
 00006037  BA 000006A7 R     3				MOV EDX, OFFSET INFO_Panel_8
 0000603C  E8 00000000 E     3				CALL WriteString
 00006041  59		     3			POP ECX
 00006042  59		     3			POP ECX
 00006043  5E		     3			POP ESI
 00006044  5A		     2				POP  EDX
 00006045  FE C6	     2				INC  DH
 00006047  E8 00000000 E     2				Call GoToXY
 0000604C  52		     2				PUSH EDX
 0000604D  52		     3			PUSH EDX
 0000604E  51		     3			PUSH ECX
 0000604F  56		     3			PUSH ESI
 00006050  BA 00000720 R     3				MOV EDX, OFFSET INFO_Panel_9
 00006055  E8 00000000 E     3				CALL WriteString
 0000605A  59		     3			POP ECX
 0000605B  59		     3			POP ECX
 0000605C  5E		     3			POP ESI
 0000605D  5A		     2				POP  EDX
 0000605E  FE C6	     2				INC  DH
 00006060  E8 00000000 E     2				Call GoToXY
 00006065  52		     2				PUSH EDX
 00006066  52		     3			PUSH EDX
 00006067  51		     3			PUSH ECX
 00006068  56		     3			PUSH ESI
 00006069  BA 00000799 R     3				MOV EDX, OFFSET INFO_Panel_10
 0000606E  E8 00000000 E     3				CALL WriteString
 00006073  59		     3			POP ECX
 00006074  59		     3			POP ECX
 00006075  5E		     3			POP ESI
 00006076  5A		     2				POP  EDX
 00006077  FE C6	     2				INC  DH
 00006079  E8 00000000 E     2				Call GoToXY
					Introduce
 0000607E  60		     3			PUSHAD
 0000607F  B8 00000000	     3				MOV EAX, 0
 00006088  50		     4			PUSH EAX
 00006089  B8 00000005	     4				MOV EAX, 5
 0000608E  A3 00000DD1 R     4				MOV HPLineX, 	EAX
 00006093  58		     4			POP EAX
 00006094  50		     4			PUSH EAX
 00006095  B8 0000000A	     4				MOV EAX, 10
 0000609A  A3 00000DD5 R     4				MOV HPLineY, 	EAX
 0000609F  58		     4			POP EAX
 000060A0  8B 1D 00000DC5 R  3					MOV EBX, UserCastleHP
 000060A8  50		     4			PUSH EAX
 000060A9  B8 00000069	     4				MOV EAX, 105
 000060AE  A3 00000DD1 R     4				MOV HPLineX, 	EAX
 000060B3  58		     4			POP EAX
 000060B4  50		     4			PUSH EAX
 000060B5  B8 0000000A	     4				MOV EAX, 10
 000060BA  A3 00000DD5 R     4				MOV HPLineY, 	EAX
 000060BF  58		     4			POP EAX
 000060C0  8B 1D 00000DC9 R  3					MOV EBX, CompCastleHP
 000060D2  60		     4			PUSHAD
 000060D3  8A 15 00000002 R  5			MOV  	dl, CurrentPointX
 000060D9  8A 35 00000003 R  5			MOV  	dh, CurrentPointY
 000060DF  88 15 00000000 R  5			MOV		LastPointX,	dl
 000060E5  88 35 00000001 R  5			MOV 	LastPointY,	dh
 000060EB  8A 15 00000DD1 R  5			MOV  	dl, BYTE PTR HPLineX
 000060F1  8A 35 00000DD5 R  5			MOV  	dh, BYTE PTR HPLineY
 000060F7  88 15 00000002 R  5			MOV 	CurrentPointX,	dl
 000060FD  88 35 00000003 R  5			MOV 	CurrentPointY,	dh
 00006103  E8 00000000 E     5			CALL 	Gotoxy  
 00006108  50		     5			PUSH 	EAX
 00006109  8B C3	     5				MOV 	EAX,	EBX
 0000610B  E8 00000000 E     5				CALL 	WriteDec
 00006110  58		     5			POP 	EAX
 00006111  50		     5			PUSH 	EAX
 00006112  B8 0000005B	     5				MOV 	EAX,	'['
 00006117  E8 00000000 E     5				CALL 	WriteChar
 0000611C  58		     5			POP 	EAX
 0000611D  B9 00000004	     4				MOV ECX, 4
 00006130  50		     5				PUSH 	EAX
 00006131  B8 00000004	     5					MOV 	EAX, Red
 00006136  E8 00000000 E     5					CALL	SetTextColor
 0000613B  58		     5				POP 	EAX
 0000613C  50		     5			PUSH 	EAX
 0000613D  B8 00000049	     5				MOV 	EAX,	'I'
 00006142  E8 00000000 E     5				CALL 	WriteChar
 00006147  58		     5			POP 	EAX
 00006148  50		     5			PUSH 	EAX
 00006149  B8 00000020	     5				MOV 	EAX,	' '
 0000614E  E8 00000000 E     5				CALL 	WriteChar
 00006153  58		     5			POP 	EAX
 00006154  50		     5			PUSH 	EAX
 00006155  B8 00000020	     5				MOV 	EAX,	' '
 0000615A  E8 00000000 E     5				CALL 	WriteChar
 0000615F  58		     5			POP 	EAX
 00006160  50		     5			PUSH 	EAX
 00006161  B8 00000020	     5				MOV 	EAX,	' '
 00006166  E8 00000000 E     5				CALL 	WriteChar
 0000616B  58		     5			POP 	EAX
 0000617F  50		     5				PUSH 	EAX
 00006180  B8 0000000C	     5					MOV 	EAX, LightRed
 00006185  E8 00000000 E     5					CALL	SetTextColor
 0000618A  58		     5				POP 	EAX
 0000618B  50		     5			PUSH 	EAX
 0000618C  B8 00000049	     5				MOV 	EAX,	'I'
 00006191  E8 00000000 E     5				CALL 	WriteChar
 00006196  58		     5			POP 	EAX
 00006197  50		     5			PUSH 	EAX
 00006198  B8 00000049	     5				MOV 	EAX,	'I'
 0000619D  E8 00000000 E     5				CALL 	WriteChar
 000061A2  58		     5			POP 	EAX
 000061A3  50		     5			PUSH 	EAX
 000061A4  B8 00000020	     5				MOV 	EAX,	' '
 000061A9  E8 00000000 E     5				CALL 	WriteChar
 000061AE  58		     5			POP 	EAX
 000061AF  50		     5			PUSH 	EAX
 000061B0  B8 00000020	     5				MOV 	EAX,	' '
 000061B5  E8 00000000 E     5				CALL 	WriteChar
 000061BA  58		     5			POP 	EAX
 000061CE  50		     5				PUSH 	EAX
 000061CF  B8 00000002	     5					MOV 	EAX, Green
 000061D4  E8 00000000 E     5					CALL	SetTextColor
 000061D9  58		     5				POP 	EAX
 000061DA  50		     5			PUSH 	EAX
 000061DB  B8 00000049	     5				MOV 	EAX,	'I'
 000061E0  E8 00000000 E     5				CALL 	WriteChar
 000061E5  58		     5			POP 	EAX
 000061E6  50		     5			PUSH 	EAX
 000061E7  B8 00000049	     5				MOV 	EAX,	'I'
 000061EC  E8 00000000 E     5				CALL 	WriteChar
 000061F1  58		     5			POP 	EAX
 000061F2  50		     5			PUSH 	EAX
 000061F3  B8 00000049	     5				MOV 	EAX,	'I'
 000061F8  E8 00000000 E     5				CALL 	WriteChar
 000061FD  58		     5			POP 	EAX
 000061FE  50		     5			PUSH 	EAX
 000061FF  B8 00000020	     5				MOV 	EAX,	' '
 00006204  E8 00000000 E     5				CALL 	WriteChar
 00006209  58		     5			POP 	EAX
 0000621A  50		     5				PUSH 	EAX
 0000621B  B8 0000000A	     5					MOV 	EAX, LightGreen
 00006220  E8 00000000 E     5					CALL	SetTextColor
 00006225  58		     5				POP 	EAX
 00006226  50		     5			PUSH 	EAX
 00006227  B8 00000049	     5				MOV 	EAX,	'I'
 0000622C  E8 00000000 E     5				CALL 	WriteChar
 00006231  58		     5			POP 	EAX
 00006232  50		     5			PUSH 	EAX
 00006233  B8 00000049	     5				MOV 	EAX,	'I'
 00006238  E8 00000000 E     5				CALL 	WriteChar
 0000623D  58		     5			POP 	EAX
 0000623E  50		     5			PUSH 	EAX
 0000623F  B8 00000049	     5				MOV 	EAX,	'I'
 00006244  E8 00000000 E     5				CALL 	WriteChar
 00006249  58		     5			POP 	EAX
 0000624A  50		     5			PUSH 	EAX
 0000624B  B8 00000049	     5				MOV 	EAX,	'I'
 00006250  E8 00000000 E     5				CALL 	WriteChar
 00006255  58		     5			POP 	EAX
 0000625F  50		     5				PUSH 	EAX
 00006260  B8 00000007	     5					MOV 	EAX, 00000111b
 00006265  E8 00000000 E     5					CALL	SetTextColor
 0000626A  58		     5				POP 	EAX
 0000626B  50		     5			PUSH 	EAX
 0000626C  B8 0000005D	     5				MOV 	EAX,	']'
 00006271  E8 00000000 E     5				CALL 	WriteChar
 00006276  58		     5			POP 	EAX
 00006277  8A 15 00000000 R  5			MOV  	dl, LastPointX
 0000627D  8A 35 00000001 R  5			MOV  	dh, LastPointY
 00006283  88 15 00000002 R  5			MOV 	CurrentPointX,	dl
 00006289  88 35 00000003 R  5			MOV 	CurrentPointY,	dh
 0000628F  E8 00000000 E     5			CALL 	Gotoxy 
 00006294  61		     4			POPAD
 000062A6  60		     4			PUSHAD
 000062A7  8A 15 00000002 R  5			MOV  	dl, CurrentPointX
 000062AD  8A 35 00000003 R  5			MOV  	dh, CurrentPointY
 000062B3  88 15 00000000 R  5			MOV		LastPointX,	dl
 000062B9  88 35 00000001 R  5			MOV 	LastPointY,	dh
 000062BF  8A 15 00000DD1 R  5			MOV  	dl, BYTE PTR HPLineX
 000062C5  8A 35 00000DD5 R  5			MOV  	dh, BYTE PTR HPLineY
 000062CB  88 15 00000002 R  5			MOV 	CurrentPointX,	dl
 000062D1  88 35 00000003 R  5			MOV 	CurrentPointY,	dh
 000062D7  E8 00000000 E     5			CALL 	Gotoxy  
 000062DC  50		     5			PUSH 	EAX
 000062DD  8B C3	     5				MOV 	EAX,	EBX
 000062DF  E8 00000000 E     5				CALL 	WriteDec
 000062E4  58		     5			POP 	EAX
 000062E5  50		     5			PUSH 	EAX
 000062E6  B8 0000005B	     5				MOV 	EAX,	'['
 000062EB  E8 00000000 E     5				CALL 	WriteChar
 000062F0  58		     5			POP 	EAX
 000062F1  B9 00000003	     4				MOV ECX, 3
 00006304  50		     5				PUSH 	EAX
 00006305  B8 00000004	     5					MOV 	EAX, Red
 0000630A  E8 00000000 E     5					CALL	SetTextColor
 0000630F  58		     5				POP 	EAX
 00006310  50		     5			PUSH 	EAX
 00006311  B8 00000049	     5				MOV 	EAX,	'I'
 00006316  E8 00000000 E     5				CALL 	WriteChar
 0000631B  58		     5			POP 	EAX
 0000631C  50		     5			PUSH 	EAX
 0000631D  B8 00000020	     5				MOV 	EAX,	' '
 00006322  E8 00000000 E     5				CALL 	WriteChar
 00006327  58		     5			POP 	EAX
 00006328  50		     5			PUSH 	EAX
 00006329  B8 00000020	     5				MOV 	EAX,	' '
 0000632E  E8 00000000 E     5				CALL 	WriteChar
 00006333  58		     5			POP 	EAX
 00006334  50		     5			PUSH 	EAX
 00006335  B8 00000020	     5				MOV 	EAX,	' '
 0000633A  E8 00000000 E     5				CALL 	WriteChar
 0000633F  58		     5			POP 	EAX
 00006353  50		     5				PUSH 	EAX
 00006354  B8 0000000C	     5					MOV 	EAX, LightRed
 00006359  E8 00000000 E     5					CALL	SetTextColor
 0000635E  58		     5				POP 	EAX
 0000635F  50		     5			PUSH 	EAX
 00006360  B8 00000049	     5				MOV 	EAX,	'I'
 00006365  E8 00000000 E     5				CALL 	WriteChar
 0000636A  58		     5			POP 	EAX
 0000636B  50		     5			PUSH 	EAX
 0000636C  B8 00000049	     5				MOV 	EAX,	'I'
 00006371  E8 00000000 E     5				CALL 	WriteChar
 00006376  58		     5			POP 	EAX
 00006377  50		     5			PUSH 	EAX
 00006378  B8 00000020	     5				MOV 	EAX,	' '
 0000637D  E8 00000000 E     5				CALL 	WriteChar
 00006382  58		     5			POP 	EAX
 00006383  50		     5			PUSH 	EAX
 00006384  B8 00000020	     5				MOV 	EAX,	' '
 00006389  E8 00000000 E     5				CALL 	WriteChar
 0000638E  58		     5			POP 	EAX
 000063A2  50		     5				PUSH 	EAX
 000063A3  B8 00000002	     5					MOV 	EAX, Green
 000063A8  E8 00000000 E     5					CALL	SetTextColor
 000063AD  58		     5				POP 	EAX
 000063AE  50		     5			PUSH 	EAX
 000063AF  B8 00000049	     5				MOV 	EAX,	'I'
 000063B4  E8 00000000 E     5				CALL 	WriteChar
 000063B9  58		     5			POP 	EAX
 000063BA  50		     5			PUSH 	EAX
 000063BB  B8 00000049	     5				MOV 	EAX,	'I'
 000063C0  E8 00000000 E     5				CALL 	WriteChar
 000063C5  58		     5			POP 	EAX
 000063C6  50		     5			PUSH 	EAX
 000063C7  B8 00000049	     5				MOV 	EAX,	'I'
 000063CC  E8 00000000 E     5				CALL 	WriteChar
 000063D1  58		     5			POP 	EAX
 000063D2  50		     5			PUSH 	EAX
 000063D3  B8 00000020	     5				MOV 	EAX,	' '
 000063D8  E8 00000000 E     5				CALL 	WriteChar
 000063DD  58		     5			POP 	EAX
 000063EE  50		     5				PUSH 	EAX
 000063EF  B8 0000000A	     5					MOV 	EAX, LightGreen
 000063F4  E8 00000000 E     5					CALL	SetTextColor
 000063F9  58		     5				POP 	EAX
 000063FA  50		     5			PUSH 	EAX
 000063FB  B8 00000049	     5				MOV 	EAX,	'I'
 00006400  E8 00000000 E     5				CALL 	WriteChar
 00006405  58		     5			POP 	EAX
 00006406  50		     5			PUSH 	EAX
 00006407  B8 00000049	     5				MOV 	EAX,	'I'
 0000640C  E8 00000000 E     5				CALL 	WriteChar
 00006411  58		     5			POP 	EAX
 00006412  50		     5			PUSH 	EAX
 00006413  B8 00000049	     5				MOV 	EAX,	'I'
 00006418  E8 00000000 E     5				CALL 	WriteChar
 0000641D  58		     5			POP 	EAX
 0000641E  50		     5			PUSH 	EAX
 0000641F  B8 00000049	     5				MOV 	EAX,	'I'
 00006424  E8 00000000 E     5				CALL 	WriteChar
 00006429  58		     5			POP 	EAX
 00006433  50		     5				PUSH 	EAX
 00006434  B8 00000007	     5					MOV 	EAX, 00000111b
 00006439  E8 00000000 E     5					CALL	SetTextColor
 0000643E  58		     5				POP 	EAX
 0000643F  50		     5			PUSH 	EAX
 00006440  B8 0000005D	     5				MOV 	EAX,	']'
 00006445  E8 00000000 E     5				CALL 	WriteChar
 0000644A  58		     5			POP 	EAX
 0000644B  8A 15 00000000 R  5			MOV  	dl, LastPointX
 00006451  8A 35 00000001 R  5			MOV  	dh, LastPointY
 00006457  88 15 00000002 R  5			MOV 	CurrentPointX,	dl
 0000645D  88 35 00000003 R  5			MOV 	CurrentPointY,	dh
 00006463  E8 00000000 E     5			CALL 	Gotoxy 
 00006468  61		     4			POPAD
 0000647A  60		     4			PUSHAD
 0000647B  8A 15 00000002 R  5			MOV  	dl, CurrentPointX
 00006481  8A 35 00000003 R  5			MOV  	dh, CurrentPointY
 00006487  88 15 00000000 R  5			MOV		LastPointX,	dl
 0000648D  88 35 00000001 R  5			MOV 	LastPointY,	dh
 00006493  8A 15 00000DD1 R  5			MOV  	dl, BYTE PTR HPLineX
 00006499  8A 35 00000DD5 R  5			MOV  	dh, BYTE PTR HPLineY
 0000649F  88 15 00000002 R  5			MOV 	CurrentPointX,	dl
 000064A5  88 35 00000003 R  5			MOV 	CurrentPointY,	dh
 000064AB  E8 00000000 E     5			CALL 	Gotoxy  
 000064B0  50		     5			PUSH 	EAX
 000064B1  8B C3	     5				MOV 	EAX,	EBX
 000064B3  E8 00000000 E     5				CALL 	WriteDec
 000064B8  58		     5			POP 	EAX
 000064B9  50		     5			PUSH 	EAX
 000064BA  B8 0000005B	     5				MOV 	EAX,	'['
 000064BF  E8 00000000 E     5				CALL 	WriteChar
 000064C4  58		     5			POP 	EAX
 000064C5  B9 00000002	     4				MOV ECX, 2
 000064D8  50		     5				PUSH 	EAX
 000064D9  B8 00000004	     5					MOV 	EAX, Red
 000064DE  E8 00000000 E     5					CALL	SetTextColor
 000064E3  58		     5				POP 	EAX
 000064E4  50		     5			PUSH 	EAX
 000064E5  B8 00000049	     5				MOV 	EAX,	'I'
 000064EA  E8 00000000 E     5				CALL 	WriteChar
 000064EF  58		     5			POP 	EAX
 000064F0  50		     5			PUSH 	EAX
 000064F1  B8 00000020	     5				MOV 	EAX,	' '
 000064F6  E8 00000000 E     5				CALL 	WriteChar
 000064FB  58		     5			POP 	EAX
 000064FC  50		     5			PUSH 	EAX
 000064FD  B8 00000020	     5				MOV 	EAX,	' '
 00006502  E8 00000000 E     5				CALL 	WriteChar
 00006507  58		     5			POP 	EAX
 00006508  50		     5			PUSH 	EAX
 00006509  B8 00000020	     5				MOV 	EAX,	' '
 0000650E  E8 00000000 E     5				CALL 	WriteChar
 00006513  58		     5			POP 	EAX
 00006527  50		     5				PUSH 	EAX
 00006528  B8 0000000C	     5					MOV 	EAX, LightRed
 0000652D  E8 00000000 E     5					CALL	SetTextColor
 00006532  58		     5				POP 	EAX
 00006533  50		     5			PUSH 	EAX
 00006534  B8 00000049	     5				MOV 	EAX,	'I'
 00006539  E8 00000000 E     5				CALL 	WriteChar
 0000653E  58		     5			POP 	EAX
 0000653F  50		     5			PUSH 	EAX
 00006540  B8 00000049	     5				MOV 	EAX,	'I'
 00006545  E8 00000000 E     5				CALL 	WriteChar
 0000654A  58		     5			POP 	EAX
 0000654B  50		     5			PUSH 	EAX
 0000654C  B8 00000020	     5				MOV 	EAX,	' '
 00006551  E8 00000000 E     5				CALL 	WriteChar
 00006556  58		     5			POP 	EAX
 00006557  50		     5			PUSH 	EAX
 00006558  B8 00000020	     5				MOV 	EAX,	' '
 0000655D  E8 00000000 E     5				CALL 	WriteChar
 00006562  58		     5			POP 	EAX
 00006576  50		     5				PUSH 	EAX
 00006577  B8 00000002	     5					MOV 	EAX, Green
 0000657C  E8 00000000 E     5					CALL	SetTextColor
 00006581  58		     5				POP 	EAX
 00006582  50		     5			PUSH 	EAX
 00006583  B8 00000049	     5				MOV 	EAX,	'I'
 00006588  E8 00000000 E     5				CALL 	WriteChar
 0000658D  58		     5			POP 	EAX
 0000658E  50		     5			PUSH 	EAX
 0000658F  B8 00000049	     5				MOV 	EAX,	'I'
 00006594  E8 00000000 E     5				CALL 	WriteChar
 00006599  58		     5			POP 	EAX
 0000659A  50		     5			PUSH 	EAX
 0000659B  B8 00000049	     5				MOV 	EAX,	'I'
 000065A0  E8 00000000 E     5				CALL 	WriteChar
 000065A5  58		     5			POP 	EAX
 000065A6  50		     5			PUSH 	EAX
 000065A7  B8 00000020	     5				MOV 	EAX,	' '
 000065AC  E8 00000000 E     5				CALL 	WriteChar
 000065B1  58		     5			POP 	EAX
 000065C2  50		     5				PUSH 	EAX
 000065C3  B8 0000000A	     5					MOV 	EAX, LightGreen
 000065C8  E8 00000000 E     5					CALL	SetTextColor
 000065CD  58		     5				POP 	EAX
 000065CE  50		     5			PUSH 	EAX
 000065CF  B8 00000049	     5				MOV 	EAX,	'I'
 000065D4  E8 00000000 E     5				CALL 	WriteChar
 000065D9  58		     5			POP 	EAX
 000065DA  50		     5			PUSH 	EAX
 000065DB  B8 00000049	     5				MOV 	EAX,	'I'
 000065E0  E8 00000000 E     5				CALL 	WriteChar
 000065E5  58		     5			POP 	EAX
 000065E6  50		     5			PUSH 	EAX
 000065E7  B8 00000049	     5				MOV 	EAX,	'I'
 000065EC  E8 00000000 E     5				CALL 	WriteChar
 000065F1  58		     5			POP 	EAX
 000065F2  50		     5			PUSH 	EAX
 000065F3  B8 00000049	     5				MOV 	EAX,	'I'
 000065F8  E8 00000000 E     5				CALL 	WriteChar
 000065FD  58		     5			POP 	EAX
 00006607  50		     5				PUSH 	EAX
 00006608  B8 00000007	     5					MOV 	EAX, 00000111b
 0000660D  E8 00000000 E     5					CALL	SetTextColor
 00006612  58		     5				POP 	EAX
 00006613  50		     5			PUSH 	EAX
 00006614  B8 0000005D	     5				MOV 	EAX,	']'
 00006619  E8 00000000 E     5				CALL 	WriteChar
 0000661E  58		     5			POP 	EAX
 0000661F  8A 15 00000000 R  5			MOV  	dl, LastPointX
 00006625  8A 35 00000001 R  5			MOV  	dh, LastPointY
 0000662B  88 15 00000002 R  5			MOV 	CurrentPointX,	dl
 00006631  88 35 00000003 R  5			MOV 	CurrentPointY,	dh
 00006637  E8 00000000 E     5			CALL 	Gotoxy 
 0000663C  61		     4			POPAD
 00006642  60		     4			PUSHAD
 00006643  8A 15 00000002 R  5			MOV  	dl, CurrentPointX
 00006649  8A 35 00000003 R  5			MOV  	dh, CurrentPointY
 0000664F  88 15 00000000 R  5			MOV		LastPointX,	dl
 00006655  88 35 00000001 R  5			MOV 	LastPointY,	dh
 0000665B  8A 15 00000DD1 R  5			MOV  	dl, BYTE PTR HPLineX
 00006661  8A 35 00000DD5 R  5			MOV  	dh, BYTE PTR HPLineY
 00006667  88 15 00000002 R  5			MOV 	CurrentPointX,	dl
 0000666D  88 35 00000003 R  5			MOV 	CurrentPointY,	dh
 00006673  E8 00000000 E     5			CALL 	Gotoxy  
 00006678  50		     5			PUSH 	EAX
 00006679  8B C3	     5				MOV 	EAX,	EBX
 0000667B  E8 00000000 E     5				CALL 	WriteDec
 00006680  58		     5			POP 	EAX
 00006681  50		     5			PUSH 	EAX
 00006682  B8 0000005B	     5				MOV 	EAX,	'['
 00006687  E8 00000000 E     5				CALL 	WriteChar
 0000668C  58		     5			POP 	EAX
 0000668D  B9 00000001	     4				MOV ECX, 1
 000066A0  50		     5				PUSH 	EAX
 000066A1  B8 00000004	     5					MOV 	EAX, Red
 000066A6  E8 00000000 E     5					CALL	SetTextColor
 000066AB  58		     5				POP 	EAX
 000066AC  50		     5			PUSH 	EAX
 000066AD  B8 00000049	     5				MOV 	EAX,	'I'
 000066B2  E8 00000000 E     5				CALL 	WriteChar
 000066B7  58		     5			POP 	EAX
 000066B8  50		     5			PUSH 	EAX
 000066B9  B8 00000020	     5				MOV 	EAX,	' '
 000066BE  E8 00000000 E     5				CALL 	WriteChar
 000066C3  58		     5			POP 	EAX
 000066C4  50		     5			PUSH 	EAX
 000066C5  B8 00000020	     5				MOV 	EAX,	' '
 000066CA  E8 00000000 E     5				CALL 	WriteChar
 000066CF  58		     5			POP 	EAX
 000066D0  50		     5			PUSH 	EAX
 000066D1  B8 00000020	     5				MOV 	EAX,	' '
 000066D6  E8 00000000 E     5				CALL 	WriteChar
 000066DB  58		     5			POP 	EAX
 000066EF  50		     5				PUSH 	EAX
 000066F0  B8 0000000C	     5					MOV 	EAX, LightRed
 000066F5  E8 00000000 E     5					CALL	SetTextColor
 000066FA  58		     5				POP 	EAX
 000066FB  50		     5			PUSH 	EAX
 000066FC  B8 00000049	     5				MOV 	EAX,	'I'
 00006701  E8 00000000 E     5				CALL 	WriteChar
 00006706  58		     5			POP 	EAX
 00006707  50		     5			PUSH 	EAX
 00006708  B8 00000049	     5				MOV 	EAX,	'I'
 0000670D  E8 00000000 E     5				CALL 	WriteChar
 00006712  58		     5			POP 	EAX
 00006713  50		     5			PUSH 	EAX
 00006714  B8 00000020	     5				MOV 	EAX,	' '
 00006719  E8 00000000 E     5				CALL 	WriteChar
 0000671E  58		     5			POP 	EAX
 0000671F  50		     5			PUSH 	EAX
 00006720  B8 00000020	     5				MOV 	EAX,	' '
 00006725  E8 00000000 E     5				CALL 	WriteChar
 0000672A  58		     5			POP 	EAX
 0000673E  50		     5				PUSH 	EAX
 0000673F  B8 00000002	     5					MOV 	EAX, Green
 00006744  E8 00000000 E     5					CALL	SetTextColor
 00006749  58		     5				POP 	EAX
 0000674A  50		     5			PUSH 	EAX
 0000674B  B8 00000049	     5				MOV 	EAX,	'I'
 00006750  E8 00000000 E     5				CALL 	WriteChar
 00006755  58		     5			POP 	EAX
 00006756  50		     5			PUSH 	EAX
 00006757  B8 00000049	     5				MOV 	EAX,	'I'
 0000675C  E8 00000000 E     5				CALL 	WriteChar
 00006761  58		     5			POP 	EAX
 00006762  50		     5			PUSH 	EAX
 00006763  B8 00000049	     5				MOV 	EAX,	'I'
 00006768  E8 00000000 E     5				CALL 	WriteChar
 0000676D  58		     5			POP 	EAX
 0000676E  50		     5			PUSH 	EAX
 0000676F  B8 00000020	     5				MOV 	EAX,	' '
 00006774  E8 00000000 E     5				CALL 	WriteChar
 00006779  58		     5			POP 	EAX
 0000678A  50		     5				PUSH 	EAX
 0000678B  B8 0000000A	     5					MOV 	EAX, LightGreen
 00006790  E8 00000000 E     5					CALL	SetTextColor
 00006795  58		     5				POP 	EAX
 00006796  50		     5			PUSH 	EAX
 00006797  B8 00000049	     5				MOV 	EAX,	'I'
 0000679C  E8 00000000 E     5				CALL 	WriteChar
 000067A1  58		     5			POP 	EAX
 000067A2  50		     5			PUSH 	EAX
 000067A3  B8 00000049	     5				MOV 	EAX,	'I'
 000067A8  E8 00000000 E     5				CALL 	WriteChar
 000067AD  58		     5			POP 	EAX
 000067AE  50		     5			PUSH 	EAX
 000067AF  B8 00000049	     5				MOV 	EAX,	'I'
 000067B4  E8 00000000 E     5				CALL 	WriteChar
 000067B9  58		     5			POP 	EAX
 000067BA  50		     5			PUSH 	EAX
 000067BB  B8 00000049	     5				MOV 	EAX,	'I'
 000067C0  E8 00000000 E     5				CALL 	WriteChar
 000067C5  58		     5			POP 	EAX
 000067CF  50		     5				PUSH 	EAX
 000067D0  B8 00000007	     5					MOV 	EAX, 00000111b
 000067D5  E8 00000000 E     5					CALL	SetTextColor
 000067DA  58		     5				POP 	EAX
 000067DB  50		     5			PUSH 	EAX
 000067DC  B8 0000005D	     5				MOV 	EAX,	']'
 000067E1  E8 00000000 E     5				CALL 	WriteChar
 000067E6  58		     5			POP 	EAX
 000067E7  8A 15 00000000 R  5			MOV  	dl, LastPointX
 000067ED  8A 35 00000001 R  5			MOV  	dh, LastPointY
 000067F3  88 15 00000002 R  5			MOV 	CurrentPointX,	dl
 000067F9  88 35 00000003 R  5			MOV 	CurrentPointY,	dh
 000067FF  E8 00000000 E     5			CALL 	Gotoxy 
 00006804  61		     4			POPAD
 00006805  61		     3			POPAD
 00006806  B8 00000000	     2			MOV EAX,	0
 0000681C  50		     3				PUSH 	EAX
 0000681D  B8 0000000E	     3					MOV 	EAX, Yellow
 00006822  E8 00000000 E     3					CALL	SetTextColor
 00006827  58		     3				POP 	EAX
 00006835  8A 15 00000002 R  4			MOV  	dl, CurrentPointX
 0000683B  8A 35 00000003 R  4			MOV  	dh, CurrentPointY
 00006841  88 15 00000000 R  4			MOV		LastPointX,	dl
 00006847  88 35 00000001 R  4			MOV 	LastPointY,	dh
 0000684D  B2 00	     4			MOV  	dl, BYTE PTR 0
 0000684F  B6 0D	     4			MOV  	dh, BYTE PTR 13
 00006851  88 15 00000002 R  4			MOV 	CurrentPointX,	dl
 00006857  88 35 00000003 R  4			MOV 	CurrentPointY,	dh
 0000685D  E8 00000000 E     4			CALL 	Gotoxy  
 00006862  52		     4				PUSH EDX
 00006863  52		     5			PUSH EDX
 00006864  51		     5			PUSH ECX
 00006865  56		     5			PUSH ESI
 00006866  BA 00000004 R     5				MOV EDX, OFFSET UserCastle_1_1
 0000686B  E8 00000000 E     5				CALL WriteString
 00006870  59		     5			POP ECX
 00006871  59		     5			POP ECX
 00006872  5E		     5			POP ESI
 00006873  5A		     4				POP  EDX
 00006874  FE C6	     4				INC  DH
 00006876  E8 00000000 E     4				Call GoToXY
 0000687B  52		     4				PUSH EDX
 0000687C  52		     5			PUSH EDX
 0000687D  51		     5			PUSH ECX
 0000687E  56		     5			PUSH ESI
 0000687F  BA 00000019 R     5				MOV EDX, OFFSET UserCastle_1_2
 00006884  E8 00000000 E     5				CALL WriteString
 00006889  59		     5			POP ECX
 0000688A  59		     5			POP ECX
 0000688B  5E		     5			POP ESI
 0000688C  5A		     4				POP  EDX
 0000688D  FE C6	     4				INC  DH
 0000688F  E8 00000000 E     4				Call GoToXY
 00006894  52		     4				PUSH EDX
 00006895  52		     5			PUSH EDX
 00006896  51		     5			PUSH ECX
 00006897  56		     5			PUSH ESI
 00006898  BA 00000031 R     5				MOV EDX, OFFSET UserCastle_1_3
 0000689D  E8 00000000 E     5				CALL WriteString
 000068A2  59		     5			POP ECX
 000068A3  59		     5			POP ECX
 000068A4  5E		     5			POP ESI
 000068A5  5A		     4				POP  EDX
 000068A6  FE C6	     4				INC  DH
 000068A8  E8 00000000 E     4				Call GoToXY
 000068AD  52		     4				PUSH EDX
 000068AE  52		     5			PUSH EDX
 000068AF  51		     5			PUSH ECX
 000068B0  56		     5			PUSH ESI
 000068B1  BA 00000046 R     5				MOV EDX, OFFSET UserCastle_1_4
 000068B6  E8 00000000 E     5				CALL WriteString
 000068BB  59		     5			POP ECX
 000068BC  59		     5			POP ECX
 000068BD  5E		     5			POP ESI
 000068BE  5A		     4				POP  EDX
 000068BF  FE C6	     4				INC  DH
 000068C1  E8 00000000 E     4				Call GoToXY
 000068C6  52		     4				PUSH EDX
 000068C7  52		     5			PUSH EDX
 000068C8  51		     5			PUSH ECX
 000068C9  56		     5			PUSH ESI
 000068CA  BA 0000005B R     5				MOV EDX, OFFSET UserCastle_1_5
 000068CF  E8 00000000 E     5				CALL WriteString
 000068D4  59		     5			POP ECX
 000068D5  59		     5			POP ECX
 000068D6  5E		     5			POP ESI
 000068D7  5A		     4				POP  EDX
 000068D8  FE C6	     4				INC  DH
 000068DA  E8 00000000 E     4				Call GoToXY
 000068F1  8A 15 00000002 R  4			MOV  	dl, CurrentPointX
 000068F7  8A 35 00000003 R  4			MOV  	dh, CurrentPointY
 000068FD  88 15 00000000 R  4			MOV		LastPointX,	dl
 00006903  88 35 00000001 R  4			MOV 	LastPointY,	dh
 00006909  B2 00	     4			MOV  	dl, BYTE PTR 0
 0000690B  B6 0A	     4			MOV  	dh, BYTE PTR 10
 0000690D  88 15 00000002 R  4			MOV 	CurrentPointX,	dl
 00006913  88 35 00000003 R  4			MOV 	CurrentPointY,	dh
 00006919  E8 00000000 E     4			CALL 	Gotoxy  
 0000691E  52		     4				PUSH EDX
 0000691F  52		     5			PUSH EDX
 00006920  51		     5			PUSH ECX
 00006921  56		     5			PUSH ESI
 00006922  BA 00000070 R     5				MOV EDX, OFFSET UserCastle_2_1
 00006927  E8 00000000 E     5				CALL WriteString
 0000692C  59		     5			POP ECX
 0000692D  59		     5			POP ECX
 0000692E  5E		     5			POP ESI
 0000692F  5A		     4				POP  EDX
 00006930  FE C6	     4				INC  DH
 00006932  E8 00000000 E     4				Call GoToXY
 00006937  52		     4				PUSH EDX
 00006938  52		     5			PUSH EDX
 00006939  51		     5			PUSH ECX
 0000693A  56		     5			PUSH ESI
 0000693B  BA 00000083 R     5				MOV EDX, OFFSET UserCastle_2_2
 00006940  E8 00000000 E     5				CALL WriteString
 00006945  59		     5			POP ECX
 00006946  59		     5			POP ECX
 00006947  5E		     5			POP ESI
 00006948  5A		     4				POP  EDX
 00006949  FE C6	     4				INC  DH
 0000694B  E8 00000000 E     4				Call GoToXY
 00006950  52		     4				PUSH EDX
 00006951  52		     5			PUSH EDX
 00006952  51		     5			PUSH ECX
 00006953  56		     5			PUSH ESI
 00006954  BA 00000096 R     5				MOV EDX, OFFSET UserCastle_2_3
 00006959  E8 00000000 E     5				CALL WriteString
 0000695E  59		     5			POP ECX
 0000695F  59		     5			POP ECX
 00006960  5E		     5			POP ESI
 00006961  5A		     4				POP  EDX
 00006962  FE C6	     4				INC  DH
 00006964  E8 00000000 E     4				Call GoToXY
 00006969  52		     4				PUSH EDX
 0000696A  52		     5			PUSH EDX
 0000696B  51		     5			PUSH ECX
 0000696C  56		     5			PUSH ESI
 0000696D  BA 000000AA R     5				MOV EDX, OFFSET UserCastle_2_4
 00006972  E8 00000000 E     5				CALL WriteString
 00006977  59		     5			POP ECX
 00006978  59		     5			POP ECX
 00006979  5E		     5			POP ESI
 0000697A  5A		     4				POP  EDX
 0000697B  FE C6	     4				INC  DH
 0000697D  E8 00000000 E     4				Call GoToXY
 00006982  52		     4				PUSH EDX
 00006983  52		     5			PUSH EDX
 00006984  51		     5			PUSH ECX
 00006985  56		     5			PUSH ESI
 00006986  BA 000000C0 R     5				MOV EDX, OFFSET UserCastle_2_5
 0000698B  E8 00000000 E     5				CALL WriteString
 00006990  59		     5			POP ECX
 00006991  59		     5			POP ECX
 00006992  5E		     5			POP ESI
 00006993  5A		     4				POP  EDX
 00006994  FE C6	     4				INC  DH
 00006996  E8 00000000 E     4				Call GoToXY
 0000699B  52		     4				PUSH EDX
 0000699C  52		     5			PUSH EDX
 0000699D  51		     5			PUSH ECX
 0000699E  56		     5			PUSH ESI
 0000699F  BA 000000D8 R     5				MOV EDX, OFFSET UserCastle_2_6
 000069A4  E8 00000000 E     5				CALL WriteString
 000069A9  59		     5			POP ECX
 000069AA  59		     5			POP ECX
 000069AB  5E		     5			POP ESI
 000069AC  5A		     4				POP  EDX
 000069AD  FE C6	     4				INC  DH
 000069AF  E8 00000000 E     4				Call GoToXY
 000069B4  52		     4				PUSH EDX
 000069B5  52		     5			PUSH EDX
 000069B6  51		     5			PUSH ECX
 000069B7  56		     5			PUSH ESI
 000069B8  BA 000000ED R     5				MOV EDX, OFFSET UserCastle_2_7
 000069BD  E8 00000000 E     5				CALL WriteString
 000069C2  59		     5			POP ECX
 000069C3  59		     5			POP ECX
 000069C4  5E		     5			POP ESI
 000069C5  5A		     4				POP  EDX
 000069C6  FE C6	     4				INC  DH
 000069C8  E8 00000000 E     4				Call GoToXY
 000069CD  52		     4				PUSH EDX
 000069CE  52		     5			PUSH EDX
 000069CF  51		     5			PUSH ECX
 000069D0  56		     5			PUSH ESI
 000069D1  BA 00000104 R     5				MOV EDX, OFFSET UserCastle_2_8
 000069D6  E8 00000000 E     5				CALL WriteString
 000069DB  59		     5			POP ECX
 000069DC  59		     5			POP ECX
 000069DD  5E		     5			POP ESI
 000069DE  5A		     4				POP  EDX
 000069DF  FE C6	     4				INC  DH
 000069E1  E8 00000000 E     4				Call GoToXY
 000069F8  8A 15 00000002 R  4			MOV  	dl, CurrentPointX
 000069FE  8A 35 00000003 R  4			MOV  	dh, CurrentPointY
 00006A04  88 15 00000000 R  4			MOV		LastPointX,	dl
 00006A0A  88 35 00000001 R  4			MOV 	LastPointY,	dh
 00006A10  B2 00	     4			MOV  	dl, BYTE PTR 0
 00006A12  B6 09	     4			MOV  	dh, BYTE PTR 9
 00006A14  88 15 00000002 R  4			MOV 	CurrentPointX,	dl
 00006A1A  88 35 00000003 R  4			MOV 	CurrentPointY,	dh
 00006A20  E8 00000000 E     4			CALL 	Gotoxy  
 00006A25  52		     4				PUSH EDX
 00006A26  52		     5			PUSH EDX
 00006A27  51		     5			PUSH ECX
 00006A28  56		     5			PUSH ESI
 00006A29  BA 0000011B R     5				MOV EDX, OFFSET UserCastle_3_1
 00006A2E  E8 00000000 E     5				CALL WriteString
 00006A33  59		     5			POP ECX
 00006A34  59		     5			POP ECX
 00006A35  5E		     5			POP ESI
 00006A36  5A		     4				POP  EDX
 00006A37  FE C6	     4				INC  DH
 00006A39  E8 00000000 E     4				Call GoToXY
 00006A3E  52		     4				PUSH EDX
 00006A3F  52		     5			PUSH EDX
 00006A40  51		     5			PUSH ECX
 00006A41  56		     5			PUSH ESI
 00006A42  BA 0000012D R     5				MOV EDX, OFFSET UserCastle_3_2
 00006A47  E8 00000000 E     5				CALL WriteString
 00006A4C  59		     5			POP ECX
 00006A4D  59		     5			POP ECX
 00006A4E  5E		     5			POP ESI
 00006A4F  5A		     4				POP  EDX
 00006A50  FE C6	     4				INC  DH
 00006A52  E8 00000000 E     4				Call GoToXY
 00006A57  52		     4				PUSH EDX
 00006A58  52		     5			PUSH EDX
 00006A59  51		     5			PUSH ECX
 00006A5A  56		     5			PUSH ESI
 00006A5B  BA 0000013F R     5				MOV EDX, OFFSET UserCastle_3_3
 00006A60  E8 00000000 E     5				CALL WriteString
 00006A65  59		     5			POP ECX
 00006A66  59		     5			POP ECX
 00006A67  5E		     5			POP ESI
 00006A68  5A		     4				POP  EDX
 00006A69  FE C6	     4				INC  DH
 00006A6B  E8 00000000 E     4				Call GoToXY
 00006A70  52		     4				PUSH EDX
 00006A71  52		     5			PUSH EDX
 00006A72  51		     5			PUSH ECX
 00006A73  56		     5			PUSH ESI
 00006A74  BA 00000154 R     5				MOV EDX, OFFSET UserCastle_3_4
 00006A79  E8 00000000 E     5				CALL WriteString
 00006A7E  59		     5			POP ECX
 00006A7F  59		     5			POP ECX
 00006A80  5E		     5			POP ESI
 00006A81  5A		     4				POP  EDX
 00006A82  FE C6	     4				INC  DH
 00006A84  E8 00000000 E     4				Call GoToXY
 00006A89  52		     4				PUSH EDX
 00006A8A  52		     5			PUSH EDX
 00006A8B  51		     5			PUSH ECX
 00006A8C  56		     5			PUSH ESI
 00006A8D  BA 00000169 R     5				MOV EDX, OFFSET UserCastle_3_5
 00006A92  E8 00000000 E     5				CALL WriteString
 00006A97  59		     5			POP ECX
 00006A98  59		     5			POP ECX
 00006A99  5E		     5			POP ESI
 00006A9A  5A		     4				POP  EDX
 00006A9B  FE C6	     4				INC  DH
 00006A9D  E8 00000000 E     4				Call GoToXY
 00006AA2  52		     4				PUSH EDX
 00006AA3  52		     5			PUSH EDX
 00006AA4  51		     5			PUSH ECX
 00006AA5  56		     5			PUSH ESI
 00006AA6  BA 00000180 R     5				MOV EDX, OFFSET UserCastle_3_6
 00006AAB  E8 00000000 E     5				CALL WriteString
 00006AB0  59		     5			POP ECX
 00006AB1  59		     5			POP ECX
 00006AB2  5E		     5			POP ESI
 00006AB3  5A		     4				POP  EDX
 00006AB4  FE C6	     4				INC  DH
 00006AB6  E8 00000000 E     4				Call GoToXY
 00006ABB  52		     4				PUSH EDX
 00006ABC  52		     5			PUSH EDX
 00006ABD  51		     5			PUSH ECX
 00006ABE  56		     5			PUSH ESI
 00006ABF  BA 00000197 R     5				MOV EDX, OFFSET UserCastle_3_7
 00006AC4  E8 00000000 E     5				CALL WriteString
 00006AC9  59		     5			POP ECX
 00006ACA  59		     5			POP ECX
 00006ACB  5E		     5			POP ESI
 00006ACC  5A		     4				POP  EDX
 00006ACD  FE C6	     4				INC  DH
 00006ACF  E8 00000000 E     4				Call GoToXY
 00006AD4  52		     4				PUSH EDX
 00006AD5  52		     5			PUSH EDX
 00006AD6  51		     5			PUSH ECX
 00006AD7  56		     5			PUSH ESI
 00006AD8  BA 000001AF R     5				MOV EDX, OFFSET UserCastle_3_8
 00006ADD  E8 00000000 E     5				CALL WriteString
 00006AE2  59		     5			POP ECX
 00006AE3  59		     5			POP ECX
 00006AE4  5E		     5			POP ESI
 00006AE5  5A		     4				POP  EDX
 00006AE6  FE C6	     4				INC  DH
 00006AE8  E8 00000000 E     4				Call GoToXY
 00006AED  52		     4				PUSH EDX
 00006AEE  52		     5			PUSH EDX
 00006AEF  51		     5			PUSH ECX
 00006AF0  56		     5			PUSH ESI
 00006AF1  BA 000001C7 R     5				MOV EDX, OFFSET UserCastle_3_9
 00006AF6  E8 00000000 E     5				CALL WriteString
 00006AFB  59		     5			POP ECX
 00006AFC  59		     5			POP ECX
 00006AFD  5E		     5			POP ESI
 00006AFE  5A		     4				POP  EDX
 00006AFF  FE C6	     4				INC  DH
 00006B01  E8 00000000 E     4				Call GoToXY
 00006B13  50		     3				PUSH 	EAX
 00006B14  B8 00000007	     3					MOV 	EAX, 00000111b
 00006B19  E8 00000000 E     3					CALL	SetTextColor
 00006B1E  58		     3				POP 	EAX
 00006B2D  50		     3				PUSH 	EAX
 00006B2E  B8 0000000C	     3					MOV 	EAX, LightRed
 00006B33  E8 00000000 E     3					CALL	SetTextColor
 00006B38  58		     3				POP 	EAX
 00006B46  8A 15 00000002 R  4			MOV  	dl, CurrentPointX
 00006B4C  8A 35 00000003 R  4			MOV  	dh, CurrentPointY
 00006B52  88 15 00000000 R  4			MOV		LastPointX,	dl
 00006B58  88 35 00000001 R  4			MOV 	LastPointY,	dh
 00006B5E  B2 00	     4			MOV  	dl, BYTE PTR 0
 00006B60  B6 0C	     4			MOV  	dh, BYTE PTR 12
 00006B62  88 15 00000002 R  4			MOV 	CurrentPointX,	dl
 00006B68  88 35 00000003 R  4			MOV 	CurrentPointY,	dh
 00006B6E  E8 00000000 E     4			CALL 	Gotoxy  
 00006B73  52		     4				PUSH EDX
 00006B74  52		     5			PUSH EDX
 00006B75  51		     5			PUSH ECX
 00006B76  56		     5			PUSH ESI
 00006B77  BA 000001DF R     5				MOV EDX, OFFSET CompCastle_1_1
 00006B7C  E8 00000000 E     5				CALL WriteString
 00006B81  59		     5			POP ECX
 00006B82  59		     5			POP ECX
 00006B83  5E		     5			POP ESI
 00006B84  5A		     4				POP  EDX
 00006B85  FE C6	     4				INC  DH
 00006B87  E8 00000000 E     4				Call GoToXY
 00006B8C  52		     4				PUSH EDX
 00006B8D  52		     5			PUSH EDX
 00006B8E  51		     5			PUSH ECX
 00006B8F  56		     5			PUSH ESI
 00006B90  BA 000001EF R     5				MOV EDX, OFFSET CompCastle_1_2
 00006B95  E8 00000000 E     5				CALL WriteString
 00006B9A  59		     5			POP ECX
 00006B9B  59		     5			POP ECX
 00006B9C  5E		     5			POP ESI
 00006B9D  5A		     4				POP  EDX
 00006B9E  FE C6	     4				INC  DH
 00006BA0  E8 00000000 E     4				Call GoToXY
 00006BA5  52		     4				PUSH EDX
 00006BA6  52		     5			PUSH EDX
 00006BA7  51		     5			PUSH ECX
 00006BA8  56		     5			PUSH ESI
 00006BA9  BA 000001FC R     5				MOV EDX, OFFSET CompCastle_1_3
 00006BAE  E8 00000000 E     5				CALL WriteString
 00006BB3  59		     5			POP ECX
 00006BB4  59		     5			POP ECX
 00006BB5  5E		     5			POP ESI
 00006BB6  5A		     4				POP  EDX
 00006BB7  FE C6	     4				INC  DH
 00006BB9  E8 00000000 E     4				Call GoToXY
 00006BBE  52		     4				PUSH EDX
 00006BBF  52		     5			PUSH EDX
 00006BC0  51		     5			PUSH ECX
 00006BC1  56		     5			PUSH ESI
 00006BC2  BA 00000209 R     5				MOV EDX, OFFSET CompCastle_1_4
 00006BC7  E8 00000000 E     5				CALL WriteString
 00006BCC  59		     5			POP ECX
 00006BCD  59		     5			POP ECX
 00006BCE  5E		     5			POP ESI
 00006BCF  5A		     4				POP  EDX
 00006BD0  FE C6	     4				INC  DH
 00006BD2  E8 00000000 E     4				Call GoToXY
 00006BD7  52		     4				PUSH EDX
 00006BD8  52		     5			PUSH EDX
 00006BD9  51		     5			PUSH ECX
 00006BDA  56		     5			PUSH ESI
 00006BDB  BA 00000216 R     5				MOV EDX, OFFSET CompCastle_1_5
 00006BE0  E8 00000000 E     5				CALL WriteString
 00006BE5  59		     5			POP ECX
 00006BE6  59		     5			POP ECX
 00006BE7  5E		     5			POP ESI
 00006BE8  5A		     4				POP  EDX
 00006BE9  FE C6	     4				INC  DH
 00006BEB  E8 00000000 E     4				Call GoToXY
 00006BF0  52		     4				PUSH EDX
 00006BF1  52		     5			PUSH EDX
 00006BF2  51		     5			PUSH ECX
 00006BF3  56		     5			PUSH ESI
 00006BF4  BA 00000223 R     5				MOV EDX, OFFSET CompCastle_1_6
 00006BF9  E8 00000000 E     5				CALL WriteString
 00006BFE  59		     5			POP ECX
 00006BFF  59		     5			POP ECX
 00006C00  5E		     5			POP ESI
 00006C01  5A		     4				POP  EDX
 00006C02  FE C6	     4				INC  DH
 00006C04  E8 00000000 E     4				Call GoToXY
 00006C1B  8A 15 00000002 R  4			MOV  	dl, CurrentPointX
 00006C21  8A 35 00000003 R  4			MOV  	dh, CurrentPointY
 00006C27  88 15 00000000 R  4			MOV		LastPointX,	dl
 00006C2D  88 35 00000001 R  4			MOV 	LastPointY,	dh
 00006C33  B2 00	     4			MOV  	dl, BYTE PTR 0
 00006C35  B6 0A	     4			MOV  	dh, BYTE PTR 10
 00006C37  88 15 00000002 R  4			MOV 	CurrentPointX,	dl
 00006C3D  88 35 00000003 R  4			MOV 	CurrentPointY,	dh
 00006C43  E8 00000000 E     4			CALL 	Gotoxy  
 00006C48  52		     4				PUSH EDX
 00006C49  52		     5			PUSH EDX
 00006C4A  51		     5			PUSH ECX
 00006C4B  56		     5			PUSH ESI
 00006C4C  BA 00000230 R     5				MOV EDX, OFFSET CompCastle_2_1
 00006C51  E8 00000000 E     5				CALL WriteString
 00006C56  59		     5			POP ECX
 00006C57  59		     5			POP ECX
 00006C58  5E		     5			POP ESI
 00006C59  5A		     4				POP  EDX
 00006C5A  FE C6	     4				INC  DH
 00006C5C  E8 00000000 E     4				Call GoToXY
 00006C61  52		     4				PUSH EDX
 00006C62  52		     5			PUSH EDX
 00006C63  51		     5			PUSH ECX
 00006C64  56		     5			PUSH ESI
 00006C65  BA 0000023B R     5				MOV EDX, OFFSET CompCastle_2_2
 00006C6A  E8 00000000 E     5				CALL WriteString
 00006C6F  59		     5			POP ECX
 00006C70  59		     5			POP ECX
 00006C71  5E		     5			POP ESI
 00006C72  5A		     4				POP  EDX
 00006C73  FE C6	     4				INC  DH
 00006C75  E8 00000000 E     4				Call GoToXY
 00006C7A  52		     4				PUSH EDX
 00006C7B  52		     5			PUSH EDX
 00006C7C  51		     5			PUSH ECX
 00006C7D  56		     5			PUSH ESI
 00006C7E  BA 00000246 R     5				MOV EDX, OFFSET CompCastle_2_3
 00006C83  E8 00000000 E     5				CALL WriteString
 00006C88  59		     5			POP ECX
 00006C89  59		     5			POP ECX
 00006C8A  5E		     5			POP ESI
 00006C8B  5A		     4				POP  EDX
 00006C8C  FE C6	     4				INC  DH
 00006C8E  E8 00000000 E     4				Call GoToXY
 00006C93  52		     4				PUSH EDX
 00006C94  52		     5			PUSH EDX
 00006C95  51		     5			PUSH ECX
 00006C96  56		     5			PUSH ESI
 00006C97  BA 00000255 R     5				MOV EDX, OFFSET CompCastle_2_4
 00006C9C  E8 00000000 E     5				CALL WriteString
 00006CA1  59		     5			POP ECX
 00006CA2  59		     5			POP ECX
 00006CA3  5E		     5			POP ESI
 00006CA4  5A		     4				POP  EDX
 00006CA5  FE C6	     4				INC  DH
 00006CA7  E8 00000000 E     4				Call GoToXY
 00006CAC  52		     4				PUSH EDX
 00006CAD  52		     5			PUSH EDX
 00006CAE  51		     5			PUSH ECX
 00006CAF  56		     5			PUSH ESI
 00006CB0  BA 00000264 R     5				MOV EDX, OFFSET CompCastle_2_5
 00006CB5  E8 00000000 E     5				CALL WriteString
 00006CBA  59		     5			POP ECX
 00006CBB  59		     5			POP ECX
 00006CBC  5E		     5			POP ESI
 00006CBD  5A		     4				POP  EDX
 00006CBE  FE C6	     4				INC  DH
 00006CC0  E8 00000000 E     4				Call GoToXY
 00006CC5  52		     4				PUSH EDX
 00006CC6  52		     5			PUSH EDX
 00006CC7  51		     5			PUSH ECX
 00006CC8  56		     5			PUSH ESI
 00006CC9  BA 00000275 R     5				MOV EDX, OFFSET CompCastle_2_6
 00006CCE  E8 00000000 E     5				CALL WriteString
 00006CD3  59		     5			POP ECX
 00006CD4  59		     5			POP ECX
 00006CD5  5E		     5			POP ESI
 00006CD6  5A		     4				POP  EDX
 00006CD7  FE C6	     4				INC  DH
 00006CD9  E8 00000000 E     4				Call GoToXY
 00006CDE  52		     4				PUSH EDX
 00006CDF  52		     5			PUSH EDX
 00006CE0  51		     5			PUSH ECX
 00006CE1  56		     5			PUSH ESI
 00006CE2  BA 00000286 R     5				MOV EDX, OFFSET CompCastle_2_7
 00006CE7  E8 00000000 E     5				CALL WriteString
 00006CEC  59		     5			POP ECX
 00006CED  59		     5			POP ECX
 00006CEE  5E		     5			POP ESI
 00006CEF  5A		     4				POP  EDX
 00006CF0  FE C6	     4				INC  DH
 00006CF2  E8 00000000 E     4				Call GoToXY
 00006CF7  52		     4				PUSH EDX
 00006CF8  52		     5			PUSH EDX
 00006CF9  51		     5			PUSH ECX
 00006CFA  56		     5			PUSH ESI
 00006CFB  BA 00000295 R     5				MOV EDX, OFFSET CompCastle_2_8
 00006D00  E8 00000000 E     5				CALL WriteString
 00006D05  59		     5			POP ECX
 00006D06  59		     5			POP ECX
 00006D07  5E		     5			POP ESI
 00006D08  5A		     4				POP  EDX
 00006D09  FE C6	     4				INC  DH
 00006D0B  E8 00000000 E     4				Call GoToXY
 00006D22  8A 15 00000002 R  4			MOV  	dl, CurrentPointX
 00006D28  8A 35 00000003 R  4			MOV  	dh, CurrentPointY
 00006D2E  88 15 00000000 R  4			MOV		LastPointX,	dl
 00006D34  88 35 00000001 R  4			MOV 	LastPointY,	dh
 00006D3A  B2 00	     4			MOV  	dl, BYTE PTR 0
 00006D3C  B6 09	     4			MOV  	dh, BYTE PTR 9
 00006D3E  88 15 00000002 R  4			MOV 	CurrentPointX,	dl
 00006D44  88 35 00000003 R  4			MOV 	CurrentPointY,	dh
 00006D4A  E8 00000000 E     4			CALL 	Gotoxy  
 00006D4F  52		     4				PUSH EDX
 00006D50  52		     5			PUSH EDX
 00006D51  51		     5			PUSH ECX
 00006D52  56		     5			PUSH ESI
 00006D53  BA 000002A4 R     5				MOV EDX, OFFSET CompCastle_3_1
 00006D58  E8 00000000 E     5				CALL WriteString
 00006D5D  59		     5			POP ECX
 00006D5E  59		     5			POP ECX
 00006D5F  5E		     5			POP ESI
 00006D60  5A		     4				POP  EDX
 00006D61  FE C6	     4				INC  DH
 00006D63  E8 00000000 E     4				Call GoToXY
 00006D68  52		     4				PUSH EDX
 00006D69  52		     5			PUSH EDX
 00006D6A  51		     5			PUSH ECX
 00006D6B  56		     5			PUSH ESI
 00006D6C  BA 000002B7 R     5				MOV EDX, OFFSET CompCastle_3_2
 00006D71  E8 00000000 E     5				CALL WriteString
 00006D76  59		     5			POP ECX
 00006D77  59		     5			POP ECX
 00006D78  5E		     5			POP ESI
 00006D79  5A		     4				POP  EDX
 00006D7A  FE C6	     4				INC  DH
 00006D7C  E8 00000000 E     4				Call GoToXY
 00006D81  52		     4				PUSH EDX
 00006D82  52		     5			PUSH EDX
 00006D83  51		     5			PUSH ECX
 00006D84  56		     5			PUSH ESI
 00006D85  BA 000002CC R     5				MOV EDX, OFFSET CompCastle_3_3
 00006D8A  E8 00000000 E     5				CALL WriteString
 00006D8F  59		     5			POP ECX
 00006D90  59		     5			POP ECX
 00006D91  5E		     5			POP ESI
 00006D92  5A		     4				POP  EDX
 00006D93  FE C6	     4				INC  DH
 00006D95  E8 00000000 E     4				Call GoToXY
 00006D9A  52		     4				PUSH EDX
 00006D9B  52		     5			PUSH EDX
 00006D9C  51		     5			PUSH ECX
 00006D9D  56		     5			PUSH ESI
 00006D9E  BA 000002DD R     5				MOV EDX, OFFSET CompCastle_3_4
 00006DA3  E8 00000000 E     5				CALL WriteString
 00006DA8  59		     5			POP ECX
 00006DA9  59		     5			POP ECX
 00006DAA  5E		     5			POP ESI
 00006DAB  5A		     4				POP  EDX
 00006DAC  FE C6	     4				INC  DH
 00006DAE  E8 00000000 E     4				Call GoToXY
 00006DB3  52		     4				PUSH EDX
 00006DB4  52		     5			PUSH EDX
 00006DB5  51		     5			PUSH ECX
 00006DB6  56		     5			PUSH ESI
 00006DB7  BA 000002F3 R     5				MOV EDX, OFFSET CompCastle_3_5
 00006DBC  E8 00000000 E     5				CALL WriteString
 00006DC1  59		     5			POP ECX
 00006DC2  59		     5			POP ECX
 00006DC3  5E		     5			POP ESI
 00006DC4  5A		     4				POP  EDX
 00006DC5  FE C6	     4				INC  DH
 00006DC7  E8 00000000 E     4				Call GoToXY
 00006DCC  52		     4				PUSH EDX
 00006DCD  52		     5			PUSH EDX
 00006DCE  51		     5			PUSH ECX
 00006DCF  56		     5			PUSH ESI
 00006DD0  BA 00000309 R     5				MOV EDX, OFFSET CompCastle_3_6
 00006DD5  E8 00000000 E     5				CALL WriteString
 00006DDA  59		     5			POP ECX
 00006DDB  59		     5			POP ECX
 00006DDC  5E		     5			POP ESI
 00006DDD  5A		     4				POP  EDX
 00006DDE  FE C6	     4				INC  DH
 00006DE0  E8 00000000 E     4				Call GoToXY
 00006DE5  52		     4				PUSH EDX
 00006DE6  52		     5			PUSH EDX
 00006DE7  51		     5			PUSH ECX
 00006DE8  56		     5			PUSH ESI
 00006DE9  BA 0000031F R     5				MOV EDX, OFFSET CompCastle_3_7
 00006DEE  E8 00000000 E     5				CALL WriteString
 00006DF3  59		     5			POP ECX
 00006DF4  59		     5			POP ECX
 00006DF5  5E		     5			POP ESI
 00006DF6  5A		     4				POP  EDX
 00006DF7  FE C6	     4				INC  DH
 00006DF9  E8 00000000 E     4				Call GoToXY
 00006DFE  52		     4				PUSH EDX
 00006DFF  52		     5			PUSH EDX
 00006E00  51		     5			PUSH ECX
 00006E01  56		     5			PUSH ESI
 00006E02  BA 00000336 R     5				MOV EDX, OFFSET CompCastle_3_8
 00006E07  E8 00000000 E     5				CALL WriteString
 00006E0C  59		     5			POP ECX
 00006E0D  59		     5			POP ECX
 00006E0E  5E		     5			POP ESI
 00006E0F  5A		     4				POP  EDX
 00006E10  FE C6	     4				INC  DH
 00006E12  E8 00000000 E     4				Call GoToXY
 00006E17  52		     4				PUSH EDX
 00006E18  52		     5			PUSH EDX
 00006E19  51		     5			PUSH ECX
 00006E1A  56		     5			PUSH ESI
 00006E1B  BA 00000347 R     5				MOV EDX, OFFSET CompCastle_3_9
 00006E20  E8 00000000 E     5				CALL WriteString
 00006E25  59		     5			POP ECX
 00006E26  59		     5			POP ECX
 00006E27  5E		     5			POP ESI
 00006E28  5A		     4				POP  EDX
 00006E29  FE C6	     4				INC  DH
 00006E2B  E8 00000000 E     4				Call GoToXY
 00006E39  50		     3				PUSH 	EAX
 00006E3A  B8 00000007	     3					MOV 	EAX, 00000111b
 00006E3F  E8 00000000 E     3					CALL	SetTextColor
 00006E44  58		     3				POP 	EAX
 00006E45  60		     3			PUSHAD
 00006E46  B8 00000001	     3				MOV EAX, 1
 00006E4F  50		     4			PUSH EAX
 00006E50  B8 00000005	     4				MOV EAX, 5
 00006E55  A3 00000DD1 R     4				MOV HPLineX, 	EAX
 00006E5A  58		     4			POP EAX
 00006E5B  50		     4			PUSH EAX
 00006E5C  B8 0000000A	     4				MOV EAX, 10
 00006E61  A3 00000DD5 R     4				MOV HPLineY, 	EAX
 00006E66  58		     4			POP EAX
 00006E67  8B 1D 00000DC5 R  3					MOV EBX, UserCastleHP
 00006E6F  50		     4			PUSH EAX
 00006E70  B8 00000069	     4				MOV EAX, 105
 00006E75  A3 00000DD1 R     4				MOV HPLineX, 	EAX
 00006E7A  58		     4			POP EAX
 00006E7B  50		     4			PUSH EAX
 00006E7C  B8 0000000A	     4				MOV EAX, 10
 00006E81  A3 00000DD5 R     4				MOV HPLineY, 	EAX
 00006E86  58		     4			POP EAX
 00006E87  8B 1D 00000DC9 R  3					MOV EBX, CompCastleHP
 00006E99  60		     4			PUSHAD
 00006E9A  8A 15 00000002 R  5			MOV  	dl, CurrentPointX
 00006EA0  8A 35 00000003 R  5			MOV  	dh, CurrentPointY
 00006EA6  88 15 00000000 R  5			MOV		LastPointX,	dl
 00006EAC  88 35 00000001 R  5			MOV 	LastPointY,	dh
 00006EB2  8A 15 00000DD1 R  5			MOV  	dl, BYTE PTR HPLineX
 00006EB8  8A 35 00000DD5 R  5			MOV  	dh, BYTE PTR HPLineY
 00006EBE  88 15 00000002 R  5			MOV 	CurrentPointX,	dl
 00006EC4  88 35 00000003 R  5			MOV 	CurrentPointY,	dh
 00006ECA  E8 00000000 E     5			CALL 	Gotoxy  
 00006ECF  50		     5			PUSH 	EAX
 00006ED0  8B C3	     5				MOV 	EAX,	EBX
 00006ED2  E8 00000000 E     5				CALL 	WriteDec
 00006ED7  58		     5			POP 	EAX
 00006ED8  50		     5			PUSH 	EAX
 00006ED9  B8 0000005B	     5				MOV 	EAX,	'['
 00006EDE  E8 00000000 E     5				CALL 	WriteChar
 00006EE3  58		     5			POP 	EAX
 00006EE4  B9 00000004	     4				MOV ECX, 4
 00006EF7  50		     5				PUSH 	EAX
 00006EF8  B8 00000004	     5					MOV 	EAX, Red
 00006EFD  E8 00000000 E     5					CALL	SetTextColor
 00006F02  58		     5				POP 	EAX
 00006F03  50		     5			PUSH 	EAX
 00006F04  B8 00000049	     5				MOV 	EAX,	'I'
 00006F09  E8 00000000 E     5				CALL 	WriteChar
 00006F0E  58		     5			POP 	EAX
 00006F0F  50		     5			PUSH 	EAX
 00006F10  B8 00000020	     5				MOV 	EAX,	' '
 00006F15  E8 00000000 E     5				CALL 	WriteChar
 00006F1A  58		     5			POP 	EAX
 00006F1B  50		     5			PUSH 	EAX
 00006F1C  B8 00000020	     5				MOV 	EAX,	' '
 00006F21  E8 00000000 E     5				CALL 	WriteChar
 00006F26  58		     5			POP 	EAX
 00006F27  50		     5			PUSH 	EAX
 00006F28  B8 00000020	     5				MOV 	EAX,	' '
 00006F2D  E8 00000000 E     5				CALL 	WriteChar
 00006F32  58		     5			POP 	EAX
 00006F46  50		     5				PUSH 	EAX
 00006F47  B8 0000000C	     5					MOV 	EAX, LightRed
 00006F4C  E8 00000000 E     5					CALL	SetTextColor
 00006F51  58		     5				POP 	EAX
 00006F52  50		     5			PUSH 	EAX
 00006F53  B8 00000049	     5				MOV 	EAX,	'I'
 00006F58  E8 00000000 E     5				CALL 	WriteChar
 00006F5D  58		     5			POP 	EAX
 00006F5E  50		     5			PUSH 	EAX
 00006F5F  B8 00000049	     5				MOV 	EAX,	'I'
 00006F64  E8 00000000 E     5				CALL 	WriteChar
 00006F69  58		     5			POP 	EAX
 00006F6A  50		     5			PUSH 	EAX
 00006F6B  B8 00000020	     5				MOV 	EAX,	' '
 00006F70  E8 00000000 E     5				CALL 	WriteChar
 00006F75  58		     5			POP 	EAX
 00006F76  50		     5			PUSH 	EAX
 00006F77  B8 00000020	     5				MOV 	EAX,	' '
 00006F7C  E8 00000000 E     5				CALL 	WriteChar
 00006F81  58		     5			POP 	EAX
 00006F95  50		     5				PUSH 	EAX
 00006F96  B8 00000002	     5					MOV 	EAX, Green
 00006F9B  E8 00000000 E     5					CALL	SetTextColor
 00006FA0  58		     5				POP 	EAX
 00006FA1  50		     5			PUSH 	EAX
 00006FA2  B8 00000049	     5				MOV 	EAX,	'I'
 00006FA7  E8 00000000 E     5				CALL 	WriteChar
 00006FAC  58		     5			POP 	EAX
 00006FAD  50		     5			PUSH 	EAX
 00006FAE  B8 00000049	     5				MOV 	EAX,	'I'
 00006FB3  E8 00000000 E     5				CALL 	WriteChar
 00006FB8  58		     5			POP 	EAX
 00006FB9  50		     5			PUSH 	EAX
 00006FBA  B8 00000049	     5				MOV 	EAX,	'I'
 00006FBF  E8 00000000 E     5				CALL 	WriteChar
 00006FC4  58		     5			POP 	EAX
 00006FC5  50		     5			PUSH 	EAX
 00006FC6  B8 00000020	     5				MOV 	EAX,	' '
 00006FCB  E8 00000000 E     5				CALL 	WriteChar
 00006FD0  58		     5			POP 	EAX
 00006FE1  50		     5				PUSH 	EAX
 00006FE2  B8 0000000A	     5					MOV 	EAX, LightGreen
 00006FE7  E8 00000000 E     5					CALL	SetTextColor
 00006FEC  58		     5				POP 	EAX
 00006FED  50		     5			PUSH 	EAX
 00006FEE  B8 00000049	     5				MOV 	EAX,	'I'
 00006FF3  E8 00000000 E     5				CALL 	WriteChar
 00006FF8  58		     5			POP 	EAX
 00006FF9  50		     5			PUSH 	EAX
 00006FFA  B8 00000049	     5				MOV 	EAX,	'I'
 00006FFF  E8 00000000 E     5				CALL 	WriteChar
 00007004  58		     5			POP 	EAX
 00007005  50		     5			PUSH 	EAX
 00007006  B8 00000049	     5				MOV 	EAX,	'I'
 0000700B  E8 00000000 E     5				CALL 	WriteChar
 00007010  58		     5			POP 	EAX
 00007011  50		     5			PUSH 	EAX
 00007012  B8 00000049	     5				MOV 	EAX,	'I'
 00007017  E8 00000000 E     5				CALL 	WriteChar
 0000701C  58		     5			POP 	EAX
 00007026  50		     5				PUSH 	EAX
 00007027  B8 00000007	     5					MOV 	EAX, 00000111b
 0000702C  E8 00000000 E     5					CALL	SetTextColor
 00007031  58		     5				POP 	EAX
 00007032  50		     5			PUSH 	EAX
 00007033  B8 0000005D	     5				MOV 	EAX,	']'
 00007038  E8 00000000 E     5				CALL 	WriteChar
 0000703D  58		     5			POP 	EAX
 0000703E  8A 15 00000000 R  5			MOV  	dl, LastPointX
 00007044  8A 35 00000001 R  5			MOV  	dh, LastPointY
 0000704A  88 15 00000002 R  5			MOV 	CurrentPointX,	dl
 00007050  88 35 00000003 R  5			MOV 	CurrentPointY,	dh
 00007056  E8 00000000 E     5			CALL 	Gotoxy 
 0000705B  61		     4			POPAD
 0000706D  60		     4			PUSHAD
 0000706E  8A 15 00000002 R  5			MOV  	dl, CurrentPointX
 00007074  8A 35 00000003 R  5			MOV  	dh, CurrentPointY
 0000707A  88 15 00000000 R  5			MOV		LastPointX,	dl
 00007080  88 35 00000001 R  5			MOV 	LastPointY,	dh
 00007086  8A 15 00000DD1 R  5			MOV  	dl, BYTE PTR HPLineX
 0000708C  8A 35 00000DD5 R  5			MOV  	dh, BYTE PTR HPLineY
 00007092  88 15 00000002 R  5			MOV 	CurrentPointX,	dl
 00007098  88 35 00000003 R  5			MOV 	CurrentPointY,	dh
 0000709E  E8 00000000 E     5			CALL 	Gotoxy  
 000070A3  50		     5			PUSH 	EAX
 000070A4  8B C3	     5				MOV 	EAX,	EBX
 000070A6  E8 00000000 E     5				CALL 	WriteDec
 000070AB  58		     5			POP 	EAX
 000070AC  50		     5			PUSH 	EAX
 000070AD  B8 0000005B	     5				MOV 	EAX,	'['
 000070B2  E8 00000000 E     5				CALL 	WriteChar
 000070B7  58		     5			POP 	EAX
 000070B8  B9 00000003	     4				MOV ECX, 3
 000070CB  50		     5				PUSH 	EAX
 000070CC  B8 00000004	     5					MOV 	EAX, Red
 000070D1  E8 00000000 E     5					CALL	SetTextColor
 000070D6  58		     5				POP 	EAX
 000070D7  50		     5			PUSH 	EAX
 000070D8  B8 00000049	     5				MOV 	EAX,	'I'
 000070DD  E8 00000000 E     5				CALL 	WriteChar
 000070E2  58		     5			POP 	EAX
 000070E3  50		     5			PUSH 	EAX
 000070E4  B8 00000020	     5				MOV 	EAX,	' '
 000070E9  E8 00000000 E     5				CALL 	WriteChar
 000070EE  58		     5			POP 	EAX
 000070EF  50		     5			PUSH 	EAX
 000070F0  B8 00000020	     5				MOV 	EAX,	' '
 000070F5  E8 00000000 E     5				CALL 	WriteChar
 000070FA  58		     5			POP 	EAX
 000070FB  50		     5			PUSH 	EAX
 000070FC  B8 00000020	     5				MOV 	EAX,	' '
 00007101  E8 00000000 E     5				CALL 	WriteChar
 00007106  58		     5			POP 	EAX
 0000711A  50		     5				PUSH 	EAX
 0000711B  B8 0000000C	     5					MOV 	EAX, LightRed
 00007120  E8 00000000 E     5					CALL	SetTextColor
 00007125  58		     5				POP 	EAX
 00007126  50		     5			PUSH 	EAX
 00007127  B8 00000049	     5				MOV 	EAX,	'I'
 0000712C  E8 00000000 E     5				CALL 	WriteChar
 00007131  58		     5			POP 	EAX
 00007132  50		     5			PUSH 	EAX
 00007133  B8 00000049	     5				MOV 	EAX,	'I'
 00007138  E8 00000000 E     5				CALL 	WriteChar
 0000713D  58		     5			POP 	EAX
 0000713E  50		     5			PUSH 	EAX
 0000713F  B8 00000020	     5				MOV 	EAX,	' '
 00007144  E8 00000000 E     5				CALL 	WriteChar
 00007149  58		     5			POP 	EAX
 0000714A  50		     5			PUSH 	EAX
 0000714B  B8 00000020	     5				MOV 	EAX,	' '
 00007150  E8 00000000 E     5				CALL 	WriteChar
 00007155  58		     5			POP 	EAX
 00007169  50		     5				PUSH 	EAX
 0000716A  B8 00000002	     5					MOV 	EAX, Green
 0000716F  E8 00000000 E     5					CALL	SetTextColor
 00007174  58		     5				POP 	EAX
 00007175  50		     5			PUSH 	EAX
 00007176  B8 00000049	     5				MOV 	EAX,	'I'
 0000717B  E8 00000000 E     5				CALL 	WriteChar
 00007180  58		     5			POP 	EAX
 00007181  50		     5			PUSH 	EAX
 00007182  B8 00000049	     5				MOV 	EAX,	'I'
 00007187  E8 00000000 E     5				CALL 	WriteChar
 0000718C  58		     5			POP 	EAX
 0000718D  50		     5			PUSH 	EAX
 0000718E  B8 00000049	     5				MOV 	EAX,	'I'
 00007193  E8 00000000 E     5				CALL 	WriteChar
 00007198  58		     5			POP 	EAX
 00007199  50		     5			PUSH 	EAX
 0000719A  B8 00000020	     5				MOV 	EAX,	' '
 0000719F  E8 00000000 E     5				CALL 	WriteChar
 000071A4  58		     5			POP 	EAX
 000071B5  50		     5				PUSH 	EAX
 000071B6  B8 0000000A	     5					MOV 	EAX, LightGreen
 000071BB  E8 00000000 E     5					CALL	SetTextColor
 000071C0  58		     5				POP 	EAX
 000071C1  50		     5			PUSH 	EAX
 000071C2  B8 00000049	     5				MOV 	EAX,	'I'
 000071C7  E8 00000000 E     5				CALL 	WriteChar
 000071CC  58		     5			POP 	EAX
 000071CD  50		     5			PUSH 	EAX
 000071CE  B8 00000049	     5				MOV 	EAX,	'I'
 000071D3  E8 00000000 E     5				CALL 	WriteChar
 000071D8  58		     5			POP 	EAX
 000071D9  50		     5			PUSH 	EAX
 000071DA  B8 00000049	     5				MOV 	EAX,	'I'
 000071DF  E8 00000000 E     5				CALL 	WriteChar
 000071E4  58		     5			POP 	EAX
 000071E5  50		     5			PUSH 	EAX
 000071E6  B8 00000049	     5				MOV 	EAX,	'I'
 000071EB  E8 00000000 E     5				CALL 	WriteChar
 000071F0  58		     5			POP 	EAX
 000071FA  50		     5				PUSH 	EAX
 000071FB  B8 00000007	     5					MOV 	EAX, 00000111b
 00007200  E8 00000000 E     5					CALL	SetTextColor
 00007205  58		     5				POP 	EAX
 00007206  50		     5			PUSH 	EAX
 00007207  B8 0000005D	     5				MOV 	EAX,	']'
 0000720C  E8 00000000 E     5				CALL 	WriteChar
 00007211  58		     5			POP 	EAX
 00007212  8A 15 00000000 R  5			MOV  	dl, LastPointX
 00007218  8A 35 00000001 R  5			MOV  	dh, LastPointY
 0000721E  88 15 00000002 R  5			MOV 	CurrentPointX,	dl
 00007224  88 35 00000003 R  5			MOV 	CurrentPointY,	dh
 0000722A  E8 00000000 E     5			CALL 	Gotoxy 
 0000722F  61		     4			POPAD
 00007241  60		     4			PUSHAD
 00007242  8A 15 00000002 R  5			MOV  	dl, CurrentPointX
 00007248  8A 35 00000003 R  5			MOV  	dh, CurrentPointY
 0000724E  88 15 00000000 R  5			MOV		LastPointX,	dl
 00007254  88 35 00000001 R  5			MOV 	LastPointY,	dh
 0000725A  8A 15 00000DD1 R  5			MOV  	dl, BYTE PTR HPLineX
 00007260  8A 35 00000DD5 R  5			MOV  	dh, BYTE PTR HPLineY
 00007266  88 15 00000002 R  5			MOV 	CurrentPointX,	dl
 0000726C  88 35 00000003 R  5			MOV 	CurrentPointY,	dh
 00007272  E8 00000000 E     5			CALL 	Gotoxy  
 00007277  50		     5			PUSH 	EAX
 00007278  8B C3	     5				MOV 	EAX,	EBX
 0000727A  E8 00000000 E     5				CALL 	WriteDec
 0000727F  58		     5			POP 	EAX
 00007280  50		     5			PUSH 	EAX
 00007281  B8 0000005B	     5				MOV 	EAX,	'['
 00007286  E8 00000000 E     5				CALL 	WriteChar
 0000728B  58		     5			POP 	EAX
 0000728C  B9 00000002	     4				MOV ECX, 2
 0000729F  50		     5				PUSH 	EAX
 000072A0  B8 00000004	     5					MOV 	EAX, Red
 000072A5  E8 00000000 E     5					CALL	SetTextColor
 000072AA  58		     5				POP 	EAX
 000072AB  50		     5			PUSH 	EAX
 000072AC  B8 00000049	     5				MOV 	EAX,	'I'
 000072B1  E8 00000000 E     5				CALL 	WriteChar
 000072B6  58		     5			POP 	EAX
 000072B7  50		     5			PUSH 	EAX
 000072B8  B8 00000020	     5				MOV 	EAX,	' '
 000072BD  E8 00000000 E     5				CALL 	WriteChar
 000072C2  58		     5			POP 	EAX
 000072C3  50		     5			PUSH 	EAX
 000072C4  B8 00000020	     5				MOV 	EAX,	' '
 000072C9  E8 00000000 E     5				CALL 	WriteChar
 000072CE  58		     5			POP 	EAX
 000072CF  50		     5			PUSH 	EAX
 000072D0  B8 00000020	     5				MOV 	EAX,	' '
 000072D5  E8 00000000 E     5				CALL 	WriteChar
 000072DA  58		     5			POP 	EAX
 000072EE  50		     5				PUSH 	EAX
 000072EF  B8 0000000C	     5					MOV 	EAX, LightRed
 000072F4  E8 00000000 E     5					CALL	SetTextColor
 000072F9  58		     5				POP 	EAX
 000072FA  50		     5			PUSH 	EAX
 000072FB  B8 00000049	     5				MOV 	EAX,	'I'
 00007300  E8 00000000 E     5				CALL 	WriteChar
 00007305  58		     5			POP 	EAX
 00007306  50		     5			PUSH 	EAX
 00007307  B8 00000049	     5				MOV 	EAX,	'I'
 0000730C  E8 00000000 E     5				CALL 	WriteChar
 00007311  58		     5			POP 	EAX
 00007312  50		     5			PUSH 	EAX
 00007313  B8 00000020	     5				MOV 	EAX,	' '
 00007318  E8 00000000 E     5				CALL 	WriteChar
 0000731D  58		     5			POP 	EAX
 0000731E  50		     5			PUSH 	EAX
 0000731F  B8 00000020	     5				MOV 	EAX,	' '
 00007324  E8 00000000 E     5				CALL 	WriteChar
 00007329  58		     5			POP 	EAX
 0000733D  50		     5				PUSH 	EAX
 0000733E  B8 00000002	     5					MOV 	EAX, Green
 00007343  E8 00000000 E     5					CALL	SetTextColor
 00007348  58		     5				POP 	EAX
 00007349  50		     5			PUSH 	EAX
 0000734A  B8 00000049	     5				MOV 	EAX,	'I'
 0000734F  E8 00000000 E     5				CALL 	WriteChar
 00007354  58		     5			POP 	EAX
 00007355  50		     5			PUSH 	EAX
 00007356  B8 00000049	     5				MOV 	EAX,	'I'
 0000735B  E8 00000000 E     5				CALL 	WriteChar
 00007360  58		     5			POP 	EAX
 00007361  50		     5			PUSH 	EAX
 00007362  B8 00000049	     5				MOV 	EAX,	'I'
 00007367  E8 00000000 E     5				CALL 	WriteChar
 0000736C  58		     5			POP 	EAX
 0000736D  50		     5			PUSH 	EAX
 0000736E  B8 00000020	     5				MOV 	EAX,	' '
 00007373  E8 00000000 E     5				CALL 	WriteChar
 00007378  58		     5			POP 	EAX
 00007389  50		     5				PUSH 	EAX
 0000738A  B8 0000000A	     5					MOV 	EAX, LightGreen
 0000738F  E8 00000000 E     5					CALL	SetTextColor
 00007394  58		     5				POP 	EAX
 00007395  50		     5			PUSH 	EAX
 00007396  B8 00000049	     5				MOV 	EAX,	'I'
 0000739B  E8 00000000 E     5				CALL 	WriteChar
 000073A0  58		     5			POP 	EAX
 000073A1  50		     5			PUSH 	EAX
 000073A2  B8 00000049	     5				MOV 	EAX,	'I'
 000073A7  E8 00000000 E     5				CALL 	WriteChar
 000073AC  58		     5			POP 	EAX
 000073AD  50		     5			PUSH 	EAX
 000073AE  B8 00000049	     5				MOV 	EAX,	'I'
 000073B3  E8 00000000 E     5				CALL 	WriteChar
 000073B8  58		     5			POP 	EAX
 000073B9  50		     5			PUSH 	EAX
 000073BA  B8 00000049	     5				MOV 	EAX,	'I'
 000073BF  E8 00000000 E     5				CALL 	WriteChar
 000073C4  58		     5			POP 	EAX
 000073CE  50		     5				PUSH 	EAX
 000073CF  B8 00000007	     5					MOV 	EAX, 00000111b
 000073D4  E8 00000000 E     5					CALL	SetTextColor
 000073D9  58		     5				POP 	EAX
 000073DA  50		     5			PUSH 	EAX
 000073DB  B8 0000005D	     5				MOV 	EAX,	']'
 000073E0  E8 00000000 E     5				CALL 	WriteChar
 000073E5  58		     5			POP 	EAX
 000073E6  8A 15 00000000 R  5			MOV  	dl, LastPointX
 000073EC  8A 35 00000001 R  5			MOV  	dh, LastPointY
 000073F2  88 15 00000002 R  5			MOV 	CurrentPointX,	dl
 000073F8  88 35 00000003 R  5			MOV 	CurrentPointY,	dh
 000073FE  E8 00000000 E     5			CALL 	Gotoxy 
 00007403  61		     4			POPAD
 00007409  60		     4			PUSHAD
 0000740A  8A 15 00000002 R  5			MOV  	dl, CurrentPointX
 00007410  8A 35 00000003 R  5			MOV  	dh, CurrentPointY
 00007416  88 15 00000000 R  5			MOV		LastPointX,	dl
 0000741C  88 35 00000001 R  5			MOV 	LastPointY,	dh
 00007422  8A 15 00000DD1 R  5			MOV  	dl, BYTE PTR HPLineX
 00007428  8A 35 00000DD5 R  5			MOV  	dh, BYTE PTR HPLineY
 0000742E  88 15 00000002 R  5			MOV 	CurrentPointX,	dl
 00007434  88 35 00000003 R  5			MOV 	CurrentPointY,	dh
 0000743A  E8 00000000 E     5			CALL 	Gotoxy  
 0000743F  50		     5			PUSH 	EAX
 00007440  8B C3	     5				MOV 	EAX,	EBX
 00007442  E8 00000000 E     5				CALL 	WriteDec
 00007447  58		     5			POP 	EAX
 00007448  50		     5			PUSH 	EAX
 00007449  B8 0000005B	     5				MOV 	EAX,	'['
 0000744E  E8 00000000 E     5				CALL 	WriteChar
 00007453  58		     5			POP 	EAX
 00007454  B9 00000001	     4				MOV ECX, 1
 00007467  50		     5				PUSH 	EAX
 00007468  B8 00000004	     5					MOV 	EAX, Red
 0000746D  E8 00000000 E     5					CALL	SetTextColor
 00007472  58		     5				POP 	EAX
 00007473  50		     5			PUSH 	EAX
 00007474  B8 00000049	     5				MOV 	EAX,	'I'
 00007479  E8 00000000 E     5				CALL 	WriteChar
 0000747E  58		     5			POP 	EAX
 0000747F  50		     5			PUSH 	EAX
 00007480  B8 00000020	     5				MOV 	EAX,	' '
 00007485  E8 00000000 E     5				CALL 	WriteChar
 0000748A  58		     5			POP 	EAX
 0000748B  50		     5			PUSH 	EAX
 0000748C  B8 00000020	     5				MOV 	EAX,	' '
 00007491  E8 00000000 E     5				CALL 	WriteChar
 00007496  58		     5			POP 	EAX
 00007497  50		     5			PUSH 	EAX
 00007498  B8 00000020	     5				MOV 	EAX,	' '
 0000749D  E8 00000000 E     5				CALL 	WriteChar
 000074A2  58		     5			POP 	EAX
 000074B6  50		     5				PUSH 	EAX
 000074B7  B8 0000000C	     5					MOV 	EAX, LightRed
 000074BC  E8 00000000 E     5					CALL	SetTextColor
 000074C1  58		     5				POP 	EAX
 000074C2  50		     5			PUSH 	EAX
 000074C3  B8 00000049	     5				MOV 	EAX,	'I'
 000074C8  E8 00000000 E     5				CALL 	WriteChar
 000074CD  58		     5			POP 	EAX
 000074CE  50		     5			PUSH 	EAX
 000074CF  B8 00000049	     5				MOV 	EAX,	'I'
 000074D4  E8 00000000 E     5				CALL 	WriteChar
 000074D9  58		     5			POP 	EAX
 000074DA  50		     5			PUSH 	EAX
 000074DB  B8 00000020	     5				MOV 	EAX,	' '
 000074E0  E8 00000000 E     5				CALL 	WriteChar
 000074E5  58		     5			POP 	EAX
 000074E6  50		     5			PUSH 	EAX
 000074E7  B8 00000020	     5				MOV 	EAX,	' '
 000074EC  E8 00000000 E     5				CALL 	WriteChar
 000074F1  58		     5			POP 	EAX
 00007505  50		     5				PUSH 	EAX
 00007506  B8 00000002	     5					MOV 	EAX, Green
 0000750B  E8 00000000 E     5					CALL	SetTextColor
 00007510  58		     5				POP 	EAX
 00007511  50		     5			PUSH 	EAX
 00007512  B8 00000049	     5				MOV 	EAX,	'I'
 00007517  E8 00000000 E     5				CALL 	WriteChar
 0000751C  58		     5			POP 	EAX
 0000751D  50		     5			PUSH 	EAX
 0000751E  B8 00000049	     5				MOV 	EAX,	'I'
 00007523  E8 00000000 E     5				CALL 	WriteChar
 00007528  58		     5			POP 	EAX
 00007529  50		     5			PUSH 	EAX
 0000752A  B8 00000049	     5				MOV 	EAX,	'I'
 0000752F  E8 00000000 E     5				CALL 	WriteChar
 00007534  58		     5			POP 	EAX
 00007535  50		     5			PUSH 	EAX
 00007536  B8 00000020	     5				MOV 	EAX,	' '
 0000753B  E8 00000000 E     5				CALL 	WriteChar
 00007540  58		     5			POP 	EAX
 00007551  50		     5				PUSH 	EAX
 00007552  B8 0000000A	     5					MOV 	EAX, LightGreen
 00007557  E8 00000000 E     5					CALL	SetTextColor
 0000755C  58		     5				POP 	EAX
 0000755D  50		     5			PUSH 	EAX
 0000755E  B8 00000049	     5				MOV 	EAX,	'I'
 00007563  E8 00000000 E     5				CALL 	WriteChar
 00007568  58		     5			POP 	EAX
 00007569  50		     5			PUSH 	EAX
 0000756A  B8 00000049	     5				MOV 	EAX,	'I'
 0000756F  E8 00000000 E     5				CALL 	WriteChar
 00007574  58		     5			POP 	EAX
 00007575  50		     5			PUSH 	EAX
 00007576  B8 00000049	     5				MOV 	EAX,	'I'
 0000757B  E8 00000000 E     5				CALL 	WriteChar
 00007580  58		     5			POP 	EAX
 00007581  50		     5			PUSH 	EAX
 00007582  B8 00000049	     5				MOV 	EAX,	'I'
 00007587  E8 00000000 E     5				CALL 	WriteChar
 0000758C  58		     5			POP 	EAX
 00007596  50		     5				PUSH 	EAX
 00007597  B8 00000007	     5					MOV 	EAX, 00000111b
 0000759C  E8 00000000 E     5					CALL	SetTextColor
 000075A1  58		     5				POP 	EAX
 000075A2  50		     5			PUSH 	EAX
 000075A3  B8 0000005D	     5				MOV 	EAX,	']'
 000075A8  E8 00000000 E     5				CALL 	WriteChar
 000075AD  58		     5			POP 	EAX
 000075AE  8A 15 00000000 R  5			MOV  	dl, LastPointX
 000075B4  8A 35 00000001 R  5			MOV  	dh, LastPointY
 000075BA  88 15 00000002 R  5			MOV 	CurrentPointX,	dl
 000075C0  88 35 00000003 R  5			MOV 	CurrentPointY,	dh
 000075C6  E8 00000000 E     5			CALL 	Gotoxy 
 000075CB  61		     4			POPAD
 000075CC  61		     3			POPAD
 000075CD  B8 00000001	     2			MOV EAX,	1
 000075E3  50		     3				PUSH 	EAX
 000075E4  B8 0000000E	     3					MOV 	EAX, Yellow
 000075E9  E8 00000000 E     3					CALL	SetTextColor
 000075EE  58		     3				POP 	EAX
 000075FC  8A 15 00000002 R  4			MOV  	dl, CurrentPointX
 00007602  8A 35 00000003 R  4			MOV  	dh, CurrentPointY
 00007608  88 15 00000000 R  4			MOV		LastPointX,	dl
 0000760E  88 35 00000001 R  4			MOV 	LastPointY,	dh
 00007614  B2 67	     4			MOV  	dl, BYTE PTR 103
 00007616  B6 0D	     4			MOV  	dh, BYTE PTR 13
 00007618  88 15 00000002 R  4			MOV 	CurrentPointX,	dl
 0000761E  88 35 00000003 R  4			MOV 	CurrentPointY,	dh
 00007624  E8 00000000 E     4			CALL 	Gotoxy  
 00007629  52		     4				PUSH EDX
 0000762A  52		     5			PUSH EDX
 0000762B  51		     5			PUSH ECX
 0000762C  56		     5			PUSH ESI
 0000762D  BA 00000004 R     5				MOV EDX, OFFSET UserCastle_1_1
 00007632  E8 00000000 E     5				CALL WriteString
 00007637  59		     5			POP ECX
 00007638  59		     5			POP ECX
 00007639  5E		     5			POP ESI
 0000763A  5A		     4				POP  EDX
 0000763B  FE C6	     4				INC  DH
 0000763D  E8 00000000 E     4				Call GoToXY
 00007642  52		     4				PUSH EDX
 00007643  52		     5			PUSH EDX
 00007644  51		     5			PUSH ECX
 00007645  56		     5			PUSH ESI
 00007646  BA 00000019 R     5				MOV EDX, OFFSET UserCastle_1_2
 0000764B  E8 00000000 E     5				CALL WriteString
 00007650  59		     5			POP ECX
 00007651  59		     5			POP ECX
 00007652  5E		     5			POP ESI
 00007653  5A		     4				POP  EDX
 00007654  FE C6	     4				INC  DH
 00007656  E8 00000000 E     4				Call GoToXY
 0000765B  52		     4				PUSH EDX
 0000765C  52		     5			PUSH EDX
 0000765D  51		     5			PUSH ECX
 0000765E  56		     5			PUSH ESI
 0000765F  BA 00000031 R     5				MOV EDX, OFFSET UserCastle_1_3
 00007664  E8 00000000 E     5				CALL WriteString
 00007669  59		     5			POP ECX
 0000766A  59		     5			POP ECX
 0000766B  5E		     5			POP ESI
 0000766C  5A		     4				POP  EDX
 0000766D  FE C6	     4				INC  DH
 0000766F  E8 00000000 E     4				Call GoToXY
 00007674  52		     4				PUSH EDX
 00007675  52		     5			PUSH EDX
 00007676  51		     5			PUSH ECX
 00007677  56		     5			PUSH ESI
 00007678  BA 00000046 R     5				MOV EDX, OFFSET UserCastle_1_4
 0000767D  E8 00000000 E     5				CALL WriteString
 00007682  59		     5			POP ECX
 00007683  59		     5			POP ECX
 00007684  5E		     5			POP ESI
 00007685  5A		     4				POP  EDX
 00007686  FE C6	     4				INC  DH
 00007688  E8 00000000 E     4				Call GoToXY
 0000768D  52		     4				PUSH EDX
 0000768E  52		     5			PUSH EDX
 0000768F  51		     5			PUSH ECX
 00007690  56		     5			PUSH ESI
 00007691  BA 0000005B R     5				MOV EDX, OFFSET UserCastle_1_5
 00007696  E8 00000000 E     5				CALL WriteString
 0000769B  59		     5			POP ECX
 0000769C  59		     5			POP ECX
 0000769D  5E		     5			POP ESI
 0000769E  5A		     4				POP  EDX
 0000769F  FE C6	     4				INC  DH
 000076A1  E8 00000000 E     4				Call GoToXY
 000076B8  8A 15 00000002 R  4			MOV  	dl, CurrentPointX
 000076BE  8A 35 00000003 R  4			MOV  	dh, CurrentPointY
 000076C4  88 15 00000000 R  4			MOV		LastPointX,	dl
 000076CA  88 35 00000001 R  4			MOV 	LastPointY,	dh
 000076D0  B2 67	     4			MOV  	dl, BYTE PTR 103
 000076D2  B6 0A	     4			MOV  	dh, BYTE PTR 10
 000076D4  88 15 00000002 R  4			MOV 	CurrentPointX,	dl
 000076DA  88 35 00000003 R  4			MOV 	CurrentPointY,	dh
 000076E0  E8 00000000 E     4			CALL 	Gotoxy  
 000076E5  52		     4				PUSH EDX
 000076E6  52		     5			PUSH EDX
 000076E7  51		     5			PUSH ECX
 000076E8  56		     5			PUSH ESI
 000076E9  BA 00000070 R     5				MOV EDX, OFFSET UserCastle_2_1
 000076EE  E8 00000000 E     5				CALL WriteString
 000076F3  59		     5			POP ECX
 000076F4  59		     5			POP ECX
 000076F5  5E		     5			POP ESI
 000076F6  5A		     4				POP  EDX
 000076F7  FE C6	     4				INC  DH
 000076F9  E8 00000000 E     4				Call GoToXY
 000076FE  52		     4				PUSH EDX
 000076FF  52		     5			PUSH EDX
 00007700  51		     5			PUSH ECX
 00007701  56		     5			PUSH ESI
 00007702  BA 00000083 R     5				MOV EDX, OFFSET UserCastle_2_2
 00007707  E8 00000000 E     5				CALL WriteString
 0000770C  59		     5			POP ECX
 0000770D  59		     5			POP ECX
 0000770E  5E		     5			POP ESI
 0000770F  5A		     4				POP  EDX
 00007710  FE C6	     4				INC  DH
 00007712  E8 00000000 E     4				Call GoToXY
 00007717  52		     4				PUSH EDX
 00007718  52		     5			PUSH EDX
 00007719  51		     5			PUSH ECX
 0000771A  56		     5			PUSH ESI
 0000771B  BA 00000096 R     5				MOV EDX, OFFSET UserCastle_2_3
 00007720  E8 00000000 E     5				CALL WriteString
 00007725  59		     5			POP ECX
 00007726  59		     5			POP ECX
 00007727  5E		     5			POP ESI
 00007728  5A		     4				POP  EDX
 00007729  FE C6	     4				INC  DH
 0000772B  E8 00000000 E     4				Call GoToXY
 00007730  52		     4				PUSH EDX
 00007731  52		     5			PUSH EDX
 00007732  51		     5			PUSH ECX
 00007733  56		     5			PUSH ESI
 00007734  BA 000000AA R     5				MOV EDX, OFFSET UserCastle_2_4
 00007739  E8 00000000 E     5				CALL WriteString
 0000773E  59		     5			POP ECX
 0000773F  59		     5			POP ECX
 00007740  5E		     5			POP ESI
 00007741  5A		     4				POP  EDX
 00007742  FE C6	     4				INC  DH
 00007744  E8 00000000 E     4				Call GoToXY
 00007749  52		     4				PUSH EDX
 0000774A  52		     5			PUSH EDX
 0000774B  51		     5			PUSH ECX
 0000774C  56		     5			PUSH ESI
 0000774D  BA 000000C0 R     5				MOV EDX, OFFSET UserCastle_2_5
 00007752  E8 00000000 E     5				CALL WriteString
 00007757  59		     5			POP ECX
 00007758  59		     5			POP ECX
 00007759  5E		     5			POP ESI
 0000775A  5A		     4				POP  EDX
 0000775B  FE C6	     4				INC  DH
 0000775D  E8 00000000 E     4				Call GoToXY
 00007762  52		     4				PUSH EDX
 00007763  52		     5			PUSH EDX
 00007764  51		     5			PUSH ECX
 00007765  56		     5			PUSH ESI
 00007766  BA 000000D8 R     5				MOV EDX, OFFSET UserCastle_2_6
 0000776B  E8 00000000 E     5				CALL WriteString
 00007770  59		     5			POP ECX
 00007771  59		     5			POP ECX
 00007772  5E		     5			POP ESI
 00007773  5A		     4				POP  EDX
 00007774  FE C6	     4				INC  DH
 00007776  E8 00000000 E     4				Call GoToXY
 0000777B  52		     4				PUSH EDX
 0000777C  52		     5			PUSH EDX
 0000777D  51		     5			PUSH ECX
 0000777E  56		     5			PUSH ESI
 0000777F  BA 000000ED R     5				MOV EDX, OFFSET UserCastle_2_7
 00007784  E8 00000000 E     5				CALL WriteString
 00007789  59		     5			POP ECX
 0000778A  59		     5			POP ECX
 0000778B  5E		     5			POP ESI
 0000778C  5A		     4				POP  EDX
 0000778D  FE C6	     4				INC  DH
 0000778F  E8 00000000 E     4				Call GoToXY
 00007794  52		     4				PUSH EDX
 00007795  52		     5			PUSH EDX
 00007796  51		     5			PUSH ECX
 00007797  56		     5			PUSH ESI
 00007798  BA 00000104 R     5				MOV EDX, OFFSET UserCastle_2_8
 0000779D  E8 00000000 E     5				CALL WriteString
 000077A2  59		     5			POP ECX
 000077A3  59		     5			POP ECX
 000077A4  5E		     5			POP ESI
 000077A5  5A		     4				POP  EDX
 000077A6  FE C6	     4				INC  DH
 000077A8  E8 00000000 E     4				Call GoToXY
 000077BF  8A 15 00000002 R  4			MOV  	dl, CurrentPointX
 000077C5  8A 35 00000003 R  4			MOV  	dh, CurrentPointY
 000077CB  88 15 00000000 R  4			MOV		LastPointX,	dl
 000077D1  88 35 00000001 R  4			MOV 	LastPointY,	dh
 000077D7  B2 67	     4			MOV  	dl, BYTE PTR 103
 000077D9  B6 09	     4			MOV  	dh, BYTE PTR 9
 000077DB  88 15 00000002 R  4			MOV 	CurrentPointX,	dl
 000077E1  88 35 00000003 R  4			MOV 	CurrentPointY,	dh
 000077E7  E8 00000000 E     4			CALL 	Gotoxy  
 000077EC  52		     4				PUSH EDX
 000077ED  52		     5			PUSH EDX
 000077EE  51		     5			PUSH ECX
 000077EF  56		     5			PUSH ESI
 000077F0  BA 0000011B R     5				MOV EDX, OFFSET UserCastle_3_1
 000077F5  E8 00000000 E     5				CALL WriteString
 000077FA  59		     5			POP ECX
 000077FB  59		     5			POP ECX
 000077FC  5E		     5			POP ESI
 000077FD  5A		     4				POP  EDX
 000077FE  FE C6	     4				INC  DH
 00007800  E8 00000000 E     4				Call GoToXY
 00007805  52		     4				PUSH EDX
 00007806  52		     5			PUSH EDX
 00007807  51		     5			PUSH ECX
 00007808  56		     5			PUSH ESI
 00007809  BA 0000012D R     5				MOV EDX, OFFSET UserCastle_3_2
 0000780E  E8 00000000 E     5				CALL WriteString
 00007813  59		     5			POP ECX
 00007814  59		     5			POP ECX
 00007815  5E		     5			POP ESI
 00007816  5A		     4				POP  EDX
 00007817  FE C6	     4				INC  DH
 00007819  E8 00000000 E     4				Call GoToXY
 0000781E  52		     4				PUSH EDX
 0000781F  52		     5			PUSH EDX
 00007820  51		     5			PUSH ECX
 00007821  56		     5			PUSH ESI
 00007822  BA 0000013F R     5				MOV EDX, OFFSET UserCastle_3_3
 00007827  E8 00000000 E     5				CALL WriteString
 0000782C  59		     5			POP ECX
 0000782D  59		     5			POP ECX
 0000782E  5E		     5			POP ESI
 0000782F  5A		     4				POP  EDX
 00007830  FE C6	     4				INC  DH
 00007832  E8 00000000 E     4				Call GoToXY
 00007837  52		     4				PUSH EDX
 00007838  52		     5			PUSH EDX
 00007839  51		     5			PUSH ECX
 0000783A  56		     5			PUSH ESI
 0000783B  BA 00000154 R     5				MOV EDX, OFFSET UserCastle_3_4
 00007840  E8 00000000 E     5				CALL WriteString
 00007845  59		     5			POP ECX
 00007846  59		     5			POP ECX
 00007847  5E		     5			POP ESI
 00007848  5A		     4				POP  EDX
 00007849  FE C6	     4				INC  DH
 0000784B  E8 00000000 E     4				Call GoToXY
 00007850  52		     4				PUSH EDX
 00007851  52		     5			PUSH EDX
 00007852  51		     5			PUSH ECX
 00007853  56		     5			PUSH ESI
 00007854  BA 00000169 R     5				MOV EDX, OFFSET UserCastle_3_5
 00007859  E8 00000000 E     5				CALL WriteString
 0000785E  59		     5			POP ECX
 0000785F  59		     5			POP ECX
 00007860  5E		     5			POP ESI
 00007861  5A		     4				POP  EDX
 00007862  FE C6	     4				INC  DH
 00007864  E8 00000000 E     4				Call GoToXY
 00007869  52		     4				PUSH EDX
 0000786A  52		     5			PUSH EDX
 0000786B  51		     5			PUSH ECX
 0000786C  56		     5			PUSH ESI
 0000786D  BA 00000180 R     5				MOV EDX, OFFSET UserCastle_3_6
 00007872  E8 00000000 E     5				CALL WriteString
 00007877  59		     5			POP ECX
 00007878  59		     5			POP ECX
 00007879  5E		     5			POP ESI
 0000787A  5A		     4				POP  EDX
 0000787B  FE C6	     4				INC  DH
 0000787D  E8 00000000 E     4				Call GoToXY
 00007882  52		     4				PUSH EDX
 00007883  52		     5			PUSH EDX
 00007884  51		     5			PUSH ECX
 00007885  56		     5			PUSH ESI
 00007886  BA 00000197 R     5				MOV EDX, OFFSET UserCastle_3_7
 0000788B  E8 00000000 E     5				CALL WriteString
 00007890  59		     5			POP ECX
 00007891  59		     5			POP ECX
 00007892  5E		     5			POP ESI
 00007893  5A		     4				POP  EDX
 00007894  FE C6	     4				INC  DH
 00007896  E8 00000000 E     4				Call GoToXY
 0000789B  52		     4				PUSH EDX
 0000789C  52		     5			PUSH EDX
 0000789D  51		     5			PUSH ECX
 0000789E  56		     5			PUSH ESI
 0000789F  BA 000001AF R     5				MOV EDX, OFFSET UserCastle_3_8
 000078A4  E8 00000000 E     5				CALL WriteString
 000078A9  59		     5			POP ECX
 000078AA  59		     5			POP ECX
 000078AB  5E		     5			POP ESI
 000078AC  5A		     4				POP  EDX
 000078AD  FE C6	     4				INC  DH
 000078AF  E8 00000000 E     4				Call GoToXY
 000078B4  52		     4				PUSH EDX
 000078B5  52		     5			PUSH EDX
 000078B6  51		     5			PUSH ECX
 000078B7  56		     5			PUSH ESI
 000078B8  BA 000001C7 R     5				MOV EDX, OFFSET UserCastle_3_9
 000078BD  E8 00000000 E     5				CALL WriteString
 000078C2  59		     5			POP ECX
 000078C3  59		     5			POP ECX
 000078C4  5E		     5			POP ESI
 000078C5  5A		     4				POP  EDX
 000078C6  FE C6	     4				INC  DH
 000078C8  E8 00000000 E     4				Call GoToXY
 000078DA  50		     3				PUSH 	EAX
 000078DB  B8 00000007	     3					MOV 	EAX, 00000111b
 000078E0  E8 00000000 E     3					CALL	SetTextColor
 000078E5  58		     3				POP 	EAX
 000078F4  50		     3				PUSH 	EAX
 000078F5  B8 0000000C	     3					MOV 	EAX, LightRed
 000078FA  E8 00000000 E     3					CALL	SetTextColor
 000078FF  58		     3				POP 	EAX
 0000790D  8A 15 00000002 R  4			MOV  	dl, CurrentPointX
 00007913  8A 35 00000003 R  4			MOV  	dh, CurrentPointY
 00007919  88 15 00000000 R  4			MOV		LastPointX,	dl
 0000791F  88 35 00000001 R  4			MOV 	LastPointY,	dh
 00007925  B2 67	     4			MOV  	dl, BYTE PTR 103
 00007927  B6 0C	     4			MOV  	dh, BYTE PTR 12
 00007929  88 15 00000002 R  4			MOV 	CurrentPointX,	dl
 0000792F  88 35 00000003 R  4			MOV 	CurrentPointY,	dh
 00007935  E8 00000000 E     4			CALL 	Gotoxy  
 0000793A  52		     4				PUSH EDX
 0000793B  52		     5			PUSH EDX
 0000793C  51		     5			PUSH ECX
 0000793D  56		     5			PUSH ESI
 0000793E  BA 000001DF R     5				MOV EDX, OFFSET CompCastle_1_1
 00007943  E8 00000000 E     5				CALL WriteString
 00007948  59		     5			POP ECX
 00007949  59		     5			POP ECX
 0000794A  5E		     5			POP ESI
 0000794B  5A		     4				POP  EDX
 0000794C  FE C6	     4				INC  DH
 0000794E  E8 00000000 E     4				Call GoToXY
 00007953  52		     4				PUSH EDX
 00007954  52		     5			PUSH EDX
 00007955  51		     5			PUSH ECX
 00007956  56		     5			PUSH ESI
 00007957  BA 000001EF R     5				MOV EDX, OFFSET CompCastle_1_2
 0000795C  E8 00000000 E     5				CALL WriteString
 00007961  59		     5			POP ECX
 00007962  59		     5			POP ECX
 00007963  5E		     5			POP ESI
 00007964  5A		     4				POP  EDX
 00007965  FE C6	     4				INC  DH
 00007967  E8 00000000 E     4				Call GoToXY
 0000796C  52		     4				PUSH EDX
 0000796D  52		     5			PUSH EDX
 0000796E  51		     5			PUSH ECX
 0000796F  56		     5			PUSH ESI
 00007970  BA 000001FC R     5				MOV EDX, OFFSET CompCastle_1_3
 00007975  E8 00000000 E     5				CALL WriteString
 0000797A  59		     5			POP ECX
 0000797B  59		     5			POP ECX
 0000797C  5E		     5			POP ESI
 0000797D  5A		     4				POP  EDX
 0000797E  FE C6	     4				INC  DH
 00007980  E8 00000000 E     4				Call GoToXY
 00007985  52		     4				PUSH EDX
 00007986  52		     5			PUSH EDX
 00007987  51		     5			PUSH ECX
 00007988  56		     5			PUSH ESI
 00007989  BA 00000209 R     5				MOV EDX, OFFSET CompCastle_1_4
 0000798E  E8 00000000 E     5				CALL WriteString
 00007993  59		     5			POP ECX
 00007994  59		     5			POP ECX
 00007995  5E		     5			POP ESI
 00007996  5A		     4				POP  EDX
 00007997  FE C6	     4				INC  DH
 00007999  E8 00000000 E     4				Call GoToXY
 0000799E  52		     4				PUSH EDX
 0000799F  52		     5			PUSH EDX
 000079A0  51		     5			PUSH ECX
 000079A1  56		     5			PUSH ESI
 000079A2  BA 00000216 R     5				MOV EDX, OFFSET CompCastle_1_5
 000079A7  E8 00000000 E     5				CALL WriteString
 000079AC  59		     5			POP ECX
 000079AD  59		     5			POP ECX
 000079AE  5E		     5			POP ESI
 000079AF  5A		     4				POP  EDX
 000079B0  FE C6	     4				INC  DH
 000079B2  E8 00000000 E     4				Call GoToXY
 000079B7  52		     4				PUSH EDX
 000079B8  52		     5			PUSH EDX
 000079B9  51		     5			PUSH ECX
 000079BA  56		     5			PUSH ESI
 000079BB  BA 00000223 R     5				MOV EDX, OFFSET CompCastle_1_6
 000079C0  E8 00000000 E     5				CALL WriteString
 000079C5  59		     5			POP ECX
 000079C6  59		     5			POP ECX
 000079C7  5E		     5			POP ESI
 000079C8  5A		     4				POP  EDX
 000079C9  FE C6	     4				INC  DH
 000079CB  E8 00000000 E     4				Call GoToXY
 000079E2  8A 15 00000002 R  4			MOV  	dl, CurrentPointX
 000079E8  8A 35 00000003 R  4			MOV  	dh, CurrentPointY
 000079EE  88 15 00000000 R  4			MOV		LastPointX,	dl
 000079F4  88 35 00000001 R  4			MOV 	LastPointY,	dh
 000079FA  B2 67	     4			MOV  	dl, BYTE PTR 103
 000079FC  B6 0A	     4			MOV  	dh, BYTE PTR 10
 000079FE  88 15 00000002 R  4			MOV 	CurrentPointX,	dl
 00007A04  88 35 00000003 R  4			MOV 	CurrentPointY,	dh
 00007A0A  E8 00000000 E     4			CALL 	Gotoxy  
 00007A0F  52		     4				PUSH EDX
 00007A10  52		     5			PUSH EDX
 00007A11  51		     5			PUSH ECX
 00007A12  56		     5			PUSH ESI
 00007A13  BA 00000230 R     5				MOV EDX, OFFSET CompCastle_2_1
 00007A18  E8 00000000 E     5				CALL WriteString
 00007A1D  59		     5			POP ECX
 00007A1E  59		     5			POP ECX
 00007A1F  5E		     5			POP ESI
 00007A20  5A		     4				POP  EDX
 00007A21  FE C6	     4				INC  DH
 00007A23  E8 00000000 E     4				Call GoToXY
 00007A28  52		     4				PUSH EDX
 00007A29  52		     5			PUSH EDX
 00007A2A  51		     5			PUSH ECX
 00007A2B  56		     5			PUSH ESI
 00007A2C  BA 0000023B R     5				MOV EDX, OFFSET CompCastle_2_2
 00007A31  E8 00000000 E     5				CALL WriteString
 00007A36  59		     5			POP ECX
 00007A37  59		     5			POP ECX
 00007A38  5E		     5			POP ESI
 00007A39  5A		     4				POP  EDX
 00007A3A  FE C6	     4				INC  DH
 00007A3C  E8 00000000 E     4				Call GoToXY
 00007A41  52		     4				PUSH EDX
 00007A42  52		     5			PUSH EDX
 00007A43  51		     5			PUSH ECX
 00007A44  56		     5			PUSH ESI
 00007A45  BA 00000246 R     5				MOV EDX, OFFSET CompCastle_2_3
 00007A4A  E8 00000000 E     5				CALL WriteString
 00007A4F  59		     5			POP ECX
 00007A50  59		     5			POP ECX
 00007A51  5E		     5			POP ESI
 00007A52  5A		     4				POP  EDX
 00007A53  FE C6	     4				INC  DH
 00007A55  E8 00000000 E     4				Call GoToXY
 00007A5A  52		     4				PUSH EDX
 00007A5B  52		     5			PUSH EDX
 00007A5C  51		     5			PUSH ECX
 00007A5D  56		     5			PUSH ESI
 00007A5E  BA 00000255 R     5				MOV EDX, OFFSET CompCastle_2_4
 00007A63  E8 00000000 E     5				CALL WriteString
 00007A68  59		     5			POP ECX
 00007A69  59		     5			POP ECX
 00007A6A  5E		     5			POP ESI
 00007A6B  5A		     4				POP  EDX
 00007A6C  FE C6	     4				INC  DH
 00007A6E  E8 00000000 E     4				Call GoToXY
 00007A73  52		     4				PUSH EDX
 00007A74  52		     5			PUSH EDX
 00007A75  51		     5			PUSH ECX
 00007A76  56		     5			PUSH ESI
 00007A77  BA 00000264 R     5				MOV EDX, OFFSET CompCastle_2_5
 00007A7C  E8 00000000 E     5				CALL WriteString
 00007A81  59		     5			POP ECX
 00007A82  59		     5			POP ECX
 00007A83  5E		     5			POP ESI
 00007A84  5A		     4				POP  EDX
 00007A85  FE C6	     4				INC  DH
 00007A87  E8 00000000 E     4				Call GoToXY
 00007A8C  52		     4				PUSH EDX
 00007A8D  52		     5			PUSH EDX
 00007A8E  51		     5			PUSH ECX
 00007A8F  56		     5			PUSH ESI
 00007A90  BA 00000275 R     5				MOV EDX, OFFSET CompCastle_2_6
 00007A95  E8 00000000 E     5				CALL WriteString
 00007A9A  59		     5			POP ECX
 00007A9B  59		     5			POP ECX
 00007A9C  5E		     5			POP ESI
 00007A9D  5A		     4				POP  EDX
 00007A9E  FE C6	     4				INC  DH
 00007AA0  E8 00000000 E     4				Call GoToXY
 00007AA5  52		     4				PUSH EDX
 00007AA6  52		     5			PUSH EDX
 00007AA7  51		     5			PUSH ECX
 00007AA8  56		     5			PUSH ESI
 00007AA9  BA 00000286 R     5				MOV EDX, OFFSET CompCastle_2_7
 00007AAE  E8 00000000 E     5				CALL WriteString
 00007AB3  59		     5			POP ECX
 00007AB4  59		     5			POP ECX
 00007AB5  5E		     5			POP ESI
 00007AB6  5A		     4				POP  EDX
 00007AB7  FE C6	     4				INC  DH
 00007AB9  E8 00000000 E     4				Call GoToXY
 00007ABE  52		     4				PUSH EDX
 00007ABF  52		     5			PUSH EDX
 00007AC0  51		     5			PUSH ECX
 00007AC1  56		     5			PUSH ESI
 00007AC2  BA 00000295 R     5				MOV EDX, OFFSET CompCastle_2_8
 00007AC7  E8 00000000 E     5				CALL WriteString
 00007ACC  59		     5			POP ECX
 00007ACD  59		     5			POP ECX
 00007ACE  5E		     5			POP ESI
 00007ACF  5A		     4				POP  EDX
 00007AD0  FE C6	     4				INC  DH
 00007AD2  E8 00000000 E     4				Call GoToXY
 00007AE9  8A 15 00000002 R  4			MOV  	dl, CurrentPointX
 00007AEF  8A 35 00000003 R  4			MOV  	dh, CurrentPointY
 00007AF5  88 15 00000000 R  4			MOV		LastPointX,	dl
 00007AFB  88 35 00000001 R  4			MOV 	LastPointY,	dh
 00007B01  B2 67	     4			MOV  	dl, BYTE PTR 103
 00007B03  B6 09	     4			MOV  	dh, BYTE PTR 9
 00007B05  88 15 00000002 R  4			MOV 	CurrentPointX,	dl
 00007B0B  88 35 00000003 R  4			MOV 	CurrentPointY,	dh
 00007B11  E8 00000000 E     4			CALL 	Gotoxy  
 00007B16  52		     4				PUSH EDX
 00007B17  52		     5			PUSH EDX
 00007B18  51		     5			PUSH ECX
 00007B19  56		     5			PUSH ESI
 00007B1A  BA 000002A4 R     5				MOV EDX, OFFSET CompCastle_3_1
 00007B1F  E8 00000000 E     5				CALL WriteString
 00007B24  59		     5			POP ECX
 00007B25  59		     5			POP ECX
 00007B26  5E		     5			POP ESI
 00007B27  5A		     4				POP  EDX
 00007B28  FE C6	     4				INC  DH
 00007B2A  E8 00000000 E     4				Call GoToXY
 00007B2F  52		     4				PUSH EDX
 00007B30  52		     5			PUSH EDX
 00007B31  51		     5			PUSH ECX
 00007B32  56		     5			PUSH ESI
 00007B33  BA 000002B7 R     5				MOV EDX, OFFSET CompCastle_3_2
 00007B38  E8 00000000 E     5				CALL WriteString
 00007B3D  59		     5			POP ECX
 00007B3E  59		     5			POP ECX
 00007B3F  5E		     5			POP ESI
 00007B40  5A		     4				POP  EDX
 00007B41  FE C6	     4				INC  DH
 00007B43  E8 00000000 E     4				Call GoToXY
 00007B48  52		     4				PUSH EDX
 00007B49  52		     5			PUSH EDX
 00007B4A  51		     5			PUSH ECX
 00007B4B  56		     5			PUSH ESI
 00007B4C  BA 000002CC R     5				MOV EDX, OFFSET CompCastle_3_3
 00007B51  E8 00000000 E     5				CALL WriteString
 00007B56  59		     5			POP ECX
 00007B57  59		     5			POP ECX
 00007B58  5E		     5			POP ESI
 00007B59  5A		     4				POP  EDX
 00007B5A  FE C6	     4				INC  DH
 00007B5C  E8 00000000 E     4				Call GoToXY
 00007B61  52		     4				PUSH EDX
 00007B62  52		     5			PUSH EDX
 00007B63  51		     5			PUSH ECX
 00007B64  56		     5			PUSH ESI
 00007B65  BA 000002DD R     5				MOV EDX, OFFSET CompCastle_3_4
 00007B6A  E8 00000000 E     5				CALL WriteString
 00007B6F  59		     5			POP ECX
 00007B70  59		     5			POP ECX
 00007B71  5E		     5			POP ESI
 00007B72  5A		     4				POP  EDX
 00007B73  FE C6	     4				INC  DH
 00007B75  E8 00000000 E     4				Call GoToXY
 00007B7A  52		     4				PUSH EDX
 00007B7B  52		     5			PUSH EDX
 00007B7C  51		     5			PUSH ECX
 00007B7D  56		     5			PUSH ESI
 00007B7E  BA 000002F3 R     5				MOV EDX, OFFSET CompCastle_3_5
 00007B83  E8 00000000 E     5				CALL WriteString
 00007B88  59		     5			POP ECX
 00007B89  59		     5			POP ECX
 00007B8A  5E		     5			POP ESI
 00007B8B  5A		     4				POP  EDX
 00007B8C  FE C6	     4				INC  DH
 00007B8E  E8 00000000 E     4				Call GoToXY
 00007B93  52		     4				PUSH EDX
 00007B94  52		     5			PUSH EDX
 00007B95  51		     5			PUSH ECX
 00007B96  56		     5			PUSH ESI
 00007B97  BA 00000309 R     5				MOV EDX, OFFSET CompCastle_3_6
 00007B9C  E8 00000000 E     5				CALL WriteString
 00007BA1  59		     5			POP ECX
 00007BA2  59		     5			POP ECX
 00007BA3  5E		     5			POP ESI
 00007BA4  5A		     4				POP  EDX
 00007BA5  FE C6	     4				INC  DH
 00007BA7  E8 00000000 E     4				Call GoToXY
 00007BAC  52		     4				PUSH EDX
 00007BAD  52		     5			PUSH EDX
 00007BAE  51		     5			PUSH ECX
 00007BAF  56		     5			PUSH ESI
 00007BB0  BA 0000031F R     5				MOV EDX, OFFSET CompCastle_3_7
 00007BB5  E8 00000000 E     5				CALL WriteString
 00007BBA  59		     5			POP ECX
 00007BBB  59		     5			POP ECX
 00007BBC  5E		     5			POP ESI
 00007BBD  5A		     4				POP  EDX
 00007BBE  FE C6	     4				INC  DH
 00007BC0  E8 00000000 E     4				Call GoToXY
 00007BC5  52		     4				PUSH EDX
 00007BC6  52		     5			PUSH EDX
 00007BC7  51		     5			PUSH ECX
 00007BC8  56		     5			PUSH ESI
 00007BC9  BA 00000336 R     5				MOV EDX, OFFSET CompCastle_3_8
 00007BCE  E8 00000000 E     5				CALL WriteString
 00007BD3  59		     5			POP ECX
 00007BD4  59		     5			POP ECX
 00007BD5  5E		     5			POP ESI
 00007BD6  5A		     4				POP  EDX
 00007BD7  FE C6	     4				INC  DH
 00007BD9  E8 00000000 E     4				Call GoToXY
 00007BDE  52		     4				PUSH EDX
 00007BDF  52		     5			PUSH EDX
 00007BE0  51		     5			PUSH ECX
 00007BE1  56		     5			PUSH ESI
 00007BE2  BA 00000347 R     5				MOV EDX, OFFSET CompCastle_3_9
 00007BE7  E8 00000000 E     5				CALL WriteString
 00007BEC  59		     5			POP ECX
 00007BED  59		     5			POP ECX
 00007BEE  5E		     5			POP ESI
 00007BEF  5A		     4				POP  EDX
 00007BF0  FE C6	     4				INC  DH
 00007BF2  E8 00000000 E     4				Call GoToXY
 00007C00  50		     3				PUSH 	EAX
 00007C01  B8 00000007	     3					MOV 	EAX, 00000111b
 00007C06  E8 00000000 E     3					CALL	SetTextColor
 00007C0B  58		     3				POP 	EAX
 00007C0C  60		     2			PUSHAD
 00007C0D  B9 0000003C	     3			MOV 	ECX,	60
 00007C12  BB 00000017	     3			MOV 	EBX,	SIZEOF Dialog_Example_1
 00007C17  D1 EB	     3			SHR		EBX,	1
 00007C19  2B CB	     3			SUB 	ECX,	EBX
 00007C1B  89 0D 00000CA0 R  3			MOV 	SetterBuffer,	ECX
 00007C21  50		     4			PUSH EAX
 00007C22  51		     4			PUSH ECX
 00007C23  56		     4			PUSH ESI
 00007C24  8B C2	     4				MOV 	EAX,	EDX
 00007C26  8A 15 00000CA0 R  4				MOV  	 DL, BYTE PTR SetterBuffer
 00007C2C  B6 17	     4				MOV  	 DH, BYTE PTR 23 
 00007C2E  E8 00000000 E     4				CALL 	Gotoxy
 00007C33  8B D0	     4				MOV 	EDX,	EAX
 00007C35  BA 00000DDD R     4				MOV EDX, OFFSET Dialog_Example_1
 00007C3A  E8 00000000 E     4				CALL WriteString
 00007C3F  58		     4			POP EAX
 00007C40  59		     4			POP ECX
 00007C41  5E		     4			POP ESI
 00007C42  50		     3			PUSH EAX
 00007C43  E8 00000000 E     3				CALL ReadChar
 00007C48  58		     3			POP  EAX
 00007C52  50		     3				PUSH 	EAX
 00007C53  B8 00000000	     3					MOV 	EAX, Black
 00007C58  E8 00000000 E     3					CALL	SetTextColor
 00007C5D  58		     3				POP 	EAX
 00007C5E  B9 0000003C	     3			MOV 	ECX,	60
 00007C63  BB 00000017	     3			MOV 	EBX,	SIZEOF Dialog_Example_1
 00007C68  D1 EB	     3			SHR		EBX,	1
 00007C6A  2B CB	     3			SUB 	ECX,	EBX
 00007C6C  89 0D 00000CA0 R  3			MOV 	SetterBuffer,	ECX
 00007C72  50		     4			PUSH EAX
 00007C73  51		     4			PUSH ECX
 00007C74  56		     4			PUSH ESI
 00007C75  8B C2	     4				MOV 	EAX,	EDX
 00007C77  8A 15 00000CA0 R  4				MOV  	 DL, BYTE PTR SetterBuffer
 00007C7D  B6 17	     4				MOV  	 DH, BYTE PTR 23 
 00007C7F  E8 00000000 E     4				CALL 	Gotoxy
 00007C84  8B D0	     4				MOV 	EDX,	EAX
 00007C86  BA 00000DDD R     4				MOV EDX, OFFSET Dialog_Example_1
 00007C8B  E8 00000000 E     4				CALL WriteString
 00007C90  58		     4			POP EAX
 00007C91  59		     4			POP ECX
 00007C92  5E		     4			POP ESI
 00007C9C  50		     3				PUSH 	EAX
 00007C9D  B8 00000007	     3					MOV 	EAX, 00000111b
 00007CA2  E8 00000000 E     3					CALL	SetTextColor
 00007CA7  58		     3				POP 	EAX
 00007CA8  8A 15 00000002 R  3			MOV  	dl, CurrentPointX
 00007CAE  8A 35 00000003 R  3			MOV  	dh, CurrentPointY
 00007CB4  88 15 00000000 R  3			MOV		LastPointX,	dl
 00007CBA  88 35 00000001 R  3			MOV 	LastPointY,	dh
 00007CC0  B2 00	     3			MOV  	dl, BYTE PTR 0
 00007CC2  B6 00	     3			MOV  	dh, BYTE PTR 0
 00007CC4  88 15 00000002 R  3			MOV 	CurrentPointX,	dl
 00007CCA  88 35 00000003 R  3			MOV 	CurrentPointY,	dh
 00007CD0  E8 00000000 E     3			CALL 	Gotoxy  
 00007CD5  61		     2			POPAD
 00007CD6  60		     2			PUSHAD
 00007CD7  B9 0000003C	     3			MOV 	ECX,	60
 00007CDC  BB 00000037	     3			MOV 	EBX,	SIZEOF Dialog_Example_2
 00007CE1  D1 EB	     3			SHR		EBX,	1
 00007CE3  2B CB	     3			SUB 	ECX,	EBX
 00007CE5  89 0D 00000CA0 R  3			MOV 	SetterBuffer,	ECX
 00007CEB  50		     4			PUSH EAX
 00007CEC  51		     4			PUSH ECX
 00007CED  56		     4			PUSH ESI
 00007CEE  8B C2	     4				MOV 	EAX,	EDX
 00007CF0  8A 15 00000CA0 R  4				MOV  	 DL, BYTE PTR SetterBuffer
 00007CF6  B6 17	     4				MOV  	 DH, BYTE PTR 23 
 00007CF8  E8 00000000 E     4				CALL 	Gotoxy
 00007CFD  8B D0	     4				MOV 	EDX,	EAX
 00007CFF  BA 00000DF4 R     4				MOV EDX, OFFSET Dialog_Example_2
 00007D04  E8 00000000 E     4				CALL WriteString
 00007D09  58		     4			POP EAX
 00007D0A  59		     4			POP ECX
 00007D0B  5E		     4			POP ESI
 00007D0C  50		     3			PUSH EAX
 00007D0D  E8 00000000 E     3				CALL ReadChar
 00007D12  58		     3			POP  EAX
 00007D1C  50		     3				PUSH 	EAX
 00007D1D  B8 00000000	     3					MOV 	EAX, Black
 00007D22  E8 00000000 E     3					CALL	SetTextColor
 00007D27  58		     3				POP 	EAX
 00007D28  B9 0000003C	     3			MOV 	ECX,	60
 00007D2D  BB 00000037	     3			MOV 	EBX,	SIZEOF Dialog_Example_2
 00007D32  D1 EB	     3			SHR		EBX,	1
 00007D34  2B CB	     3			SUB 	ECX,	EBX
 00007D36  89 0D 00000CA0 R  3			MOV 	SetterBuffer,	ECX
 00007D3C  50		     4			PUSH EAX
 00007D3D  51		     4			PUSH ECX
 00007D3E  56		     4			PUSH ESI
 00007D3F  8B C2	     4				MOV 	EAX,	EDX
 00007D41  8A 15 00000CA0 R  4				MOV  	 DL, BYTE PTR SetterBuffer
 00007D47  B6 17	     4				MOV  	 DH, BYTE PTR 23 
 00007D49  E8 00000000 E     4				CALL 	Gotoxy
 00007D4E  8B D0	     4				MOV 	EDX,	EAX
 00007D50  BA 00000DF4 R     4				MOV EDX, OFFSET Dialog_Example_2
 00007D55  E8 00000000 E     4				CALL WriteString
 00007D5A  58		     4			POP EAX
 00007D5B  59		     4			POP ECX
 00007D5C  5E		     4			POP ESI
 00007D66  50		     3				PUSH 	EAX
 00007D67  B8 00000007	     3					MOV 	EAX, 00000111b
 00007D6C  E8 00000000 E     3					CALL	SetTextColor
 00007D71  58		     3				POP 	EAX
 00007D72  8A 15 00000002 R  3			MOV  	dl, CurrentPointX
 00007D78  8A 35 00000003 R  3			MOV  	dh, CurrentPointY
 00007D7E  88 15 00000000 R  3			MOV		LastPointX,	dl
 00007D84  88 35 00000001 R  3			MOV 	LastPointY,	dh
 00007D8A  B2 00	     3			MOV  	dl, BYTE PTR 0
 00007D8C  B6 00	     3			MOV  	dh, BYTE PTR 0
 00007D8E  88 15 00000002 R  3			MOV 	CurrentPointX,	dl
 00007D94  88 35 00000003 R  3			MOV 	CurrentPointY,	dh
 00007D9A  E8 00000000 E     3			CALL 	Gotoxy  
 00007D9F  61		     2			POPAD
 00007DA0  60		     2			PUSHAD
 00007DA1  B9 0000003C	     3			MOV 	ECX,	60
 00007DA6  BB 00000005	     3			MOV 	EBX,	SIZEOF Dialog_Example_3
 00007DAB  D1 EB	     3			SHR		EBX,	1
 00007DAD  2B CB	     3			SUB 	ECX,	EBX
 00007DAF  89 0D 00000CA0 R  3			MOV 	SetterBuffer,	ECX
 00007DB5  50		     4			PUSH EAX
 00007DB6  51		     4			PUSH ECX
 00007DB7  56		     4			PUSH ESI
 00007DB8  8B C2	     4				MOV 	EAX,	EDX
 00007DBA  8A 15 00000CA0 R  4				MOV  	 DL, BYTE PTR SetterBuffer
 00007DC0  B6 17	     4				MOV  	 DH, BYTE PTR 23 
 00007DC2  E8 00000000 E     4				CALL 	Gotoxy
 00007DC7  8B D0	     4				MOV 	EDX,	EAX
 00007DC9  BA 00000E2B R     4				MOV EDX, OFFSET Dialog_Example_3
 00007DCE  E8 00000000 E     4				CALL WriteString
 00007DD3  58		     4			POP EAX
 00007DD4  59		     4			POP ECX
 00007DD5  5E		     4			POP ESI
 00007DD6  50		     3			PUSH EAX
 00007DD7  E8 00000000 E     3				CALL ReadChar
 00007DDC  58		     3			POP  EAX
 00007DE6  50		     3				PUSH 	EAX
 00007DE7  B8 00000000	     3					MOV 	EAX, Black
 00007DEC  E8 00000000 E     3					CALL	SetTextColor
 00007DF1  58		     3				POP 	EAX
 00007DF2  B9 0000003C	     3			MOV 	ECX,	60
 00007DF7  BB 00000005	     3			MOV 	EBX,	SIZEOF Dialog_Example_3
 00007DFC  D1 EB	     3			SHR		EBX,	1
 00007DFE  2B CB	     3			SUB 	ECX,	EBX
 00007E00  89 0D 00000CA0 R  3			MOV 	SetterBuffer,	ECX
 00007E06  50		     4			PUSH EAX
 00007E07  51		     4			PUSH ECX
 00007E08  56		     4			PUSH ESI
 00007E09  8B C2	     4				MOV 	EAX,	EDX
 00007E0B  8A 15 00000CA0 R  4				MOV  	 DL, BYTE PTR SetterBuffer
 00007E11  B6 17	     4				MOV  	 DH, BYTE PTR 23 
 00007E13  E8 00000000 E     4				CALL 	Gotoxy
 00007E18  8B D0	     4				MOV 	EDX,	EAX
 00007E1A  BA 00000E2B R     4				MOV EDX, OFFSET Dialog_Example_3
 00007E1F  E8 00000000 E     4				CALL WriteString
 00007E24  58		     4			POP EAX
 00007E25  59		     4			POP ECX
 00007E26  5E		     4			POP ESI
 00007E30  50		     3				PUSH 	EAX
 00007E31  B8 00000007	     3					MOV 	EAX, 00000111b
 00007E36  E8 00000000 E     3					CALL	SetTextColor
 00007E3B  58		     3				POP 	EAX
 00007E3C  8A 15 00000002 R  3			MOV  	dl, CurrentPointX
 00007E42  8A 35 00000003 R  3			MOV  	dh, CurrentPointY
 00007E48  88 15 00000000 R  3			MOV		LastPointX,	dl
 00007E4E  88 35 00000001 R  3			MOV 	LastPointY,	dh
 00007E54  B2 00	     3			MOV  	dl, BYTE PTR 0
 00007E56  B6 00	     3			MOV  	dh, BYTE PTR 0
 00007E58  88 15 00000002 R  3			MOV 	CurrentPointX,	dl
 00007E5E  88 35 00000003 R  3			MOV 	CurrentPointY,	dh
 00007E64  E8 00000000 E     3			CALL 	Gotoxy  
 00007E69  61		     2			POPAD
 00007E6A  60		     2			PUSHAD
 00007E6B  B9 0000003C	     3			MOV 	ECX,	60
 00007E70  BB 0000003C	     3			MOV 	EBX,	SIZEOF Dialog_Example_4
 00007E75  D1 EB	     3			SHR		EBX,	1
 00007E77  2B CB	     3			SUB 	ECX,	EBX
 00007E79  89 0D 00000CA0 R  3			MOV 	SetterBuffer,	ECX
 00007E7F  50		     4			PUSH EAX
 00007E80  51		     4			PUSH ECX
 00007E81  56		     4			PUSH ESI
 00007E82  8B C2	     4				MOV 	EAX,	EDX
 00007E84  8A 15 00000CA0 R  4				MOV  	 DL, BYTE PTR SetterBuffer
 00007E8A  B6 17	     4				MOV  	 DH, BYTE PTR 23 
 00007E8C  E8 00000000 E     4				CALL 	Gotoxy
 00007E91  8B D0	     4				MOV 	EDX,	EAX
 00007E93  BA 00000E30 R     4				MOV EDX, OFFSET Dialog_Example_4
 00007E98  E8 00000000 E     4				CALL WriteString
 00007E9D  58		     4			POP EAX
 00007E9E  59		     4			POP ECX
 00007E9F  5E		     4			POP ESI
 00007EA0  50		     3			PUSH EAX
 00007EA1  E8 00000000 E     3				CALL ReadChar
 00007EA6  58		     3			POP  EAX
 00007EB0  50		     3				PUSH 	EAX
 00007EB1  B8 00000000	     3					MOV 	EAX, Black
 00007EB6  E8 00000000 E     3					CALL	SetTextColor
 00007EBB  58		     3				POP 	EAX
 00007EBC  B9 0000003C	     3			MOV 	ECX,	60
 00007EC1  BB 0000003C	     3			MOV 	EBX,	SIZEOF Dialog_Example_4
 00007EC6  D1 EB	     3			SHR		EBX,	1
 00007EC8  2B CB	     3			SUB 	ECX,	EBX
 00007ECA  89 0D 00000CA0 R  3			MOV 	SetterBuffer,	ECX
 00007ED0  50		     4			PUSH EAX
 00007ED1  51		     4			PUSH ECX
 00007ED2  56		     4			PUSH ESI
 00007ED3  8B C2	     4				MOV 	EAX,	EDX
 00007ED5  8A 15 00000CA0 R  4				MOV  	 DL, BYTE PTR SetterBuffer
 00007EDB  B6 17	     4				MOV  	 DH, BYTE PTR 23 
 00007EDD  E8 00000000 E     4				CALL 	Gotoxy
 00007EE2  8B D0	     4				MOV 	EDX,	EAX
 00007EE4  BA 00000E30 R     4				MOV EDX, OFFSET Dialog_Example_4
 00007EE9  E8 00000000 E     4				CALL WriteString
 00007EEE  58		     4			POP EAX
 00007EEF  59		     4			POP ECX
 00007EF0  5E		     4			POP ESI
 00007EFA  50		     3				PUSH 	EAX
 00007EFB  B8 00000007	     3					MOV 	EAX, 00000111b
 00007F00  E8 00000000 E     3					CALL	SetTextColor
 00007F05  58		     3				POP 	EAX
 00007F06  8A 15 00000002 R  3			MOV  	dl, CurrentPointX
 00007F0C  8A 35 00000003 R  3			MOV  	dh, CurrentPointY
 00007F12  88 15 00000000 R  3			MOV		LastPointX,	dl
 00007F18  88 35 00000001 R  3			MOV 	LastPointY,	dh
 00007F1E  B2 00	     3			MOV  	dl, BYTE PTR 0
 00007F20  B6 00	     3			MOV  	dh, BYTE PTR 0
 00007F22  88 15 00000002 R  3			MOV 	CurrentPointX,	dl
 00007F28  88 35 00000003 R  3			MOV 	CurrentPointY,	dh
 00007F2E  E8 00000000 E     3			CALL 	Gotoxy  
 00007F33  61		     2			POPAD
 00007F34  60		     2			PUSHAD
 00007F35  B9 0000003C	     3			MOV 	ECX,	60
 00007F3A  BB 00000039	     3			MOV 	EBX,	SIZEOF Dialog_Example_5
 00007F3F  D1 EB	     3			SHR		EBX,	1
 00007F41  2B CB	     3			SUB 	ECX,	EBX
 00007F43  89 0D 00000CA0 R  3			MOV 	SetterBuffer,	ECX
 00007F49  50		     4			PUSH EAX
 00007F4A  51		     4			PUSH ECX
 00007F4B  56		     4			PUSH ESI
 00007F4C  8B C2	     4				MOV 	EAX,	EDX
 00007F4E  8A 15 00000CA0 R  4				MOV  	 DL, BYTE PTR SetterBuffer
 00007F54  B6 17	     4				MOV  	 DH, BYTE PTR 23 
 00007F56  E8 00000000 E     4				CALL 	Gotoxy
 00007F5B  8B D0	     4				MOV 	EDX,	EAX
 00007F5D  BA 00000E6C R     4				MOV EDX, OFFSET Dialog_Example_5
 00007F62  E8 00000000 E     4				CALL WriteString
 00007F67  58		     4			POP EAX
 00007F68  59		     4			POP ECX
 00007F69  5E		     4			POP ESI
 00007F6A  50		     3			PUSH EAX
 00007F6B  E8 00000000 E     3				CALL ReadChar
 00007F70  58		     3			POP  EAX
 00007F7A  50		     3				PUSH 	EAX
 00007F7B  B8 00000000	     3					MOV 	EAX, Black
 00007F80  E8 00000000 E     3					CALL	SetTextColor
 00007F85  58		     3				POP 	EAX
 00007F86  B9 0000003C	     3			MOV 	ECX,	60
 00007F8B  BB 00000039	     3			MOV 	EBX,	SIZEOF Dialog_Example_5
 00007F90  D1 EB	     3			SHR		EBX,	1
 00007F92  2B CB	     3			SUB 	ECX,	EBX
 00007F94  89 0D 00000CA0 R  3			MOV 	SetterBuffer,	ECX
 00007F9A  50		     4			PUSH EAX
 00007F9B  51		     4			PUSH ECX
 00007F9C  56		     4			PUSH ESI
 00007F9D  8B C2	     4				MOV 	EAX,	EDX
 00007F9F  8A 15 00000CA0 R  4				MOV  	 DL, BYTE PTR SetterBuffer
 00007FA5  B6 17	     4				MOV  	 DH, BYTE PTR 23 
 00007FA7  E8 00000000 E     4				CALL 	Gotoxy
 00007FAC  8B D0	     4				MOV 	EDX,	EAX
 00007FAE  BA 00000E6C R     4				MOV EDX, OFFSET Dialog_Example_5
 00007FB3  E8 00000000 E     4				CALL WriteString
 00007FB8  58		     4			POP EAX
 00007FB9  59		     4			POP ECX
 00007FBA  5E		     4			POP ESI
 00007FC4  50		     3				PUSH 	EAX
 00007FC5  B8 00000007	     3					MOV 	EAX, 00000111b
 00007FCA  E8 00000000 E     3					CALL	SetTextColor
 00007FCF  58		     3				POP 	EAX
 00007FD0  8A 15 00000002 R  3			MOV  	dl, CurrentPointX
 00007FD6  8A 35 00000003 R  3			MOV  	dh, CurrentPointY
 00007FDC  88 15 00000000 R  3			MOV		LastPointX,	dl
 00007FE2  88 35 00000001 R  3			MOV 	LastPointY,	dh
 00007FE8  B2 00	     3			MOV  	dl, BYTE PTR 0
 00007FEA  B6 00	     3			MOV  	dh, BYTE PTR 0
 00007FEC  88 15 00000002 R  3			MOV 	CurrentPointX,	dl
 00007FF2  88 35 00000003 R  3			MOV 	CurrentPointY,	dh
 00007FF8  E8 00000000 E     3			CALL 	Gotoxy  
 00007FFD  61		     2			POPAD


 00007FFE				DR:
						;AnyKeyToContinue
						Draw
 00007FFE  60		     3			PUSHAD
 00007FFF  B8 00000000	     3				MOV EAX, 0
 00008008  50		     4			PUSH EAX
 00008009  B8 00000005	     4				MOV EAX, 5
 0000800E  A3 00000DD1 R     4				MOV HPLineX, 	EAX
 00008013  58		     4			POP EAX
 00008014  50		     4			PUSH EAX
 00008015  B8 0000000A	     4				MOV EAX, 10
 0000801A  A3 00000DD5 R     4				MOV HPLineY, 	EAX
 0000801F  58		     4			POP EAX
 00008020  8B 1D 00000DC5 R  3					MOV EBX, UserCastleHP
 00008028  50		     4			PUSH EAX
 00008029  B8 00000069	     4				MOV EAX, 105
 0000802E  A3 00000DD1 R     4				MOV HPLineX, 	EAX
 00008033  58		     4			POP EAX
 00008034  50		     4			PUSH EAX
 00008035  B8 0000000A	     4				MOV EAX, 10
 0000803A  A3 00000DD5 R     4				MOV HPLineY, 	EAX
 0000803F  58		     4			POP EAX
 00008040  8B 1D 00000DC9 R  3					MOV EBX, CompCastleHP
 00008052  60		     4			PUSHAD
 00008053  8A 15 00000002 R  5			MOV  	dl, CurrentPointX
 00008059  8A 35 00000003 R  5			MOV  	dh, CurrentPointY
 0000805F  88 15 00000000 R  5			MOV		LastPointX,	dl
 00008065  88 35 00000001 R  5			MOV 	LastPointY,	dh
 0000806B  8A 15 00000DD1 R  5			MOV  	dl, BYTE PTR HPLineX
 00008071  8A 35 00000DD5 R  5			MOV  	dh, BYTE PTR HPLineY
 00008077  88 15 00000002 R  5			MOV 	CurrentPointX,	dl
 0000807D  88 35 00000003 R  5			MOV 	CurrentPointY,	dh
 00008083  E8 00000000 E     5			CALL 	Gotoxy  
 00008088  50		     5			PUSH 	EAX
 00008089  8B C3	     5				MOV 	EAX,	EBX
 0000808B  E8 00000000 E     5				CALL 	WriteDec
 00008090  58		     5			POP 	EAX
 00008091  50		     5			PUSH 	EAX
 00008092  B8 0000005B	     5				MOV 	EAX,	'['
 00008097  E8 00000000 E     5				CALL 	WriteChar
 0000809C  58		     5			POP 	EAX
 0000809D  B9 00000004	     4				MOV ECX, 4
 000080B0  50		     5				PUSH 	EAX
 000080B1  B8 00000004	     5					MOV 	EAX, Red
 000080B6  E8 00000000 E     5					CALL	SetTextColor
 000080BB  58		     5				POP 	EAX
 000080BC  50		     5			PUSH 	EAX
 000080BD  B8 00000049	     5				MOV 	EAX,	'I'
 000080C2  E8 00000000 E     5				CALL 	WriteChar
 000080C7  58		     5			POP 	EAX
 000080C8  50		     5			PUSH 	EAX
 000080C9  B8 00000020	     5				MOV 	EAX,	' '
 000080CE  E8 00000000 E     5				CALL 	WriteChar
 000080D3  58		     5			POP 	EAX
 000080D4  50		     5			PUSH 	EAX
 000080D5  B8 00000020	     5				MOV 	EAX,	' '
 000080DA  E8 00000000 E     5				CALL 	WriteChar
 000080DF  58		     5			POP 	EAX
 000080E0  50		     5			PUSH 	EAX
 000080E1  B8 00000020	     5				MOV 	EAX,	' '
 000080E6  E8 00000000 E     5				CALL 	WriteChar
 000080EB  58		     5			POP 	EAX
 000080FF  50		     5				PUSH 	EAX
 00008100  B8 0000000C	     5					MOV 	EAX, LightRed
 00008105  E8 00000000 E     5					CALL	SetTextColor
 0000810A  58		     5				POP 	EAX
 0000810B  50		     5			PUSH 	EAX
 0000810C  B8 00000049	     5				MOV 	EAX,	'I'
 00008111  E8 00000000 E     5				CALL 	WriteChar
 00008116  58		     5			POP 	EAX
 00008117  50		     5			PUSH 	EAX
 00008118  B8 00000049	     5				MOV 	EAX,	'I'
 0000811D  E8 00000000 E     5				CALL 	WriteChar
 00008122  58		     5			POP 	EAX
 00008123  50		     5			PUSH 	EAX
 00008124  B8 00000020	     5				MOV 	EAX,	' '
 00008129  E8 00000000 E     5				CALL 	WriteChar
 0000812E  58		     5			POP 	EAX
 0000812F  50		     5			PUSH 	EAX
 00008130  B8 00000020	     5				MOV 	EAX,	' '
 00008135  E8 00000000 E     5				CALL 	WriteChar
 0000813A  58		     5			POP 	EAX
 0000814E  50		     5				PUSH 	EAX
 0000814F  B8 00000002	     5					MOV 	EAX, Green
 00008154  E8 00000000 E     5					CALL	SetTextColor
 00008159  58		     5				POP 	EAX
 0000815A  50		     5			PUSH 	EAX
 0000815B  B8 00000049	     5				MOV 	EAX,	'I'
 00008160  E8 00000000 E     5				CALL 	WriteChar
 00008165  58		     5			POP 	EAX
 00008166  50		     5			PUSH 	EAX
 00008167  B8 00000049	     5				MOV 	EAX,	'I'
 0000816C  E8 00000000 E     5				CALL 	WriteChar
 00008171  58		     5			POP 	EAX
 00008172  50		     5			PUSH 	EAX
 00008173  B8 00000049	     5				MOV 	EAX,	'I'
 00008178  E8 00000000 E     5				CALL 	WriteChar
 0000817D  58		     5			POP 	EAX
 0000817E  50		     5			PUSH 	EAX
 0000817F  B8 00000020	     5				MOV 	EAX,	' '
 00008184  E8 00000000 E     5				CALL 	WriteChar
 00008189  58		     5			POP 	EAX
 0000819A  50		     5				PUSH 	EAX
 0000819B  B8 0000000A	     5					MOV 	EAX, LightGreen
 000081A0  E8 00000000 E     5					CALL	SetTextColor
 000081A5  58		     5				POP 	EAX
 000081A6  50		     5			PUSH 	EAX
 000081A7  B8 00000049	     5				MOV 	EAX,	'I'
 000081AC  E8 00000000 E     5				CALL 	WriteChar
 000081B1  58		     5			POP 	EAX
 000081B2  50		     5			PUSH 	EAX
 000081B3  B8 00000049	     5				MOV 	EAX,	'I'
 000081B8  E8 00000000 E     5				CALL 	WriteChar
 000081BD  58		     5			POP 	EAX
 000081BE  50		     5			PUSH 	EAX
 000081BF  B8 00000049	     5				MOV 	EAX,	'I'
 000081C4  E8 00000000 E     5				CALL 	WriteChar
 000081C9  58		     5			POP 	EAX
 000081CA  50		     5			PUSH 	EAX
 000081CB  B8 00000049	     5				MOV 	EAX,	'I'
 000081D0  E8 00000000 E     5				CALL 	WriteChar
 000081D5  58		     5			POP 	EAX
 000081DF  50		     5				PUSH 	EAX
 000081E0  B8 00000007	     5					MOV 	EAX, 00000111b
 000081E5  E8 00000000 E     5					CALL	SetTextColor
 000081EA  58		     5				POP 	EAX
 000081EB  50		     5			PUSH 	EAX
 000081EC  B8 0000005D	     5				MOV 	EAX,	']'
 000081F1  E8 00000000 E     5				CALL 	WriteChar
 000081F6  58		     5			POP 	EAX
 000081F7  8A 15 00000000 R  5			MOV  	dl, LastPointX
 000081FD  8A 35 00000001 R  5			MOV  	dh, LastPointY
 00008203  88 15 00000002 R  5			MOV 	CurrentPointX,	dl
 00008209  88 35 00000003 R  5			MOV 	CurrentPointY,	dh
 0000820F  E8 00000000 E     5			CALL 	Gotoxy 
 00008214  61		     4			POPAD
 00008226  60		     4			PUSHAD
 00008227  8A 15 00000002 R  5			MOV  	dl, CurrentPointX
 0000822D  8A 35 00000003 R  5			MOV  	dh, CurrentPointY
 00008233  88 15 00000000 R  5			MOV		LastPointX,	dl
 00008239  88 35 00000001 R  5			MOV 	LastPointY,	dh
 0000823F  8A 15 00000DD1 R  5			MOV  	dl, BYTE PTR HPLineX
 00008245  8A 35 00000DD5 R  5			MOV  	dh, BYTE PTR HPLineY
 0000824B  88 15 00000002 R  5			MOV 	CurrentPointX,	dl
 00008251  88 35 00000003 R  5			MOV 	CurrentPointY,	dh
 00008257  E8 00000000 E     5			CALL 	Gotoxy  
 0000825C  50		     5			PUSH 	EAX
 0000825D  8B C3	     5				MOV 	EAX,	EBX
 0000825F  E8 00000000 E     5				CALL 	WriteDec
 00008264  58		     5			POP 	EAX
 00008265  50		     5			PUSH 	EAX
 00008266  B8 0000005B	     5				MOV 	EAX,	'['
 0000826B  E8 00000000 E     5				CALL 	WriteChar
 00008270  58		     5			POP 	EAX
 00008271  B9 00000003	     4				MOV ECX, 3
 00008284  50		     5				PUSH 	EAX
 00008285  B8 00000004	     5					MOV 	EAX, Red
 0000828A  E8 00000000 E     5					CALL	SetTextColor
 0000828F  58		     5				POP 	EAX
 00008290  50		     5			PUSH 	EAX
 00008291  B8 00000049	     5				MOV 	EAX,	'I'
 00008296  E8 00000000 E     5				CALL 	WriteChar
 0000829B  58		     5			POP 	EAX
 0000829C  50		     5			PUSH 	EAX
 0000829D  B8 00000020	     5				MOV 	EAX,	' '
 000082A2  E8 00000000 E     5				CALL 	WriteChar
 000082A7  58		     5			POP 	EAX
 000082A8  50		     5			PUSH 	EAX
 000082A9  B8 00000020	     5				MOV 	EAX,	' '
 000082AE  E8 00000000 E     5				CALL 	WriteChar
 000082B3  58		     5			POP 	EAX
 000082B4  50		     5			PUSH 	EAX
 000082B5  B8 00000020	     5				MOV 	EAX,	' '
 000082BA  E8 00000000 E     5				CALL 	WriteChar
 000082BF  58		     5			POP 	EAX
 000082D3  50		     5				PUSH 	EAX
 000082D4  B8 0000000C	     5					MOV 	EAX, LightRed
 000082D9  E8 00000000 E     5					CALL	SetTextColor
 000082DE  58		     5				POP 	EAX
 000082DF  50		     5			PUSH 	EAX
 000082E0  B8 00000049	     5				MOV 	EAX,	'I'
 000082E5  E8 00000000 E     5				CALL 	WriteChar
 000082EA  58		     5			POP 	EAX
 000082EB  50		     5			PUSH 	EAX
 000082EC  B8 00000049	     5				MOV 	EAX,	'I'
 000082F1  E8 00000000 E     5				CALL 	WriteChar
 000082F6  58		     5			POP 	EAX
 000082F7  50		     5			PUSH 	EAX
 000082F8  B8 00000020	     5				MOV 	EAX,	' '
 000082FD  E8 00000000 E     5				CALL 	WriteChar
 00008302  58		     5			POP 	EAX
 00008303  50		     5			PUSH 	EAX
 00008304  B8 00000020	     5				MOV 	EAX,	' '
 00008309  E8 00000000 E     5				CALL 	WriteChar
 0000830E  58		     5			POP 	EAX
 00008322  50		     5				PUSH 	EAX
 00008323  B8 00000002	     5					MOV 	EAX, Green
 00008328  E8 00000000 E     5					CALL	SetTextColor
 0000832D  58		     5				POP 	EAX
 0000832E  50		     5			PUSH 	EAX
 0000832F  B8 00000049	     5				MOV 	EAX,	'I'
 00008334  E8 00000000 E     5				CALL 	WriteChar
 00008339  58		     5			POP 	EAX
 0000833A  50		     5			PUSH 	EAX
 0000833B  B8 00000049	     5				MOV 	EAX,	'I'
 00008340  E8 00000000 E     5				CALL 	WriteChar
 00008345  58		     5			POP 	EAX
 00008346  50		     5			PUSH 	EAX
 00008347  B8 00000049	     5				MOV 	EAX,	'I'
 0000834C  E8 00000000 E     5				CALL 	WriteChar
 00008351  58		     5			POP 	EAX
 00008352  50		     5			PUSH 	EAX
 00008353  B8 00000020	     5				MOV 	EAX,	' '
 00008358  E8 00000000 E     5				CALL 	WriteChar
 0000835D  58		     5			POP 	EAX
 0000836E  50		     5				PUSH 	EAX
 0000836F  B8 0000000A	     5					MOV 	EAX, LightGreen
 00008374  E8 00000000 E     5					CALL	SetTextColor
 00008379  58		     5				POP 	EAX
 0000837A  50		     5			PUSH 	EAX
 0000837B  B8 00000049	     5				MOV 	EAX,	'I'
 00008380  E8 00000000 E     5				CALL 	WriteChar
 00008385  58		     5			POP 	EAX
 00008386  50		     5			PUSH 	EAX
 00008387  B8 00000049	     5				MOV 	EAX,	'I'
 0000838C  E8 00000000 E     5				CALL 	WriteChar
 00008391  58		     5			POP 	EAX
 00008392  50		     5			PUSH 	EAX
 00008393  B8 00000049	     5				MOV 	EAX,	'I'
 00008398  E8 00000000 E     5				CALL 	WriteChar
 0000839D  58		     5			POP 	EAX
 0000839E  50		     5			PUSH 	EAX
 0000839F  B8 00000049	     5				MOV 	EAX,	'I'
 000083A4  E8 00000000 E     5				CALL 	WriteChar
 000083A9  58		     5			POP 	EAX
 000083B3  50		     5				PUSH 	EAX
 000083B4  B8 00000007	     5					MOV 	EAX, 00000111b
 000083B9  E8 00000000 E     5					CALL	SetTextColor
 000083BE  58		     5				POP 	EAX
 000083BF  50		     5			PUSH 	EAX
 000083C0  B8 0000005D	     5				MOV 	EAX,	']'
 000083C5  E8 00000000 E     5				CALL 	WriteChar
 000083CA  58		     5			POP 	EAX
 000083CB  8A 15 00000000 R  5			MOV  	dl, LastPointX
 000083D1  8A 35 00000001 R  5			MOV  	dh, LastPointY
 000083D7  88 15 00000002 R  5			MOV 	CurrentPointX,	dl
 000083DD  88 35 00000003 R  5			MOV 	CurrentPointY,	dh
 000083E3  E8 00000000 E     5			CALL 	Gotoxy 
 000083E8  61		     4			POPAD
 000083FA  60		     4			PUSHAD
 000083FB  8A 15 00000002 R  5			MOV  	dl, CurrentPointX
 00008401  8A 35 00000003 R  5			MOV  	dh, CurrentPointY
 00008407  88 15 00000000 R  5			MOV		LastPointX,	dl
 0000840D  88 35 00000001 R  5			MOV 	LastPointY,	dh
 00008413  8A 15 00000DD1 R  5			MOV  	dl, BYTE PTR HPLineX
 00008419  8A 35 00000DD5 R  5			MOV  	dh, BYTE PTR HPLineY
 0000841F  88 15 00000002 R  5			MOV 	CurrentPointX,	dl
 00008425  88 35 00000003 R  5			MOV 	CurrentPointY,	dh
 0000842B  E8 00000000 E     5			CALL 	Gotoxy  
 00008430  50		     5			PUSH 	EAX
 00008431  8B C3	     5				MOV 	EAX,	EBX
 00008433  E8 00000000 E     5				CALL 	WriteDec
 00008438  58		     5			POP 	EAX
 00008439  50		     5			PUSH 	EAX
 0000843A  B8 0000005B	     5				MOV 	EAX,	'['
 0000843F  E8 00000000 E     5				CALL 	WriteChar
 00008444  58		     5			POP 	EAX
 00008445  B9 00000002	     4				MOV ECX, 2
 00008458  50		     5				PUSH 	EAX
 00008459  B8 00000004	     5					MOV 	EAX, Red
 0000845E  E8 00000000 E     5					CALL	SetTextColor
 00008463  58		     5				POP 	EAX
 00008464  50		     5			PUSH 	EAX
 00008465  B8 00000049	     5				MOV 	EAX,	'I'
 0000846A  E8 00000000 E     5				CALL 	WriteChar
 0000846F  58		     5			POP 	EAX
 00008470  50		     5			PUSH 	EAX
 00008471  B8 00000020	     5				MOV 	EAX,	' '
 00008476  E8 00000000 E     5				CALL 	WriteChar
 0000847B  58		     5			POP 	EAX
 0000847C  50		     5			PUSH 	EAX
 0000847D  B8 00000020	     5				MOV 	EAX,	' '
 00008482  E8 00000000 E     5				CALL 	WriteChar
 00008487  58		     5			POP 	EAX
 00008488  50		     5			PUSH 	EAX
 00008489  B8 00000020	     5				MOV 	EAX,	' '
 0000848E  E8 00000000 E     5				CALL 	WriteChar
 00008493  58		     5			POP 	EAX
 000084A7  50		     5				PUSH 	EAX
 000084A8  B8 0000000C	     5					MOV 	EAX, LightRed
 000084AD  E8 00000000 E     5					CALL	SetTextColor
 000084B2  58		     5				POP 	EAX
 000084B3  50		     5			PUSH 	EAX
 000084B4  B8 00000049	     5				MOV 	EAX,	'I'
 000084B9  E8 00000000 E     5				CALL 	WriteChar
 000084BE  58		     5			POP 	EAX
 000084BF  50		     5			PUSH 	EAX
 000084C0  B8 00000049	     5				MOV 	EAX,	'I'
 000084C5  E8 00000000 E     5				CALL 	WriteChar
 000084CA  58		     5			POP 	EAX
 000084CB  50		     5			PUSH 	EAX
 000084CC  B8 00000020	     5				MOV 	EAX,	' '
 000084D1  E8 00000000 E     5				CALL 	WriteChar
 000084D6  58		     5			POP 	EAX
 000084D7  50		     5			PUSH 	EAX
 000084D8  B8 00000020	     5				MOV 	EAX,	' '
 000084DD  E8 00000000 E     5				CALL 	WriteChar
 000084E2  58		     5			POP 	EAX
 000084F6  50		     5				PUSH 	EAX
 000084F7  B8 00000002	     5					MOV 	EAX, Green
 000084FC  E8 00000000 E     5					CALL	SetTextColor
 00008501  58		     5				POP 	EAX
 00008502  50		     5			PUSH 	EAX
 00008503  B8 00000049	     5				MOV 	EAX,	'I'
 00008508  E8 00000000 E     5				CALL 	WriteChar
 0000850D  58		     5			POP 	EAX
 0000850E  50		     5			PUSH 	EAX
 0000850F  B8 00000049	     5				MOV 	EAX,	'I'
 00008514  E8 00000000 E     5				CALL 	WriteChar
 00008519  58		     5			POP 	EAX
 0000851A  50		     5			PUSH 	EAX
 0000851B  B8 00000049	     5				MOV 	EAX,	'I'
 00008520  E8 00000000 E     5				CALL 	WriteChar
 00008525  58		     5			POP 	EAX
 00008526  50		     5			PUSH 	EAX
 00008527  B8 00000020	     5				MOV 	EAX,	' '
 0000852C  E8 00000000 E     5				CALL 	WriteChar
 00008531  58		     5			POP 	EAX
 00008542  50		     5				PUSH 	EAX
 00008543  B8 0000000A	     5					MOV 	EAX, LightGreen
 00008548  E8 00000000 E     5					CALL	SetTextColor
 0000854D  58		     5				POP 	EAX
 0000854E  50		     5			PUSH 	EAX
 0000854F  B8 00000049	     5				MOV 	EAX,	'I'
 00008554  E8 00000000 E     5				CALL 	WriteChar
 00008559  58		     5			POP 	EAX
 0000855A  50		     5			PUSH 	EAX
 0000855B  B8 00000049	     5				MOV 	EAX,	'I'
 00008560  E8 00000000 E     5				CALL 	WriteChar
 00008565  58		     5			POP 	EAX
 00008566  50		     5			PUSH 	EAX
 00008567  B8 00000049	     5				MOV 	EAX,	'I'
 0000856C  E8 00000000 E     5				CALL 	WriteChar
 00008571  58		     5			POP 	EAX
 00008572  50		     5			PUSH 	EAX
 00008573  B8 00000049	     5				MOV 	EAX,	'I'
 00008578  E8 00000000 E     5				CALL 	WriteChar
 0000857D  58		     5			POP 	EAX
 00008587  50		     5				PUSH 	EAX
 00008588  B8 00000007	     5					MOV 	EAX, 00000111b
 0000858D  E8 00000000 E     5					CALL	SetTextColor
 00008592  58		     5				POP 	EAX
 00008593  50		     5			PUSH 	EAX
 00008594  B8 0000005D	     5				MOV 	EAX,	']'
 00008599  E8 00000000 E     5				CALL 	WriteChar
 0000859E  58		     5			POP 	EAX
 0000859F  8A 15 00000000 R  5			MOV  	dl, LastPointX
 000085A5  8A 35 00000001 R  5			MOV  	dh, LastPointY
 000085AB  88 15 00000002 R  5			MOV 	CurrentPointX,	dl
 000085B1  88 35 00000003 R  5			MOV 	CurrentPointY,	dh
 000085B7  E8 00000000 E     5			CALL 	Gotoxy 
 000085BC  61		     4			POPAD
 000085C2  60		     4			PUSHAD
 000085C3  8A 15 00000002 R  5			MOV  	dl, CurrentPointX
 000085C9  8A 35 00000003 R  5			MOV  	dh, CurrentPointY
 000085CF  88 15 00000000 R  5			MOV		LastPointX,	dl
 000085D5  88 35 00000001 R  5			MOV 	LastPointY,	dh
 000085DB  8A 15 00000DD1 R  5			MOV  	dl, BYTE PTR HPLineX
 000085E1  8A 35 00000DD5 R  5			MOV  	dh, BYTE PTR HPLineY
 000085E7  88 15 00000002 R  5			MOV 	CurrentPointX,	dl
 000085ED  88 35 00000003 R  5			MOV 	CurrentPointY,	dh
 000085F3  E8 00000000 E     5			CALL 	Gotoxy  
 000085F8  50		     5			PUSH 	EAX
 000085F9  8B C3	     5				MOV 	EAX,	EBX
 000085FB  E8 00000000 E     5				CALL 	WriteDec
 00008600  58		     5			POP 	EAX
 00008601  50		     5			PUSH 	EAX
 00008602  B8 0000005B	     5				MOV 	EAX,	'['
 00008607  E8 00000000 E     5				CALL 	WriteChar
 0000860C  58		     5			POP 	EAX
 0000860D  B9 00000001	     4				MOV ECX, 1
 00008620  50		     5				PUSH 	EAX
 00008621  B8 00000004	     5					MOV 	EAX, Red
 00008626  E8 00000000 E     5					CALL	SetTextColor
 0000862B  58		     5				POP 	EAX
 0000862C  50		     5			PUSH 	EAX
 0000862D  B8 00000049	     5				MOV 	EAX,	'I'
 00008632  E8 00000000 E     5				CALL 	WriteChar
 00008637  58		     5			POP 	EAX
 00008638  50		     5			PUSH 	EAX
 00008639  B8 00000020	     5				MOV 	EAX,	' '
 0000863E  E8 00000000 E     5				CALL 	WriteChar
 00008643  58		     5			POP 	EAX
 00008644  50		     5			PUSH 	EAX
 00008645  B8 00000020	     5				MOV 	EAX,	' '
 0000864A  E8 00000000 E     5				CALL 	WriteChar
 0000864F  58		     5			POP 	EAX
 00008650  50		     5			PUSH 	EAX
 00008651  B8 00000020	     5				MOV 	EAX,	' '
 00008656  E8 00000000 E     5				CALL 	WriteChar
 0000865B  58		     5			POP 	EAX
 0000866F  50		     5				PUSH 	EAX
 00008670  B8 0000000C	     5					MOV 	EAX, LightRed
 00008675  E8 00000000 E     5					CALL	SetTextColor
 0000867A  58		     5				POP 	EAX
 0000867B  50		     5			PUSH 	EAX
 0000867C  B8 00000049	     5				MOV 	EAX,	'I'
 00008681  E8 00000000 E     5				CALL 	WriteChar
 00008686  58		     5			POP 	EAX
 00008687  50		     5			PUSH 	EAX
 00008688  B8 00000049	     5				MOV 	EAX,	'I'
 0000868D  E8 00000000 E     5				CALL 	WriteChar
 00008692  58		     5			POP 	EAX
 00008693  50		     5			PUSH 	EAX
 00008694  B8 00000020	     5				MOV 	EAX,	' '
 00008699  E8 00000000 E     5				CALL 	WriteChar
 0000869E  58		     5			POP 	EAX
 0000869F  50		     5			PUSH 	EAX
 000086A0  B8 00000020	     5				MOV 	EAX,	' '
 000086A5  E8 00000000 E     5				CALL 	WriteChar
 000086AA  58		     5			POP 	EAX
 000086BE  50		     5				PUSH 	EAX
 000086BF  B8 00000002	     5					MOV 	EAX, Green
 000086C4  E8 00000000 E     5					CALL	SetTextColor
 000086C9  58		     5				POP 	EAX
 000086CA  50		     5			PUSH 	EAX
 000086CB  B8 00000049	     5				MOV 	EAX,	'I'
 000086D0  E8 00000000 E     5				CALL 	WriteChar
 000086D5  58		     5			POP 	EAX
 000086D6  50		     5			PUSH 	EAX
 000086D7  B8 00000049	     5				MOV 	EAX,	'I'
 000086DC  E8 00000000 E     5				CALL 	WriteChar
 000086E1  58		     5			POP 	EAX
 000086E2  50		     5			PUSH 	EAX
 000086E3  B8 00000049	     5				MOV 	EAX,	'I'
 000086E8  E8 00000000 E     5				CALL 	WriteChar
 000086ED  58		     5			POP 	EAX
 000086EE  50		     5			PUSH 	EAX
 000086EF  B8 00000020	     5				MOV 	EAX,	' '
 000086F4  E8 00000000 E     5				CALL 	WriteChar
 000086F9  58		     5			POP 	EAX
 0000870A  50		     5				PUSH 	EAX
 0000870B  B8 0000000A	     5					MOV 	EAX, LightGreen
 00008710  E8 00000000 E     5					CALL	SetTextColor
 00008715  58		     5				POP 	EAX
 00008716  50		     5			PUSH 	EAX
 00008717  B8 00000049	     5				MOV 	EAX,	'I'
 0000871C  E8 00000000 E     5				CALL 	WriteChar
 00008721  58		     5			POP 	EAX
 00008722  50		     5			PUSH 	EAX
 00008723  B8 00000049	     5				MOV 	EAX,	'I'
 00008728  E8 00000000 E     5				CALL 	WriteChar
 0000872D  58		     5			POP 	EAX
 0000872E  50		     5			PUSH 	EAX
 0000872F  B8 00000049	     5				MOV 	EAX,	'I'
 00008734  E8 00000000 E     5				CALL 	WriteChar
 00008739  58		     5			POP 	EAX
 0000873A  50		     5			PUSH 	EAX
 0000873B  B8 00000049	     5				MOV 	EAX,	'I'
 00008740  E8 00000000 E     5				CALL 	WriteChar
 00008745  58		     5			POP 	EAX
 0000874F  50		     5				PUSH 	EAX
 00008750  B8 00000007	     5					MOV 	EAX, 00000111b
 00008755  E8 00000000 E     5					CALL	SetTextColor
 0000875A  58		     5				POP 	EAX
 0000875B  50		     5			PUSH 	EAX
 0000875C  B8 0000005D	     5				MOV 	EAX,	']'
 00008761  E8 00000000 E     5				CALL 	WriteChar
 00008766  58		     5			POP 	EAX
 00008767  8A 15 00000000 R  5			MOV  	dl, LastPointX
 0000876D  8A 35 00000001 R  5			MOV  	dh, LastPointY
 00008773  88 15 00000002 R  5			MOV 	CurrentPointX,	dl
 00008779  88 35 00000003 R  5			MOV 	CurrentPointY,	dh
 0000877F  E8 00000000 E     5			CALL 	Gotoxy 
 00008784  61		     4			POPAD
 00008785  61		     3			POPAD
 00008786  B8 00000000	     2			MOV EAX,	0
 0000879C  50		     3				PUSH 	EAX
 0000879D  B8 0000000E	     3					MOV 	EAX, Yellow
 000087A2  E8 00000000 E     3					CALL	SetTextColor
 000087A7  58		     3				POP 	EAX
 000087B5  8A 15 00000002 R  4			MOV  	dl, CurrentPointX
 000087BB  8A 35 00000003 R  4			MOV  	dh, CurrentPointY
 000087C1  88 15 00000000 R  4			MOV		LastPointX,	dl
 000087C7  88 35 00000001 R  4			MOV 	LastPointY,	dh
 000087CD  B2 00	     4			MOV  	dl, BYTE PTR 0
 000087CF  B6 0D	     4			MOV  	dh, BYTE PTR 13
 000087D1  88 15 00000002 R  4			MOV 	CurrentPointX,	dl
 000087D7  88 35 00000003 R  4			MOV 	CurrentPointY,	dh
 000087DD  E8 00000000 E     4			CALL 	Gotoxy  
 000087E2  52		     4				PUSH EDX
 000087E3  52		     5			PUSH EDX
 000087E4  51		     5			PUSH ECX
 000087E5  56		     5			PUSH ESI
 000087E6  BA 00000004 R     5				MOV EDX, OFFSET UserCastle_1_1
 000087EB  E8 00000000 E     5				CALL WriteString
 000087F0  59		     5			POP ECX
 000087F1  59		     5			POP ECX
 000087F2  5E		     5			POP ESI
 000087F3  5A		     4				POP  EDX
 000087F4  FE C6	     4				INC  DH
 000087F6  E8 00000000 E     4				Call GoToXY
 000087FB  52		     4				PUSH EDX
 000087FC  52		     5			PUSH EDX
 000087FD  51		     5			PUSH ECX
 000087FE  56		     5			PUSH ESI
 000087FF  BA 00000019 R     5				MOV EDX, OFFSET UserCastle_1_2
 00008804  E8 00000000 E     5				CALL WriteString
 00008809  59		     5			POP ECX
 0000880A  59		     5			POP ECX
 0000880B  5E		     5			POP ESI
 0000880C  5A		     4				POP  EDX
 0000880D  FE C6	     4				INC  DH
 0000880F  E8 00000000 E     4				Call GoToXY
 00008814  52		     4				PUSH EDX
 00008815  52		     5			PUSH EDX
 00008816  51		     5			PUSH ECX
 00008817  56		     5			PUSH ESI
 00008818  BA 00000031 R     5				MOV EDX, OFFSET UserCastle_1_3
 0000881D  E8 00000000 E     5				CALL WriteString
 00008822  59		     5			POP ECX
 00008823  59		     5			POP ECX
 00008824  5E		     5			POP ESI
 00008825  5A		     4				POP  EDX
 00008826  FE C6	     4				INC  DH
 00008828  E8 00000000 E     4				Call GoToXY
 0000882D  52		     4				PUSH EDX
 0000882E  52		     5			PUSH EDX
 0000882F  51		     5			PUSH ECX
 00008830  56		     5			PUSH ESI
 00008831  BA 00000046 R     5				MOV EDX, OFFSET UserCastle_1_4
 00008836  E8 00000000 E     5				CALL WriteString
 0000883B  59		     5			POP ECX
 0000883C  59		     5			POP ECX
 0000883D  5E		     5			POP ESI
 0000883E  5A		     4				POP  EDX
 0000883F  FE C6	     4				INC  DH
 00008841  E8 00000000 E     4				Call GoToXY
 00008846  52		     4				PUSH EDX
 00008847  52		     5			PUSH EDX
 00008848  51		     5			PUSH ECX
 00008849  56		     5			PUSH ESI
 0000884A  BA 0000005B R     5				MOV EDX, OFFSET UserCastle_1_5
 0000884F  E8 00000000 E     5				CALL WriteString
 00008854  59		     5			POP ECX
 00008855  59		     5			POP ECX
 00008856  5E		     5			POP ESI
 00008857  5A		     4				POP  EDX
 00008858  FE C6	     4				INC  DH
 0000885A  E8 00000000 E     4				Call GoToXY
 00008871  8A 15 00000002 R  4			MOV  	dl, CurrentPointX
 00008877  8A 35 00000003 R  4			MOV  	dh, CurrentPointY
 0000887D  88 15 00000000 R  4			MOV		LastPointX,	dl
 00008883  88 35 00000001 R  4			MOV 	LastPointY,	dh
 00008889  B2 00	     4			MOV  	dl, BYTE PTR 0
 0000888B  B6 0A	     4			MOV  	dh, BYTE PTR 10
 0000888D  88 15 00000002 R  4			MOV 	CurrentPointX,	dl
 00008893  88 35 00000003 R  4			MOV 	CurrentPointY,	dh
 00008899  E8 00000000 E     4			CALL 	Gotoxy  
 0000889E  52		     4				PUSH EDX
 0000889F  52		     5			PUSH EDX
 000088A0  51		     5			PUSH ECX
 000088A1  56		     5			PUSH ESI
 000088A2  BA 00000070 R     5				MOV EDX, OFFSET UserCastle_2_1
 000088A7  E8 00000000 E     5				CALL WriteString
 000088AC  59		     5			POP ECX
 000088AD  59		     5			POP ECX
 000088AE  5E		     5			POP ESI
 000088AF  5A		     4				POP  EDX
 000088B0  FE C6	     4				INC  DH
 000088B2  E8 00000000 E     4				Call GoToXY
 000088B7  52		     4				PUSH EDX
 000088B8  52		     5			PUSH EDX
 000088B9  51		     5			PUSH ECX
 000088BA  56		     5			PUSH ESI
 000088BB  BA 00000083 R     5				MOV EDX, OFFSET UserCastle_2_2
 000088C0  E8 00000000 E     5				CALL WriteString
 000088C5  59		     5			POP ECX
 000088C6  59		     5			POP ECX
 000088C7  5E		     5			POP ESI
 000088C8  5A		     4				POP  EDX
 000088C9  FE C6	     4				INC  DH
 000088CB  E8 00000000 E     4				Call GoToXY
 000088D0  52		     4				PUSH EDX
 000088D1  52		     5			PUSH EDX
 000088D2  51		     5			PUSH ECX
 000088D3  56		     5			PUSH ESI
 000088D4  BA 00000096 R     5				MOV EDX, OFFSET UserCastle_2_3
 000088D9  E8 00000000 E     5				CALL WriteString
 000088DE  59		     5			POP ECX
 000088DF  59		     5			POP ECX
 000088E0  5E		     5			POP ESI
 000088E1  5A		     4				POP  EDX
 000088E2  FE C6	     4				INC  DH
 000088E4  E8 00000000 E     4				Call GoToXY
 000088E9  52		     4				PUSH EDX
 000088EA  52		     5			PUSH EDX
 000088EB  51		     5			PUSH ECX
 000088EC  56		     5			PUSH ESI
 000088ED  BA 000000AA R     5				MOV EDX, OFFSET UserCastle_2_4
 000088F2  E8 00000000 E     5				CALL WriteString
 000088F7  59		     5			POP ECX
 000088F8  59		     5			POP ECX
 000088F9  5E		     5			POP ESI
 000088FA  5A		     4				POP  EDX
 000088FB  FE C6	     4				INC  DH
 000088FD  E8 00000000 E     4				Call GoToXY
 00008902  52		     4				PUSH EDX
 00008903  52		     5			PUSH EDX
 00008904  51		     5			PUSH ECX
 00008905  56		     5			PUSH ESI
 00008906  BA 000000C0 R     5				MOV EDX, OFFSET UserCastle_2_5
 0000890B  E8 00000000 E     5				CALL WriteString
 00008910  59		     5			POP ECX
 00008911  59		     5			POP ECX
 00008912  5E		     5			POP ESI
 00008913  5A		     4				POP  EDX
 00008914  FE C6	     4				INC  DH
 00008916  E8 00000000 E     4				Call GoToXY
 0000891B  52		     4				PUSH EDX
 0000891C  52		     5			PUSH EDX
 0000891D  51		     5			PUSH ECX
 0000891E  56		     5			PUSH ESI
 0000891F  BA 000000D8 R     5				MOV EDX, OFFSET UserCastle_2_6
 00008924  E8 00000000 E     5				CALL WriteString
 00008929  59		     5			POP ECX
 0000892A  59		     5			POP ECX
 0000892B  5E		     5			POP ESI
 0000892C  5A		     4				POP  EDX
 0000892D  FE C6	     4				INC  DH
 0000892F  E8 00000000 E     4				Call GoToXY
 00008934  52		     4				PUSH EDX
 00008935  52		     5			PUSH EDX
 00008936  51		     5			PUSH ECX
 00008937  56		     5			PUSH ESI
 00008938  BA 000000ED R     5				MOV EDX, OFFSET UserCastle_2_7
 0000893D  E8 00000000 E     5				CALL WriteString
 00008942  59		     5			POP ECX
 00008943  59		     5			POP ECX
 00008944  5E		     5			POP ESI
 00008945  5A		     4				POP  EDX
 00008946  FE C6	     4				INC  DH
 00008948  E8 00000000 E     4				Call GoToXY
 0000894D  52		     4				PUSH EDX
 0000894E  52		     5			PUSH EDX
 0000894F  51		     5			PUSH ECX
 00008950  56		     5			PUSH ESI
 00008951  BA 00000104 R     5				MOV EDX, OFFSET UserCastle_2_8
 00008956  E8 00000000 E     5				CALL WriteString
 0000895B  59		     5			POP ECX
 0000895C  59		     5			POP ECX
 0000895D  5E		     5			POP ESI
 0000895E  5A		     4				POP  EDX
 0000895F  FE C6	     4				INC  DH
 00008961  E8 00000000 E     4				Call GoToXY
 00008978  8A 15 00000002 R  4			MOV  	dl, CurrentPointX
 0000897E  8A 35 00000003 R  4			MOV  	dh, CurrentPointY
 00008984  88 15 00000000 R  4			MOV		LastPointX,	dl
 0000898A  88 35 00000001 R  4			MOV 	LastPointY,	dh
 00008990  B2 00	     4			MOV  	dl, BYTE PTR 0
 00008992  B6 09	     4			MOV  	dh, BYTE PTR 9
 00008994  88 15 00000002 R  4			MOV 	CurrentPointX,	dl
 0000899A  88 35 00000003 R  4			MOV 	CurrentPointY,	dh
 000089A0  E8 00000000 E     4			CALL 	Gotoxy  
 000089A5  52		     4				PUSH EDX
 000089A6  52		     5			PUSH EDX
 000089A7  51		     5			PUSH ECX
 000089A8  56		     5			PUSH ESI
 000089A9  BA 0000011B R     5				MOV EDX, OFFSET UserCastle_3_1
 000089AE  E8 00000000 E     5				CALL WriteString
 000089B3  59		     5			POP ECX
 000089B4  59		     5			POP ECX
 000089B5  5E		     5			POP ESI
 000089B6  5A		     4				POP  EDX
 000089B7  FE C6	     4				INC  DH
 000089B9  E8 00000000 E     4				Call GoToXY
 000089BE  52		     4				PUSH EDX
 000089BF  52		     5			PUSH EDX
 000089C0  51		     5			PUSH ECX
 000089C1  56		     5			PUSH ESI
 000089C2  BA 0000012D R     5				MOV EDX, OFFSET UserCastle_3_2
 000089C7  E8 00000000 E     5				CALL WriteString
 000089CC  59		     5			POP ECX
 000089CD  59		     5			POP ECX
 000089CE  5E		     5			POP ESI
 000089CF  5A		     4				POP  EDX
 000089D0  FE C6	     4				INC  DH
 000089D2  E8 00000000 E     4				Call GoToXY
 000089D7  52		     4				PUSH EDX
 000089D8  52		     5			PUSH EDX
 000089D9  51		     5			PUSH ECX
 000089DA  56		     5			PUSH ESI
 000089DB  BA 0000013F R     5				MOV EDX, OFFSET UserCastle_3_3
 000089E0  E8 00000000 E     5				CALL WriteString
 000089E5  59		     5			POP ECX
 000089E6  59		     5			POP ECX
 000089E7  5E		     5			POP ESI
 000089E8  5A		     4				POP  EDX
 000089E9  FE C6	     4				INC  DH
 000089EB  E8 00000000 E     4				Call GoToXY
 000089F0  52		     4				PUSH EDX
 000089F1  52		     5			PUSH EDX
 000089F2  51		     5			PUSH ECX
 000089F3  56		     5			PUSH ESI
 000089F4  BA 00000154 R     5				MOV EDX, OFFSET UserCastle_3_4
 000089F9  E8 00000000 E     5				CALL WriteString
 000089FE  59		     5			POP ECX
 000089FF  59		     5			POP ECX
 00008A00  5E		     5			POP ESI
 00008A01  5A		     4				POP  EDX
 00008A02  FE C6	     4				INC  DH
 00008A04  E8 00000000 E     4				Call GoToXY
 00008A09  52		     4				PUSH EDX
 00008A0A  52		     5			PUSH EDX
 00008A0B  51		     5			PUSH ECX
 00008A0C  56		     5			PUSH ESI
 00008A0D  BA 00000169 R     5				MOV EDX, OFFSET UserCastle_3_5
 00008A12  E8 00000000 E     5				CALL WriteString
 00008A17  59		     5			POP ECX
 00008A18  59		     5			POP ECX
 00008A19  5E		     5			POP ESI
 00008A1A  5A		     4				POP  EDX
 00008A1B  FE C6	     4				INC  DH
 00008A1D  E8 00000000 E     4				Call GoToXY
 00008A22  52		     4				PUSH EDX
 00008A23  52		     5			PUSH EDX
 00008A24  51		     5			PUSH ECX
 00008A25  56		     5			PUSH ESI
 00008A26  BA 00000180 R     5				MOV EDX, OFFSET UserCastle_3_6
 00008A2B  E8 00000000 E     5				CALL WriteString
 00008A30  59		     5			POP ECX
 00008A31  59		     5			POP ECX
 00008A32  5E		     5			POP ESI
 00008A33  5A		     4				POP  EDX
 00008A34  FE C6	     4				INC  DH
 00008A36  E8 00000000 E     4				Call GoToXY
 00008A3B  52		     4				PUSH EDX
 00008A3C  52		     5			PUSH EDX
 00008A3D  51		     5			PUSH ECX
 00008A3E  56		     5			PUSH ESI
 00008A3F  BA 00000197 R     5				MOV EDX, OFFSET UserCastle_3_7
 00008A44  E8 00000000 E     5				CALL WriteString
 00008A49  59		     5			POP ECX
 00008A4A  59		     5			POP ECX
 00008A4B  5E		     5			POP ESI
 00008A4C  5A		     4				POP  EDX
 00008A4D  FE C6	     4				INC  DH
 00008A4F  E8 00000000 E     4				Call GoToXY
 00008A54  52		     4				PUSH EDX
 00008A55  52		     5			PUSH EDX
 00008A56  51		     5			PUSH ECX
 00008A57  56		     5			PUSH ESI
 00008A58  BA 000001AF R     5				MOV EDX, OFFSET UserCastle_3_8
 00008A5D  E8 00000000 E     5				CALL WriteString
 00008A62  59		     5			POP ECX
 00008A63  59		     5			POP ECX
 00008A64  5E		     5			POP ESI
 00008A65  5A		     4				POP  EDX
 00008A66  FE C6	     4				INC  DH
 00008A68  E8 00000000 E     4				Call GoToXY
 00008A6D  52		     4				PUSH EDX
 00008A6E  52		     5			PUSH EDX
 00008A6F  51		     5			PUSH ECX
 00008A70  56		     5			PUSH ESI
 00008A71  BA 000001C7 R     5				MOV EDX, OFFSET UserCastle_3_9
 00008A76  E8 00000000 E     5				CALL WriteString
 00008A7B  59		     5			POP ECX
 00008A7C  59		     5			POP ECX
 00008A7D  5E		     5			POP ESI
 00008A7E  5A		     4				POP  EDX
 00008A7F  FE C6	     4				INC  DH
 00008A81  E8 00000000 E     4				Call GoToXY
 00008A93  50		     3				PUSH 	EAX
 00008A94  B8 00000007	     3					MOV 	EAX, 00000111b
 00008A99  E8 00000000 E     3					CALL	SetTextColor
 00008A9E  58		     3				POP 	EAX
 00008AAD  50		     3				PUSH 	EAX
 00008AAE  B8 0000000C	     3					MOV 	EAX, LightRed
 00008AB3  E8 00000000 E     3					CALL	SetTextColor
 00008AB8  58		     3				POP 	EAX
 00008AC6  8A 15 00000002 R  4			MOV  	dl, CurrentPointX
 00008ACC  8A 35 00000003 R  4			MOV  	dh, CurrentPointY
 00008AD2  88 15 00000000 R  4			MOV		LastPointX,	dl
 00008AD8  88 35 00000001 R  4			MOV 	LastPointY,	dh
 00008ADE  B2 00	     4			MOV  	dl, BYTE PTR 0
 00008AE0  B6 0C	     4			MOV  	dh, BYTE PTR 12
 00008AE2  88 15 00000002 R  4			MOV 	CurrentPointX,	dl
 00008AE8  88 35 00000003 R  4			MOV 	CurrentPointY,	dh
 00008AEE  E8 00000000 E     4			CALL 	Gotoxy  
 00008AF3  52		     4				PUSH EDX
 00008AF4  52		     5			PUSH EDX
 00008AF5  51		     5			PUSH ECX
 00008AF6  56		     5			PUSH ESI
 00008AF7  BA 000001DF R     5				MOV EDX, OFFSET CompCastle_1_1
 00008AFC  E8 00000000 E     5				CALL WriteString
 00008B01  59		     5			POP ECX
 00008B02  59		     5			POP ECX
 00008B03  5E		     5			POP ESI
 00008B04  5A		     4				POP  EDX
 00008B05  FE C6	     4				INC  DH
 00008B07  E8 00000000 E     4				Call GoToXY
 00008B0C  52		     4				PUSH EDX
 00008B0D  52		     5			PUSH EDX
 00008B0E  51		     5			PUSH ECX
 00008B0F  56		     5			PUSH ESI
 00008B10  BA 000001EF R     5				MOV EDX, OFFSET CompCastle_1_2
 00008B15  E8 00000000 E     5				CALL WriteString
 00008B1A  59		     5			POP ECX
 00008B1B  59		     5			POP ECX
 00008B1C  5E		     5			POP ESI
 00008B1D  5A		     4				POP  EDX
 00008B1E  FE C6	     4				INC  DH
 00008B20  E8 00000000 E     4				Call GoToXY
 00008B25  52		     4				PUSH EDX
 00008B26  52		     5			PUSH EDX
 00008B27  51		     5			PUSH ECX
 00008B28  56		     5			PUSH ESI
 00008B29  BA 000001FC R     5				MOV EDX, OFFSET CompCastle_1_3
 00008B2E  E8 00000000 E     5				CALL WriteString
 00008B33  59		     5			POP ECX
 00008B34  59		     5			POP ECX
 00008B35  5E		     5			POP ESI
 00008B36  5A		     4				POP  EDX
 00008B37  FE C6	     4				INC  DH
 00008B39  E8 00000000 E     4				Call GoToXY
 00008B3E  52		     4				PUSH EDX
 00008B3F  52		     5			PUSH EDX
 00008B40  51		     5			PUSH ECX
 00008B41  56		     5			PUSH ESI
 00008B42  BA 00000209 R     5				MOV EDX, OFFSET CompCastle_1_4
 00008B47  E8 00000000 E     5				CALL WriteString
 00008B4C  59		     5			POP ECX
 00008B4D  59		     5			POP ECX
 00008B4E  5E		     5			POP ESI
 00008B4F  5A		     4				POP  EDX
 00008B50  FE C6	     4				INC  DH
 00008B52  E8 00000000 E     4				Call GoToXY
 00008B57  52		     4				PUSH EDX
 00008B58  52		     5			PUSH EDX
 00008B59  51		     5			PUSH ECX
 00008B5A  56		     5			PUSH ESI
 00008B5B  BA 00000216 R     5				MOV EDX, OFFSET CompCastle_1_5
 00008B60  E8 00000000 E     5				CALL WriteString
 00008B65  59		     5			POP ECX
 00008B66  59		     5			POP ECX
 00008B67  5E		     5			POP ESI
 00008B68  5A		     4				POP  EDX
 00008B69  FE C6	     4				INC  DH
 00008B6B  E8 00000000 E     4				Call GoToXY
 00008B70  52		     4				PUSH EDX
 00008B71  52		     5			PUSH EDX
 00008B72  51		     5			PUSH ECX
 00008B73  56		     5			PUSH ESI
 00008B74  BA 00000223 R     5				MOV EDX, OFFSET CompCastle_1_6
 00008B79  E8 00000000 E     5				CALL WriteString
 00008B7E  59		     5			POP ECX
 00008B7F  59		     5			POP ECX
 00008B80  5E		     5			POP ESI
 00008B81  5A		     4				POP  EDX
 00008B82  FE C6	     4				INC  DH
 00008B84  E8 00000000 E     4				Call GoToXY
 00008B9B  8A 15 00000002 R  4			MOV  	dl, CurrentPointX
 00008BA1  8A 35 00000003 R  4			MOV  	dh, CurrentPointY
 00008BA7  88 15 00000000 R  4			MOV		LastPointX,	dl
 00008BAD  88 35 00000001 R  4			MOV 	LastPointY,	dh
 00008BB3  B2 00	     4			MOV  	dl, BYTE PTR 0
 00008BB5  B6 0A	     4			MOV  	dh, BYTE PTR 10
 00008BB7  88 15 00000002 R  4			MOV 	CurrentPointX,	dl
 00008BBD  88 35 00000003 R  4			MOV 	CurrentPointY,	dh
 00008BC3  E8 00000000 E     4			CALL 	Gotoxy  
 00008BC8  52		     4				PUSH EDX
 00008BC9  52		     5			PUSH EDX
 00008BCA  51		     5			PUSH ECX
 00008BCB  56		     5			PUSH ESI
 00008BCC  BA 00000230 R     5				MOV EDX, OFFSET CompCastle_2_1
 00008BD1  E8 00000000 E     5				CALL WriteString
 00008BD6  59		     5			POP ECX
 00008BD7  59		     5			POP ECX
 00008BD8  5E		     5			POP ESI
 00008BD9  5A		     4				POP  EDX
 00008BDA  FE C6	     4				INC  DH
 00008BDC  E8 00000000 E     4				Call GoToXY
 00008BE1  52		     4				PUSH EDX
 00008BE2  52		     5			PUSH EDX
 00008BE3  51		     5			PUSH ECX
 00008BE4  56		     5			PUSH ESI
 00008BE5  BA 0000023B R     5				MOV EDX, OFFSET CompCastle_2_2
 00008BEA  E8 00000000 E     5				CALL WriteString
 00008BEF  59		     5			POP ECX
 00008BF0  59		     5			POP ECX
 00008BF1  5E		     5			POP ESI
 00008BF2  5A		     4				POP  EDX
 00008BF3  FE C6	     4				INC  DH
 00008BF5  E8 00000000 E     4				Call GoToXY
 00008BFA  52		     4				PUSH EDX
 00008BFB  52		     5			PUSH EDX
 00008BFC  51		     5			PUSH ECX
 00008BFD  56		     5			PUSH ESI
 00008BFE  BA 00000246 R     5				MOV EDX, OFFSET CompCastle_2_3
 00008C03  E8 00000000 E     5				CALL WriteString
 00008C08  59		     5			POP ECX
 00008C09  59		     5			POP ECX
 00008C0A  5E		     5			POP ESI
 00008C0B  5A		     4				POP  EDX
 00008C0C  FE C6	     4				INC  DH
 00008C0E  E8 00000000 E     4				Call GoToXY
 00008C13  52		     4				PUSH EDX
 00008C14  52		     5			PUSH EDX
 00008C15  51		     5			PUSH ECX
 00008C16  56		     5			PUSH ESI
 00008C17  BA 00000255 R     5				MOV EDX, OFFSET CompCastle_2_4
 00008C1C  E8 00000000 E     5				CALL WriteString
 00008C21  59		     5			POP ECX
 00008C22  59		     5			POP ECX
 00008C23  5E		     5			POP ESI
 00008C24  5A		     4				POP  EDX
 00008C25  FE C6	     4				INC  DH
 00008C27  E8 00000000 E     4				Call GoToXY
 00008C2C  52		     4				PUSH EDX
 00008C2D  52		     5			PUSH EDX
 00008C2E  51		     5			PUSH ECX
 00008C2F  56		     5			PUSH ESI
 00008C30  BA 00000264 R     5				MOV EDX, OFFSET CompCastle_2_5
 00008C35  E8 00000000 E     5				CALL WriteString
 00008C3A  59		     5			POP ECX
 00008C3B  59		     5			POP ECX
 00008C3C  5E		     5			POP ESI
 00008C3D  5A		     4				POP  EDX
 00008C3E  FE C6	     4				INC  DH
 00008C40  E8 00000000 E     4				Call GoToXY
 00008C45  52		     4				PUSH EDX
 00008C46  52		     5			PUSH EDX
 00008C47  51		     5			PUSH ECX
 00008C48  56		     5			PUSH ESI
 00008C49  BA 00000275 R     5				MOV EDX, OFFSET CompCastle_2_6
 00008C4E  E8 00000000 E     5				CALL WriteString
 00008C53  59		     5			POP ECX
 00008C54  59		     5			POP ECX
 00008C55  5E		     5			POP ESI
 00008C56  5A		     4				POP  EDX
 00008C57  FE C6	     4				INC  DH
 00008C59  E8 00000000 E     4				Call GoToXY
 00008C5E  52		     4				PUSH EDX
 00008C5F  52		     5			PUSH EDX
 00008C60  51		     5			PUSH ECX
 00008C61  56		     5			PUSH ESI
 00008C62  BA 00000286 R     5				MOV EDX, OFFSET CompCastle_2_7
 00008C67  E8 00000000 E     5				CALL WriteString
 00008C6C  59		     5			POP ECX
 00008C6D  59		     5			POP ECX
 00008C6E  5E		     5			POP ESI
 00008C6F  5A		     4				POP  EDX
 00008C70  FE C6	     4				INC  DH
 00008C72  E8 00000000 E     4				Call GoToXY
 00008C77  52		     4				PUSH EDX
 00008C78  52		     5			PUSH EDX
 00008C79  51		     5			PUSH ECX
 00008C7A  56		     5			PUSH ESI
 00008C7B  BA 00000295 R     5				MOV EDX, OFFSET CompCastle_2_8
 00008C80  E8 00000000 E     5				CALL WriteString
 00008C85  59		     5			POP ECX
 00008C86  59		     5			POP ECX
 00008C87  5E		     5			POP ESI
 00008C88  5A		     4				POP  EDX
 00008C89  FE C6	     4				INC  DH
 00008C8B  E8 00000000 E     4				Call GoToXY
 00008CA2  8A 15 00000002 R  4			MOV  	dl, CurrentPointX
 00008CA8  8A 35 00000003 R  4			MOV  	dh, CurrentPointY
 00008CAE  88 15 00000000 R  4			MOV		LastPointX,	dl
 00008CB4  88 35 00000001 R  4			MOV 	LastPointY,	dh
 00008CBA  B2 00	     4			MOV  	dl, BYTE PTR 0
 00008CBC  B6 09	     4			MOV  	dh, BYTE PTR 9
 00008CBE  88 15 00000002 R  4			MOV 	CurrentPointX,	dl
 00008CC4  88 35 00000003 R  4			MOV 	CurrentPointY,	dh
 00008CCA  E8 00000000 E     4			CALL 	Gotoxy  
 00008CCF  52		     4				PUSH EDX
 00008CD0  52		     5			PUSH EDX
 00008CD1  51		     5			PUSH ECX
 00008CD2  56		     5			PUSH ESI
 00008CD3  BA 000002A4 R     5				MOV EDX, OFFSET CompCastle_3_1
 00008CD8  E8 00000000 E     5				CALL WriteString
 00008CDD  59		     5			POP ECX
 00008CDE  59		     5			POP ECX
 00008CDF  5E		     5			POP ESI
 00008CE0  5A		     4				POP  EDX
 00008CE1  FE C6	     4				INC  DH
 00008CE3  E8 00000000 E     4				Call GoToXY
 00008CE8  52		     4				PUSH EDX
 00008CE9  52		     5			PUSH EDX
 00008CEA  51		     5			PUSH ECX
 00008CEB  56		     5			PUSH ESI
 00008CEC  BA 000002B7 R     5				MOV EDX, OFFSET CompCastle_3_2
 00008CF1  E8 00000000 E     5				CALL WriteString
 00008CF6  59		     5			POP ECX
 00008CF7  59		     5			POP ECX
 00008CF8  5E		     5			POP ESI
 00008CF9  5A		     4				POP  EDX
 00008CFA  FE C6	     4				INC  DH
 00008CFC  E8 00000000 E     4				Call GoToXY
 00008D01  52		     4				PUSH EDX
 00008D02  52		     5			PUSH EDX
 00008D03  51		     5			PUSH ECX
 00008D04  56		     5			PUSH ESI
 00008D05  BA 000002CC R     5				MOV EDX, OFFSET CompCastle_3_3
 00008D0A  E8 00000000 E     5				CALL WriteString
 00008D0F  59		     5			POP ECX
 00008D10  59		     5			POP ECX
 00008D11  5E		     5			POP ESI
 00008D12  5A		     4				POP  EDX
 00008D13  FE C6	     4				INC  DH
 00008D15  E8 00000000 E     4				Call GoToXY
 00008D1A  52		     4				PUSH EDX
 00008D1B  52		     5			PUSH EDX
 00008D1C  51		     5			PUSH ECX
 00008D1D  56		     5			PUSH ESI
 00008D1E  BA 000002DD R     5				MOV EDX, OFFSET CompCastle_3_4
 00008D23  E8 00000000 E     5				CALL WriteString
 00008D28  59		     5			POP ECX
 00008D29  59		     5			POP ECX
 00008D2A  5E		     5			POP ESI
 00008D2B  5A		     4				POP  EDX
 00008D2C  FE C6	     4				INC  DH
 00008D2E  E8 00000000 E     4				Call GoToXY
 00008D33  52		     4				PUSH EDX
 00008D34  52		     5			PUSH EDX
 00008D35  51		     5			PUSH ECX
 00008D36  56		     5			PUSH ESI
 00008D37  BA 000002F3 R     5				MOV EDX, OFFSET CompCastle_3_5
 00008D3C  E8 00000000 E     5				CALL WriteString
 00008D41  59		     5			POP ECX
 00008D42  59		     5			POP ECX
 00008D43  5E		     5			POP ESI
 00008D44  5A		     4				POP  EDX
 00008D45  FE C6	     4				INC  DH
 00008D47  E8 00000000 E     4				Call GoToXY
 00008D4C  52		     4				PUSH EDX
 00008D4D  52		     5			PUSH EDX
 00008D4E  51		     5			PUSH ECX
 00008D4F  56		     5			PUSH ESI
 00008D50  BA 00000309 R     5				MOV EDX, OFFSET CompCastle_3_6
 00008D55  E8 00000000 E     5				CALL WriteString
 00008D5A  59		     5			POP ECX
 00008D5B  59		     5			POP ECX
 00008D5C  5E		     5			POP ESI
 00008D5D  5A		     4				POP  EDX
 00008D5E  FE C6	     4				INC  DH
 00008D60  E8 00000000 E     4				Call GoToXY
 00008D65  52		     4				PUSH EDX
 00008D66  52		     5			PUSH EDX
 00008D67  51		     5			PUSH ECX
 00008D68  56		     5			PUSH ESI
 00008D69  BA 0000031F R     5				MOV EDX, OFFSET CompCastle_3_7
 00008D6E  E8 00000000 E     5				CALL WriteString
 00008D73  59		     5			POP ECX
 00008D74  59		     5			POP ECX
 00008D75  5E		     5			POP ESI
 00008D76  5A		     4				POP  EDX
 00008D77  FE C6	     4				INC  DH
 00008D79  E8 00000000 E     4				Call GoToXY
 00008D7E  52		     4				PUSH EDX
 00008D7F  52		     5			PUSH EDX
 00008D80  51		     5			PUSH ECX
 00008D81  56		     5			PUSH ESI
 00008D82  BA 00000336 R     5				MOV EDX, OFFSET CompCastle_3_8
 00008D87  E8 00000000 E     5				CALL WriteString
 00008D8C  59		     5			POP ECX
 00008D8D  59		     5			POP ECX
 00008D8E  5E		     5			POP ESI
 00008D8F  5A		     4				POP  EDX
 00008D90  FE C6	     4				INC  DH
 00008D92  E8 00000000 E     4				Call GoToXY
 00008D97  52		     4				PUSH EDX
 00008D98  52		     5			PUSH EDX
 00008D99  51		     5			PUSH ECX
 00008D9A  56		     5			PUSH ESI
 00008D9B  BA 00000347 R     5				MOV EDX, OFFSET CompCastle_3_9
 00008DA0  E8 00000000 E     5				CALL WriteString
 00008DA5  59		     5			POP ECX
 00008DA6  59		     5			POP ECX
 00008DA7  5E		     5			POP ESI
 00008DA8  5A		     4				POP  EDX
 00008DA9  FE C6	     4				INC  DH
 00008DAB  E8 00000000 E     4				Call GoToXY
 00008DB9  50		     3				PUSH 	EAX
 00008DBA  B8 00000007	     3					MOV 	EAX, 00000111b
 00008DBF  E8 00000000 E     3					CALL	SetTextColor
 00008DC4  58		     3				POP 	EAX
 00008DC5  60		     3			PUSHAD
 00008DC6  B8 00000001	     3				MOV EAX, 1
 00008DCF  50		     4			PUSH EAX
 00008DD0  B8 00000005	     4				MOV EAX, 5
 00008DD5  A3 00000DD1 R     4				MOV HPLineX, 	EAX
 00008DDA  58		     4			POP EAX
 00008DDB  50		     4			PUSH EAX
 00008DDC  B8 0000000A	     4				MOV EAX, 10
 00008DE1  A3 00000DD5 R     4				MOV HPLineY, 	EAX
 00008DE6  58		     4			POP EAX
 00008DE7  8B 1D 00000DC5 R  3					MOV EBX, UserCastleHP
 00008DEF  50		     4			PUSH EAX
 00008DF0  B8 00000069	     4				MOV EAX, 105
 00008DF5  A3 00000DD1 R     4				MOV HPLineX, 	EAX
 00008DFA  58		     4			POP EAX
 00008DFB  50		     4			PUSH EAX
 00008DFC  B8 0000000A	     4				MOV EAX, 10
 00008E01  A3 00000DD5 R     4				MOV HPLineY, 	EAX
 00008E06  58		     4			POP EAX
 00008E07  8B 1D 00000DC9 R  3					MOV EBX, CompCastleHP
 00008E19  60		     4			PUSHAD
 00008E1A  8A 15 00000002 R  5			MOV  	dl, CurrentPointX
 00008E20  8A 35 00000003 R  5			MOV  	dh, CurrentPointY
 00008E26  88 15 00000000 R  5			MOV		LastPointX,	dl
 00008E2C  88 35 00000001 R  5			MOV 	LastPointY,	dh
 00008E32  8A 15 00000DD1 R  5			MOV  	dl, BYTE PTR HPLineX
 00008E38  8A 35 00000DD5 R  5			MOV  	dh, BYTE PTR HPLineY
 00008E3E  88 15 00000002 R  5			MOV 	CurrentPointX,	dl
 00008E44  88 35 00000003 R  5			MOV 	CurrentPointY,	dh
 00008E4A  E8 00000000 E     5			CALL 	Gotoxy  
 00008E4F  50		     5			PUSH 	EAX
 00008E50  8B C3	     5				MOV 	EAX,	EBX
 00008E52  E8 00000000 E     5				CALL 	WriteDec
 00008E57  58		     5			POP 	EAX
 00008E58  50		     5			PUSH 	EAX
 00008E59  B8 0000005B	     5				MOV 	EAX,	'['
 00008E5E  E8 00000000 E     5				CALL 	WriteChar
 00008E63  58		     5			POP 	EAX
 00008E64  B9 00000004	     4				MOV ECX, 4
 00008E77  50		     5				PUSH 	EAX
 00008E78  B8 00000004	     5					MOV 	EAX, Red
 00008E7D  E8 00000000 E     5					CALL	SetTextColor
 00008E82  58		     5				POP 	EAX
 00008E83  50		     5			PUSH 	EAX
 00008E84  B8 00000049	     5				MOV 	EAX,	'I'
 00008E89  E8 00000000 E     5				CALL 	WriteChar
 00008E8E  58		     5			POP 	EAX
 00008E8F  50		     5			PUSH 	EAX
 00008E90  B8 00000020	     5				MOV 	EAX,	' '
 00008E95  E8 00000000 E     5				CALL 	WriteChar
 00008E9A  58		     5			POP 	EAX
 00008E9B  50		     5			PUSH 	EAX
 00008E9C  B8 00000020	     5				MOV 	EAX,	' '
 00008EA1  E8 00000000 E     5				CALL 	WriteChar
 00008EA6  58		     5			POP 	EAX
 00008EA7  50		     5			PUSH 	EAX
 00008EA8  B8 00000020	     5				MOV 	EAX,	' '
 00008EAD  E8 00000000 E     5				CALL 	WriteChar
 00008EB2  58		     5			POP 	EAX
 00008EC6  50		     5				PUSH 	EAX
 00008EC7  B8 0000000C	     5					MOV 	EAX, LightRed
 00008ECC  E8 00000000 E     5					CALL	SetTextColor
 00008ED1  58		     5				POP 	EAX
 00008ED2  50		     5			PUSH 	EAX
 00008ED3  B8 00000049	     5				MOV 	EAX,	'I'
 00008ED8  E8 00000000 E     5				CALL 	WriteChar
 00008EDD  58		     5			POP 	EAX
 00008EDE  50		     5			PUSH 	EAX
 00008EDF  B8 00000049	     5				MOV 	EAX,	'I'
 00008EE4  E8 00000000 E     5				CALL 	WriteChar
 00008EE9  58		     5			POP 	EAX
 00008EEA  50		     5			PUSH 	EAX
 00008EEB  B8 00000020	     5				MOV 	EAX,	' '
 00008EF0  E8 00000000 E     5				CALL 	WriteChar
 00008EF5  58		     5			POP 	EAX
 00008EF6  50		     5			PUSH 	EAX
 00008EF7  B8 00000020	     5				MOV 	EAX,	' '
 00008EFC  E8 00000000 E     5				CALL 	WriteChar
 00008F01  58		     5			POP 	EAX
 00008F15  50		     5				PUSH 	EAX
 00008F16  B8 00000002	     5					MOV 	EAX, Green
 00008F1B  E8 00000000 E     5					CALL	SetTextColor
 00008F20  58		     5				POP 	EAX
 00008F21  50		     5			PUSH 	EAX
 00008F22  B8 00000049	     5				MOV 	EAX,	'I'
 00008F27  E8 00000000 E     5				CALL 	WriteChar
 00008F2C  58		     5			POP 	EAX
 00008F2D  50		     5			PUSH 	EAX
 00008F2E  B8 00000049	     5				MOV 	EAX,	'I'
 00008F33  E8 00000000 E     5				CALL 	WriteChar
 00008F38  58		     5			POP 	EAX
 00008F39  50		     5			PUSH 	EAX
 00008F3A  B8 00000049	     5				MOV 	EAX,	'I'
 00008F3F  E8 00000000 E     5				CALL 	WriteChar
 00008F44  58		     5			POP 	EAX
 00008F45  50		     5			PUSH 	EAX
 00008F46  B8 00000020	     5				MOV 	EAX,	' '
 00008F4B  E8 00000000 E     5				CALL 	WriteChar
 00008F50  58		     5			POP 	EAX
 00008F61  50		     5				PUSH 	EAX
 00008F62  B8 0000000A	     5					MOV 	EAX, LightGreen
 00008F67  E8 00000000 E     5					CALL	SetTextColor
 00008F6C  58		     5				POP 	EAX
 00008F6D  50		     5			PUSH 	EAX
 00008F6E  B8 00000049	     5				MOV 	EAX,	'I'
 00008F73  E8 00000000 E     5				CALL 	WriteChar
 00008F78  58		     5			POP 	EAX
 00008F79  50		     5			PUSH 	EAX
 00008F7A  B8 00000049	     5				MOV 	EAX,	'I'
 00008F7F  E8 00000000 E     5				CALL 	WriteChar
 00008F84  58		     5			POP 	EAX
 00008F85  50		     5			PUSH 	EAX
 00008F86  B8 00000049	     5				MOV 	EAX,	'I'
 00008F8B  E8 00000000 E     5				CALL 	WriteChar
 00008F90  58		     5			POP 	EAX
 00008F91  50		     5			PUSH 	EAX
 00008F92  B8 00000049	     5				MOV 	EAX,	'I'
 00008F97  E8 00000000 E     5				CALL 	WriteChar
 00008F9C  58		     5			POP 	EAX
 00008FA6  50		     5				PUSH 	EAX
 00008FA7  B8 00000007	     5					MOV 	EAX, 00000111b
 00008FAC  E8 00000000 E     5					CALL	SetTextColor
 00008FB1  58		     5				POP 	EAX
 00008FB2  50		     5			PUSH 	EAX
 00008FB3  B8 0000005D	     5				MOV 	EAX,	']'
 00008FB8  E8 00000000 E     5				CALL 	WriteChar
 00008FBD  58		     5			POP 	EAX
 00008FBE  8A 15 00000000 R  5			MOV  	dl, LastPointX
 00008FC4  8A 35 00000001 R  5			MOV  	dh, LastPointY
 00008FCA  88 15 00000002 R  5			MOV 	CurrentPointX,	dl
 00008FD0  88 35 00000003 R  5			MOV 	CurrentPointY,	dh
 00008FD6  E8 00000000 E     5			CALL 	Gotoxy 
 00008FDB  61		     4			POPAD
 00008FED  60		     4			PUSHAD
 00008FEE  8A 15 00000002 R  5			MOV  	dl, CurrentPointX
 00008FF4  8A 35 00000003 R  5			MOV  	dh, CurrentPointY
 00008FFA  88 15 00000000 R  5			MOV		LastPointX,	dl
 00009000  88 35 00000001 R  5			MOV 	LastPointY,	dh
 00009006  8A 15 00000DD1 R  5			MOV  	dl, BYTE PTR HPLineX
 0000900C  8A 35 00000DD5 R  5			MOV  	dh, BYTE PTR HPLineY
 00009012  88 15 00000002 R  5			MOV 	CurrentPointX,	dl
 00009018  88 35 00000003 R  5			MOV 	CurrentPointY,	dh
 0000901E  E8 00000000 E     5			CALL 	Gotoxy  
 00009023  50		     5			PUSH 	EAX
 00009024  8B C3	     5				MOV 	EAX,	EBX
 00009026  E8 00000000 E     5				CALL 	WriteDec
 0000902B  58		     5			POP 	EAX
 0000902C  50		     5			PUSH 	EAX
 0000902D  B8 0000005B	     5				MOV 	EAX,	'['
 00009032  E8 00000000 E     5				CALL 	WriteChar
 00009037  58		     5			POP 	EAX
 00009038  B9 00000003	     4				MOV ECX, 3
 0000904B  50		     5				PUSH 	EAX
 0000904C  B8 00000004	     5					MOV 	EAX, Red
 00009051  E8 00000000 E     5					CALL	SetTextColor
 00009056  58		     5				POP 	EAX
 00009057  50		     5			PUSH 	EAX
 00009058  B8 00000049	     5				MOV 	EAX,	'I'
 0000905D  E8 00000000 E     5				CALL 	WriteChar
 00009062  58		     5			POP 	EAX
 00009063  50		     5			PUSH 	EAX
 00009064  B8 00000020	     5				MOV 	EAX,	' '
 00009069  E8 00000000 E     5				CALL 	WriteChar
 0000906E  58		     5			POP 	EAX
 0000906F  50		     5			PUSH 	EAX
 00009070  B8 00000020	     5				MOV 	EAX,	' '
 00009075  E8 00000000 E     5				CALL 	WriteChar
 0000907A  58		     5			POP 	EAX
 0000907B  50		     5			PUSH 	EAX
 0000907C  B8 00000020	     5				MOV 	EAX,	' '
 00009081  E8 00000000 E     5				CALL 	WriteChar
 00009086  58		     5			POP 	EAX
 0000909A  50		     5				PUSH 	EAX
 0000909B  B8 0000000C	     5					MOV 	EAX, LightRed
 000090A0  E8 00000000 E     5					CALL	SetTextColor
 000090A5  58		     5				POP 	EAX
 000090A6  50		     5			PUSH 	EAX
 000090A7  B8 00000049	     5				MOV 	EAX,	'I'
 000090AC  E8 00000000 E     5				CALL 	WriteChar
 000090B1  58		     5			POP 	EAX
 000090B2  50		     5			PUSH 	EAX
 000090B3  B8 00000049	     5				MOV 	EAX,	'I'
 000090B8  E8 00000000 E     5				CALL 	WriteChar
 000090BD  58		     5			POP 	EAX
 000090BE  50		     5			PUSH 	EAX
 000090BF  B8 00000020	     5				MOV 	EAX,	' '
 000090C4  E8 00000000 E     5				CALL 	WriteChar
 000090C9  58		     5			POP 	EAX
 000090CA  50		     5			PUSH 	EAX
 000090CB  B8 00000020	     5				MOV 	EAX,	' '
 000090D0  E8 00000000 E     5				CALL 	WriteChar
 000090D5  58		     5			POP 	EAX
 000090E9  50		     5				PUSH 	EAX
 000090EA  B8 00000002	     5					MOV 	EAX, Green
 000090EF  E8 00000000 E     5					CALL	SetTextColor
 000090F4  58		     5				POP 	EAX
 000090F5  50		     5			PUSH 	EAX
 000090F6  B8 00000049	     5				MOV 	EAX,	'I'
 000090FB  E8 00000000 E     5				CALL 	WriteChar
 00009100  58		     5			POP 	EAX
 00009101  50		     5			PUSH 	EAX
 00009102  B8 00000049	     5				MOV 	EAX,	'I'
 00009107  E8 00000000 E     5				CALL 	WriteChar
 0000910C  58		     5			POP 	EAX
 0000910D  50		     5			PUSH 	EAX
 0000910E  B8 00000049	     5				MOV 	EAX,	'I'
 00009113  E8 00000000 E     5				CALL 	WriteChar
 00009118  58		     5			POP 	EAX
 00009119  50		     5			PUSH 	EAX
 0000911A  B8 00000020	     5				MOV 	EAX,	' '
 0000911F  E8 00000000 E     5				CALL 	WriteChar
 00009124  58		     5			POP 	EAX
 00009135  50		     5				PUSH 	EAX
 00009136  B8 0000000A	     5					MOV 	EAX, LightGreen
 0000913B  E8 00000000 E     5					CALL	SetTextColor
 00009140  58		     5				POP 	EAX
 00009141  50		     5			PUSH 	EAX
 00009142  B8 00000049	     5				MOV 	EAX,	'I'
 00009147  E8 00000000 E     5				CALL 	WriteChar
 0000914C  58		     5			POP 	EAX
 0000914D  50		     5			PUSH 	EAX
 0000914E  B8 00000049	     5				MOV 	EAX,	'I'
 00009153  E8 00000000 E     5				CALL 	WriteChar
 00009158  58		     5			POP 	EAX
 00009159  50		     5			PUSH 	EAX
 0000915A  B8 00000049	     5				MOV 	EAX,	'I'
 0000915F  E8 00000000 E     5				CALL 	WriteChar
 00009164  58		     5			POP 	EAX
 00009165  50		     5			PUSH 	EAX
 00009166  B8 00000049	     5				MOV 	EAX,	'I'
 0000916B  E8 00000000 E     5				CALL 	WriteChar
 00009170  58		     5			POP 	EAX
 0000917A  50		     5				PUSH 	EAX
 0000917B  B8 00000007	     5					MOV 	EAX, 00000111b
 00009180  E8 00000000 E     5					CALL	SetTextColor
 00009185  58		     5				POP 	EAX
 00009186  50		     5			PUSH 	EAX
 00009187  B8 0000005D	     5				MOV 	EAX,	']'
 0000918C  E8 00000000 E     5				CALL 	WriteChar
 00009191  58		     5			POP 	EAX
 00009192  8A 15 00000000 R  5			MOV  	dl, LastPointX
 00009198  8A 35 00000001 R  5			MOV  	dh, LastPointY
 0000919E  88 15 00000002 R  5			MOV 	CurrentPointX,	dl
 000091A4  88 35 00000003 R  5			MOV 	CurrentPointY,	dh
 000091AA  E8 00000000 E     5			CALL 	Gotoxy 
 000091AF  61		     4			POPAD
 000091C1  60		     4			PUSHAD
 000091C2  8A 15 00000002 R  5			MOV  	dl, CurrentPointX
 000091C8  8A 35 00000003 R  5			MOV  	dh, CurrentPointY
 000091CE  88 15 00000000 R  5			MOV		LastPointX,	dl
 000091D4  88 35 00000001 R  5			MOV 	LastPointY,	dh
 000091DA  8A 15 00000DD1 R  5			MOV  	dl, BYTE PTR HPLineX
 000091E0  8A 35 00000DD5 R  5			MOV  	dh, BYTE PTR HPLineY
 000091E6  88 15 00000002 R  5			MOV 	CurrentPointX,	dl
 000091EC  88 35 00000003 R  5			MOV 	CurrentPointY,	dh
 000091F2  E8 00000000 E     5			CALL 	Gotoxy  
 000091F7  50		     5			PUSH 	EAX
 000091F8  8B C3	     5				MOV 	EAX,	EBX
 000091FA  E8 00000000 E     5				CALL 	WriteDec
 000091FF  58		     5			POP 	EAX
 00009200  50		     5			PUSH 	EAX
 00009201  B8 0000005B	     5				MOV 	EAX,	'['
 00009206  E8 00000000 E     5				CALL 	WriteChar
 0000920B  58		     5			POP 	EAX
 0000920C  B9 00000002	     4				MOV ECX, 2
 0000921F  50		     5				PUSH 	EAX
 00009220  B8 00000004	     5					MOV 	EAX, Red
 00009225  E8 00000000 E     5					CALL	SetTextColor
 0000922A  58		     5				POP 	EAX
 0000922B  50		     5			PUSH 	EAX
 0000922C  B8 00000049	     5				MOV 	EAX,	'I'
 00009231  E8 00000000 E     5				CALL 	WriteChar
 00009236  58		     5			POP 	EAX
 00009237  50		     5			PUSH 	EAX
 00009238  B8 00000020	     5				MOV 	EAX,	' '
 0000923D  E8 00000000 E     5				CALL 	WriteChar
 00009242  58		     5			POP 	EAX
 00009243  50		     5			PUSH 	EAX
 00009244  B8 00000020	     5				MOV 	EAX,	' '
 00009249  E8 00000000 E     5				CALL 	WriteChar
 0000924E  58		     5			POP 	EAX
 0000924F  50		     5			PUSH 	EAX
 00009250  B8 00000020	     5				MOV 	EAX,	' '
 00009255  E8 00000000 E     5				CALL 	WriteChar
 0000925A  58		     5			POP 	EAX
 0000926E  50		     5				PUSH 	EAX
 0000926F  B8 0000000C	     5					MOV 	EAX, LightRed
 00009274  E8 00000000 E     5					CALL	SetTextColor
 00009279  58		     5				POP 	EAX
 0000927A  50		     5			PUSH 	EAX
 0000927B  B8 00000049	     5				MOV 	EAX,	'I'
 00009280  E8 00000000 E     5				CALL 	WriteChar
 00009285  58		     5			POP 	EAX
 00009286  50		     5			PUSH 	EAX
 00009287  B8 00000049	     5				MOV 	EAX,	'I'
 0000928C  E8 00000000 E     5				CALL 	WriteChar
 00009291  58		     5			POP 	EAX
 00009292  50		     5			PUSH 	EAX
 00009293  B8 00000020	     5				MOV 	EAX,	' '
 00009298  E8 00000000 E     5				CALL 	WriteChar
 0000929D  58		     5			POP 	EAX
 0000929E  50		     5			PUSH 	EAX
 0000929F  B8 00000020	     5				MOV 	EAX,	' '
 000092A4  E8 00000000 E     5				CALL 	WriteChar
 000092A9  58		     5			POP 	EAX
 000092BD  50		     5				PUSH 	EAX
 000092BE  B8 00000002	     5					MOV 	EAX, Green
 000092C3  E8 00000000 E     5					CALL	SetTextColor
 000092C8  58		     5				POP 	EAX
 000092C9  50		     5			PUSH 	EAX
 000092CA  B8 00000049	     5				MOV 	EAX,	'I'
 000092CF  E8 00000000 E     5				CALL 	WriteChar
 000092D4  58		     5			POP 	EAX
 000092D5  50		     5			PUSH 	EAX
 000092D6  B8 00000049	     5				MOV 	EAX,	'I'
 000092DB  E8 00000000 E     5				CALL 	WriteChar
 000092E0  58		     5			POP 	EAX
 000092E1  50		     5			PUSH 	EAX
 000092E2  B8 00000049	     5				MOV 	EAX,	'I'
 000092E7  E8 00000000 E     5				CALL 	WriteChar
 000092EC  58		     5			POP 	EAX
 000092ED  50		     5			PUSH 	EAX
 000092EE  B8 00000020	     5				MOV 	EAX,	' '
 000092F3  E8 00000000 E     5				CALL 	WriteChar
 000092F8  58		     5			POP 	EAX
 00009309  50		     5				PUSH 	EAX
 0000930A  B8 0000000A	     5					MOV 	EAX, LightGreen
 0000930F  E8 00000000 E     5					CALL	SetTextColor
 00009314  58		     5				POP 	EAX
 00009315  50		     5			PUSH 	EAX
 00009316  B8 00000049	     5				MOV 	EAX,	'I'
 0000931B  E8 00000000 E     5				CALL 	WriteChar
 00009320  58		     5			POP 	EAX
 00009321  50		     5			PUSH 	EAX
 00009322  B8 00000049	     5				MOV 	EAX,	'I'
 00009327  E8 00000000 E     5				CALL 	WriteChar
 0000932C  58		     5			POP 	EAX
 0000932D  50		     5			PUSH 	EAX
 0000932E  B8 00000049	     5				MOV 	EAX,	'I'
 00009333  E8 00000000 E     5				CALL 	WriteChar
 00009338  58		     5			POP 	EAX
 00009339  50		     5			PUSH 	EAX
 0000933A  B8 00000049	     5				MOV 	EAX,	'I'
 0000933F  E8 00000000 E     5				CALL 	WriteChar
 00009344  58		     5			POP 	EAX
 0000934E  50		     5				PUSH 	EAX
 0000934F  B8 00000007	     5					MOV 	EAX, 00000111b
 00009354  E8 00000000 E     5					CALL	SetTextColor
 00009359  58		     5				POP 	EAX
 0000935A  50		     5			PUSH 	EAX
 0000935B  B8 0000005D	     5				MOV 	EAX,	']'
 00009360  E8 00000000 E     5				CALL 	WriteChar
 00009365  58		     5			POP 	EAX
 00009366  8A 15 00000000 R  5			MOV  	dl, LastPointX
 0000936C  8A 35 00000001 R  5			MOV  	dh, LastPointY
 00009372  88 15 00000002 R  5			MOV 	CurrentPointX,	dl
 00009378  88 35 00000003 R  5			MOV 	CurrentPointY,	dh
 0000937E  E8 00000000 E     5			CALL 	Gotoxy 
 00009383  61		     4			POPAD
 00009389  60		     4			PUSHAD
 0000938A  8A 15 00000002 R  5			MOV  	dl, CurrentPointX
 00009390  8A 35 00000003 R  5			MOV  	dh, CurrentPointY
 00009396  88 15 00000000 R  5			MOV		LastPointX,	dl
 0000939C  88 35 00000001 R  5			MOV 	LastPointY,	dh
 000093A2  8A 15 00000DD1 R  5			MOV  	dl, BYTE PTR HPLineX
 000093A8  8A 35 00000DD5 R  5			MOV  	dh, BYTE PTR HPLineY
 000093AE  88 15 00000002 R  5			MOV 	CurrentPointX,	dl
 000093B4  88 35 00000003 R  5			MOV 	CurrentPointY,	dh
 000093BA  E8 00000000 E     5			CALL 	Gotoxy  
 000093BF  50		     5			PUSH 	EAX
 000093C0  8B C3	     5				MOV 	EAX,	EBX
 000093C2  E8 00000000 E     5				CALL 	WriteDec
 000093C7  58		     5			POP 	EAX
 000093C8  50		     5			PUSH 	EAX
 000093C9  B8 0000005B	     5				MOV 	EAX,	'['
 000093CE  E8 00000000 E     5				CALL 	WriteChar
 000093D3  58		     5			POP 	EAX
 000093D4  B9 00000001	     4				MOV ECX, 1
 000093E7  50		     5				PUSH 	EAX
 000093E8  B8 00000004	     5					MOV 	EAX, Red
 000093ED  E8 00000000 E     5					CALL	SetTextColor
 000093F2  58		     5				POP 	EAX
 000093F3  50		     5			PUSH 	EAX
 000093F4  B8 00000049	     5				MOV 	EAX,	'I'
 000093F9  E8 00000000 E     5				CALL 	WriteChar
 000093FE  58		     5			POP 	EAX
 000093FF  50		     5			PUSH 	EAX
 00009400  B8 00000020	     5				MOV 	EAX,	' '
 00009405  E8 00000000 E     5				CALL 	WriteChar
 0000940A  58		     5			POP 	EAX
 0000940B  50		     5			PUSH 	EAX
 0000940C  B8 00000020	     5				MOV 	EAX,	' '
 00009411  E8 00000000 E     5				CALL 	WriteChar
 00009416  58		     5			POP 	EAX
 00009417  50		     5			PUSH 	EAX
 00009418  B8 00000020	     5				MOV 	EAX,	' '
 0000941D  E8 00000000 E     5				CALL 	WriteChar
 00009422  58		     5			POP 	EAX
 00009436  50		     5				PUSH 	EAX
 00009437  B8 0000000C	     5					MOV 	EAX, LightRed
 0000943C  E8 00000000 E     5					CALL	SetTextColor
 00009441  58		     5				POP 	EAX
 00009442  50		     5			PUSH 	EAX
 00009443  B8 00000049	     5				MOV 	EAX,	'I'
 00009448  E8 00000000 E     5				CALL 	WriteChar
 0000944D  58		     5			POP 	EAX
 0000944E  50		     5			PUSH 	EAX
 0000944F  B8 00000049	     5				MOV 	EAX,	'I'
 00009454  E8 00000000 E     5				CALL 	WriteChar
 00009459  58		     5			POP 	EAX
 0000945A  50		     5			PUSH 	EAX
 0000945B  B8 00000020	     5				MOV 	EAX,	' '
 00009460  E8 00000000 E     5				CALL 	WriteChar
 00009465  58		     5			POP 	EAX
 00009466  50		     5			PUSH 	EAX
 00009467  B8 00000020	     5				MOV 	EAX,	' '
 0000946C  E8 00000000 E     5				CALL 	WriteChar
 00009471  58		     5			POP 	EAX
 00009485  50		     5				PUSH 	EAX
 00009486  B8 00000002	     5					MOV 	EAX, Green
 0000948B  E8 00000000 E     5					CALL	SetTextColor
 00009490  58		     5				POP 	EAX
 00009491  50		     5			PUSH 	EAX
 00009492  B8 00000049	     5				MOV 	EAX,	'I'
 00009497  E8 00000000 E     5				CALL 	WriteChar
 0000949C  58		     5			POP 	EAX
 0000949D  50		     5			PUSH 	EAX
 0000949E  B8 00000049	     5				MOV 	EAX,	'I'
 000094A3  E8 00000000 E     5				CALL 	WriteChar
 000094A8  58		     5			POP 	EAX
 000094A9  50		     5			PUSH 	EAX
 000094AA  B8 00000049	     5				MOV 	EAX,	'I'
 000094AF  E8 00000000 E     5				CALL 	WriteChar
 000094B4  58		     5			POP 	EAX
 000094B5  50		     5			PUSH 	EAX
 000094B6  B8 00000020	     5				MOV 	EAX,	' '
 000094BB  E8 00000000 E     5				CALL 	WriteChar
 000094C0  58		     5			POP 	EAX
 000094D1  50		     5				PUSH 	EAX
 000094D2  B8 0000000A	     5					MOV 	EAX, LightGreen
 000094D7  E8 00000000 E     5					CALL	SetTextColor
 000094DC  58		     5				POP 	EAX
 000094DD  50		     5			PUSH 	EAX
 000094DE  B8 00000049	     5				MOV 	EAX,	'I'
 000094E3  E8 00000000 E     5				CALL 	WriteChar
 000094E8  58		     5			POP 	EAX
 000094E9  50		     5			PUSH 	EAX
 000094EA  B8 00000049	     5				MOV 	EAX,	'I'
 000094EF  E8 00000000 E     5				CALL 	WriteChar
 000094F4  58		     5			POP 	EAX
 000094F5  50		     5			PUSH 	EAX
 000094F6  B8 00000049	     5				MOV 	EAX,	'I'
 000094FB  E8 00000000 E     5				CALL 	WriteChar
 00009500  58		     5			POP 	EAX
 00009501  50		     5			PUSH 	EAX
 00009502  B8 00000049	     5				MOV 	EAX,	'I'
 00009507  E8 00000000 E     5				CALL 	WriteChar
 0000950C  58		     5			POP 	EAX
 00009516  50		     5				PUSH 	EAX
 00009517  B8 00000007	     5					MOV 	EAX, 00000111b
 0000951C  E8 00000000 E     5					CALL	SetTextColor
 00009521  58		     5				POP 	EAX
 00009522  50		     5			PUSH 	EAX
 00009523  B8 0000005D	     5				MOV 	EAX,	']'
 00009528  E8 00000000 E     5				CALL 	WriteChar
 0000952D  58		     5			POP 	EAX
 0000952E  8A 15 00000000 R  5			MOV  	dl, LastPointX
 00009534  8A 35 00000001 R  5			MOV  	dh, LastPointY
 0000953A  88 15 00000002 R  5			MOV 	CurrentPointX,	dl
 00009540  88 35 00000003 R  5			MOV 	CurrentPointY,	dh
 00009546  E8 00000000 E     5			CALL 	Gotoxy 
 0000954B  61		     4			POPAD
 0000954C  61		     3			POPAD
 0000954D  B8 00000001	     2			MOV EAX,	1
 00009563  50		     3				PUSH 	EAX
 00009564  B8 0000000E	     3					MOV 	EAX, Yellow
 00009569  E8 00000000 E     3					CALL	SetTextColor
 0000956E  58		     3				POP 	EAX
 0000957C  8A 15 00000002 R  4			MOV  	dl, CurrentPointX
 00009582  8A 35 00000003 R  4			MOV  	dh, CurrentPointY
 00009588  88 15 00000000 R  4			MOV		LastPointX,	dl
 0000958E  88 35 00000001 R  4			MOV 	LastPointY,	dh
 00009594  B2 67	     4			MOV  	dl, BYTE PTR 103
 00009596  B6 0D	     4			MOV  	dh, BYTE PTR 13
 00009598  88 15 00000002 R  4			MOV 	CurrentPointX,	dl
 0000959E  88 35 00000003 R  4			MOV 	CurrentPointY,	dh
 000095A4  E8 00000000 E     4			CALL 	Gotoxy  
 000095A9  52		     4				PUSH EDX
 000095AA  52		     5			PUSH EDX
 000095AB  51		     5			PUSH ECX
 000095AC  56		     5			PUSH ESI
 000095AD  BA 00000004 R     5				MOV EDX, OFFSET UserCastle_1_1
 000095B2  E8 00000000 E     5				CALL WriteString
 000095B7  59		     5			POP ECX
 000095B8  59		     5			POP ECX
 000095B9  5E		     5			POP ESI
 000095BA  5A		     4				POP  EDX
 000095BB  FE C6	     4				INC  DH
 000095BD  E8 00000000 E     4				Call GoToXY
 000095C2  52		     4				PUSH EDX
 000095C3  52		     5			PUSH EDX
 000095C4  51		     5			PUSH ECX
 000095C5  56		     5			PUSH ESI
 000095C6  BA 00000019 R     5				MOV EDX, OFFSET UserCastle_1_2
 000095CB  E8 00000000 E     5				CALL WriteString
 000095D0  59		     5			POP ECX
 000095D1  59		     5			POP ECX
 000095D2  5E		     5			POP ESI
 000095D3  5A		     4				POP  EDX
 000095D4  FE C6	     4				INC  DH
 000095D6  E8 00000000 E     4				Call GoToXY
 000095DB  52		     4				PUSH EDX
 000095DC  52		     5			PUSH EDX
 000095DD  51		     5			PUSH ECX
 000095DE  56		     5			PUSH ESI
 000095DF  BA 00000031 R     5				MOV EDX, OFFSET UserCastle_1_3
 000095E4  E8 00000000 E     5				CALL WriteString
 000095E9  59		     5			POP ECX
 000095EA  59		     5			POP ECX
 000095EB  5E		     5			POP ESI
 000095EC  5A		     4				POP  EDX
 000095ED  FE C6	     4				INC  DH
 000095EF  E8 00000000 E     4				Call GoToXY
 000095F4  52		     4				PUSH EDX
 000095F5  52		     5			PUSH EDX
 000095F6  51		     5			PUSH ECX
 000095F7  56		     5			PUSH ESI
 000095F8  BA 00000046 R     5				MOV EDX, OFFSET UserCastle_1_4
 000095FD  E8 00000000 E     5				CALL WriteString
 00009602  59		     5			POP ECX
 00009603  59		     5			POP ECX
 00009604  5E		     5			POP ESI
 00009605  5A		     4				POP  EDX
 00009606  FE C6	     4				INC  DH
 00009608  E8 00000000 E     4				Call GoToXY
 0000960D  52		     4				PUSH EDX
 0000960E  52		     5			PUSH EDX
 0000960F  51		     5			PUSH ECX
 00009610  56		     5			PUSH ESI
 00009611  BA 0000005B R     5				MOV EDX, OFFSET UserCastle_1_5
 00009616  E8 00000000 E     5				CALL WriteString
 0000961B  59		     5			POP ECX
 0000961C  59		     5			POP ECX
 0000961D  5E		     5			POP ESI
 0000961E  5A		     4				POP  EDX
 0000961F  FE C6	     4				INC  DH
 00009621  E8 00000000 E     4				Call GoToXY
 00009638  8A 15 00000002 R  4			MOV  	dl, CurrentPointX
 0000963E  8A 35 00000003 R  4			MOV  	dh, CurrentPointY
 00009644  88 15 00000000 R  4			MOV		LastPointX,	dl
 0000964A  88 35 00000001 R  4			MOV 	LastPointY,	dh
 00009650  B2 67	     4			MOV  	dl, BYTE PTR 103
 00009652  B6 0A	     4			MOV  	dh, BYTE PTR 10
 00009654  88 15 00000002 R  4			MOV 	CurrentPointX,	dl
 0000965A  88 35 00000003 R  4			MOV 	CurrentPointY,	dh
 00009660  E8 00000000 E     4			CALL 	Gotoxy  
 00009665  52		     4				PUSH EDX
 00009666  52		     5			PUSH EDX
 00009667  51		     5			PUSH ECX
 00009668  56		     5			PUSH ESI
 00009669  BA 00000070 R     5				MOV EDX, OFFSET UserCastle_2_1
 0000966E  E8 00000000 E     5				CALL WriteString
 00009673  59		     5			POP ECX
 00009674  59		     5			POP ECX
 00009675  5E		     5			POP ESI
 00009676  5A		     4				POP  EDX
 00009677  FE C6	     4				INC  DH
 00009679  E8 00000000 E     4				Call GoToXY
 0000967E  52		     4				PUSH EDX
 0000967F  52		     5			PUSH EDX
 00009680  51		     5			PUSH ECX
 00009681  56		     5			PUSH ESI
 00009682  BA 00000083 R     5				MOV EDX, OFFSET UserCastle_2_2
 00009687  E8 00000000 E     5				CALL WriteString
 0000968C  59		     5			POP ECX
 0000968D  59		     5			POP ECX
 0000968E  5E		     5			POP ESI
 0000968F  5A		     4				POP  EDX
 00009690  FE C6	     4				INC  DH
 00009692  E8 00000000 E     4				Call GoToXY
 00009697  52		     4				PUSH EDX
 00009698  52		     5			PUSH EDX
 00009699  51		     5			PUSH ECX
 0000969A  56		     5			PUSH ESI
 0000969B  BA 00000096 R     5				MOV EDX, OFFSET UserCastle_2_3
 000096A0  E8 00000000 E     5				CALL WriteString
 000096A5  59		     5			POP ECX
 000096A6  59		     5			POP ECX
 000096A7  5E		     5			POP ESI
 000096A8  5A		     4				POP  EDX
 000096A9  FE C6	     4				INC  DH
 000096AB  E8 00000000 E     4				Call GoToXY
 000096B0  52		     4				PUSH EDX
 000096B1  52		     5			PUSH EDX
 000096B2  51		     5			PUSH ECX
 000096B3  56		     5			PUSH ESI
 000096B4  BA 000000AA R     5				MOV EDX, OFFSET UserCastle_2_4
 000096B9  E8 00000000 E     5				CALL WriteString
 000096BE  59		     5			POP ECX
 000096BF  59		     5			POP ECX
 000096C0  5E		     5			POP ESI
 000096C1  5A		     4				POP  EDX
 000096C2  FE C6	     4				INC  DH
 000096C4  E8 00000000 E     4				Call GoToXY
 000096C9  52		     4				PUSH EDX
 000096CA  52		     5			PUSH EDX
 000096CB  51		     5			PUSH ECX
 000096CC  56		     5			PUSH ESI
 000096CD  BA 000000C0 R     5				MOV EDX, OFFSET UserCastle_2_5
 000096D2  E8 00000000 E     5				CALL WriteString
 000096D7  59		     5			POP ECX
 000096D8  59		     5			POP ECX
 000096D9  5E		     5			POP ESI
 000096DA  5A		     4				POP  EDX
 000096DB  FE C6	     4				INC  DH
 000096DD  E8 00000000 E     4				Call GoToXY
 000096E2  52		     4				PUSH EDX
 000096E3  52		     5			PUSH EDX
 000096E4  51		     5			PUSH ECX
 000096E5  56		     5			PUSH ESI
 000096E6  BA 000000D8 R     5				MOV EDX, OFFSET UserCastle_2_6
 000096EB  E8 00000000 E     5				CALL WriteString
 000096F0  59		     5			POP ECX
 000096F1  59		     5			POP ECX
 000096F2  5E		     5			POP ESI
 000096F3  5A		     4				POP  EDX
 000096F4  FE C6	     4				INC  DH
 000096F6  E8 00000000 E     4				Call GoToXY
 000096FB  52		     4				PUSH EDX
 000096FC  52		     5			PUSH EDX
 000096FD  51		     5			PUSH ECX
 000096FE  56		     5			PUSH ESI
 000096FF  BA 000000ED R     5				MOV EDX, OFFSET UserCastle_2_7
 00009704  E8 00000000 E     5				CALL WriteString
 00009709  59		     5			POP ECX
 0000970A  59		     5			POP ECX
 0000970B  5E		     5			POP ESI
 0000970C  5A		     4				POP  EDX
 0000970D  FE C6	     4				INC  DH
 0000970F  E8 00000000 E     4				Call GoToXY
 00009714  52		     4				PUSH EDX
 00009715  52		     5			PUSH EDX
 00009716  51		     5			PUSH ECX
 00009717  56		     5			PUSH ESI
 00009718  BA 00000104 R     5				MOV EDX, OFFSET UserCastle_2_8
 0000971D  E8 00000000 E     5				CALL WriteString
 00009722  59		     5			POP ECX
 00009723  59		     5			POP ECX
 00009724  5E		     5			POP ESI
 00009725  5A		     4				POP  EDX
 00009726  FE C6	     4				INC  DH
 00009728  E8 00000000 E     4				Call GoToXY
 0000973F  8A 15 00000002 R  4			MOV  	dl, CurrentPointX
 00009745  8A 35 00000003 R  4			MOV  	dh, CurrentPointY
 0000974B  88 15 00000000 R  4			MOV		LastPointX,	dl
 00009751  88 35 00000001 R  4			MOV 	LastPointY,	dh
 00009757  B2 67	     4			MOV  	dl, BYTE PTR 103
 00009759  B6 09	     4			MOV  	dh, BYTE PTR 9
 0000975B  88 15 00000002 R  4			MOV 	CurrentPointX,	dl
 00009761  88 35 00000003 R  4			MOV 	CurrentPointY,	dh
 00009767  E8 00000000 E     4			CALL 	Gotoxy  
 0000976C  52		     4				PUSH EDX
 0000976D  52		     5			PUSH EDX
 0000976E  51		     5			PUSH ECX
 0000976F  56		     5			PUSH ESI
 00009770  BA 0000011B R     5				MOV EDX, OFFSET UserCastle_3_1
 00009775  E8 00000000 E     5				CALL WriteString
 0000977A  59		     5			POP ECX
 0000977B  59		     5			POP ECX
 0000977C  5E		     5			POP ESI
 0000977D  5A		     4				POP  EDX
 0000977E  FE C6	     4				INC  DH
 00009780  E8 00000000 E     4				Call GoToXY
 00009785  52		     4				PUSH EDX
 00009786  52		     5			PUSH EDX
 00009787  51		     5			PUSH ECX
 00009788  56		     5			PUSH ESI
 00009789  BA 0000012D R     5				MOV EDX, OFFSET UserCastle_3_2
 0000978E  E8 00000000 E     5				CALL WriteString
 00009793  59		     5			POP ECX
 00009794  59		     5			POP ECX
 00009795  5E		     5			POP ESI
 00009796  5A		     4				POP  EDX
 00009797  FE C6	     4				INC  DH
 00009799  E8 00000000 E     4				Call GoToXY
 0000979E  52		     4				PUSH EDX
 0000979F  52		     5			PUSH EDX
 000097A0  51		     5			PUSH ECX
 000097A1  56		     5			PUSH ESI
 000097A2  BA 0000013F R     5				MOV EDX, OFFSET UserCastle_3_3
 000097A7  E8 00000000 E     5				CALL WriteString
 000097AC  59		     5			POP ECX
 000097AD  59		     5			POP ECX
 000097AE  5E		     5			POP ESI
 000097AF  5A		     4				POP  EDX
 000097B0  FE C6	     4				INC  DH
 000097B2  E8 00000000 E     4				Call GoToXY
 000097B7  52		     4				PUSH EDX
 000097B8  52		     5			PUSH EDX
 000097B9  51		     5			PUSH ECX
 000097BA  56		     5			PUSH ESI
 000097BB  BA 00000154 R     5				MOV EDX, OFFSET UserCastle_3_4
 000097C0  E8 00000000 E     5				CALL WriteString
 000097C5  59		     5			POP ECX
 000097C6  59		     5			POP ECX
 000097C7  5E		     5			POP ESI
 000097C8  5A		     4				POP  EDX
 000097C9  FE C6	     4				INC  DH
 000097CB  E8 00000000 E     4				Call GoToXY
 000097D0  52		     4				PUSH EDX
 000097D1  52		     5			PUSH EDX
 000097D2  51		     5			PUSH ECX
 000097D3  56		     5			PUSH ESI
 000097D4  BA 00000169 R     5				MOV EDX, OFFSET UserCastle_3_5
 000097D9  E8 00000000 E     5				CALL WriteString
 000097DE  59		     5			POP ECX
 000097DF  59		     5			POP ECX
 000097E0  5E		     5			POP ESI
 000097E1  5A		     4				POP  EDX
 000097E2  FE C6	     4				INC  DH
 000097E4  E8 00000000 E     4				Call GoToXY
 000097E9  52		     4				PUSH EDX
 000097EA  52		     5			PUSH EDX
 000097EB  51		     5			PUSH ECX
 000097EC  56		     5			PUSH ESI
 000097ED  BA 00000180 R     5				MOV EDX, OFFSET UserCastle_3_6
 000097F2  E8 00000000 E     5				CALL WriteString
 000097F7  59		     5			POP ECX
 000097F8  59		     5			POP ECX
 000097F9  5E		     5			POP ESI
 000097FA  5A		     4				POP  EDX
 000097FB  FE C6	     4				INC  DH
 000097FD  E8 00000000 E     4				Call GoToXY
 00009802  52		     4				PUSH EDX
 00009803  52		     5			PUSH EDX
 00009804  51		     5			PUSH ECX
 00009805  56		     5			PUSH ESI
 00009806  BA 00000197 R     5				MOV EDX, OFFSET UserCastle_3_7
 0000980B  E8 00000000 E     5				CALL WriteString
 00009810  59		     5			POP ECX
 00009811  59		     5			POP ECX
 00009812  5E		     5			POP ESI
 00009813  5A		     4				POP  EDX
 00009814  FE C6	     4				INC  DH
 00009816  E8 00000000 E     4				Call GoToXY
 0000981B  52		     4				PUSH EDX
 0000981C  52		     5			PUSH EDX
 0000981D  51		     5			PUSH ECX
 0000981E  56		     5			PUSH ESI
 0000981F  BA 000001AF R     5				MOV EDX, OFFSET UserCastle_3_8
 00009824  E8 00000000 E     5				CALL WriteString
 00009829  59		     5			POP ECX
 0000982A  59		     5			POP ECX
 0000982B  5E		     5			POP ESI
 0000982C  5A		     4				POP  EDX
 0000982D  FE C6	     4				INC  DH
 0000982F  E8 00000000 E     4				Call GoToXY
 00009834  52		     4				PUSH EDX
 00009835  52		     5			PUSH EDX
 00009836  51		     5			PUSH ECX
 00009837  56		     5			PUSH ESI
 00009838  BA 000001C7 R     5				MOV EDX, OFFSET UserCastle_3_9
 0000983D  E8 00000000 E     5				CALL WriteString
 00009842  59		     5			POP ECX
 00009843  59		     5			POP ECX
 00009844  5E		     5			POP ESI
 00009845  5A		     4				POP  EDX
 00009846  FE C6	     4				INC  DH
 00009848  E8 00000000 E     4				Call GoToXY
 0000985A  50		     3				PUSH 	EAX
 0000985B  B8 00000007	     3					MOV 	EAX, 00000111b
 00009860  E8 00000000 E     3					CALL	SetTextColor
 00009865  58		     3				POP 	EAX
 00009874  50		     3				PUSH 	EAX
 00009875  B8 0000000C	     3					MOV 	EAX, LightRed
 0000987A  E8 00000000 E     3					CALL	SetTextColor
 0000987F  58		     3				POP 	EAX
 0000988D  8A 15 00000002 R  4			MOV  	dl, CurrentPointX
 00009893  8A 35 00000003 R  4			MOV  	dh, CurrentPointY
 00009899  88 15 00000000 R  4			MOV		LastPointX,	dl
 0000989F  88 35 00000001 R  4			MOV 	LastPointY,	dh
 000098A5  B2 67	     4			MOV  	dl, BYTE PTR 103
 000098A7  B6 0C	     4			MOV  	dh, BYTE PTR 12
 000098A9  88 15 00000002 R  4			MOV 	CurrentPointX,	dl
 000098AF  88 35 00000003 R  4			MOV 	CurrentPointY,	dh
 000098B5  E8 00000000 E     4			CALL 	Gotoxy  
 000098BA  52		     4				PUSH EDX
 000098BB  52		     5			PUSH EDX
 000098BC  51		     5			PUSH ECX
 000098BD  56		     5			PUSH ESI
 000098BE  BA 000001DF R     5				MOV EDX, OFFSET CompCastle_1_1
 000098C3  E8 00000000 E     5				CALL WriteString
 000098C8  59		     5			POP ECX
 000098C9  59		     5			POP ECX
 000098CA  5E		     5			POP ESI
 000098CB  5A		     4				POP  EDX
 000098CC  FE C6	     4				INC  DH
 000098CE  E8 00000000 E     4				Call GoToXY
 000098D3  52		     4				PUSH EDX
 000098D4  52		     5			PUSH EDX
 000098D5  51		     5			PUSH ECX
 000098D6  56		     5			PUSH ESI
 000098D7  BA 000001EF R     5				MOV EDX, OFFSET CompCastle_1_2
 000098DC  E8 00000000 E     5				CALL WriteString
 000098E1  59		     5			POP ECX
 000098E2  59		     5			POP ECX
 000098E3  5E		     5			POP ESI
 000098E4  5A		     4				POP  EDX
 000098E5  FE C6	     4				INC  DH
 000098E7  E8 00000000 E     4				Call GoToXY
 000098EC  52		     4				PUSH EDX
 000098ED  52		     5			PUSH EDX
 000098EE  51		     5			PUSH ECX
 000098EF  56		     5			PUSH ESI
 000098F0  BA 000001FC R     5				MOV EDX, OFFSET CompCastle_1_3
 000098F5  E8 00000000 E     5				CALL WriteString
 000098FA  59		     5			POP ECX
 000098FB  59		     5			POP ECX
 000098FC  5E		     5			POP ESI
 000098FD  5A		     4				POP  EDX
 000098FE  FE C6	     4				INC  DH
 00009900  E8 00000000 E     4				Call GoToXY
 00009905  52		     4				PUSH EDX
 00009906  52		     5			PUSH EDX
 00009907  51		     5			PUSH ECX
 00009908  56		     5			PUSH ESI
 00009909  BA 00000209 R     5				MOV EDX, OFFSET CompCastle_1_4
 0000990E  E8 00000000 E     5				CALL WriteString
 00009913  59		     5			POP ECX
 00009914  59		     5			POP ECX
 00009915  5E		     5			POP ESI
 00009916  5A		     4				POP  EDX
 00009917  FE C6	     4				INC  DH
 00009919  E8 00000000 E     4				Call GoToXY
 0000991E  52		     4				PUSH EDX
 0000991F  52		     5			PUSH EDX
 00009920  51		     5			PUSH ECX
 00009921  56		     5			PUSH ESI
 00009922  BA 00000216 R     5				MOV EDX, OFFSET CompCastle_1_5
 00009927  E8 00000000 E     5				CALL WriteString
 0000992C  59		     5			POP ECX
 0000992D  59		     5			POP ECX
 0000992E  5E		     5			POP ESI
 0000992F  5A		     4				POP  EDX
 00009930  FE C6	     4				INC  DH
 00009932  E8 00000000 E     4				Call GoToXY
 00009937  52		     4				PUSH EDX
 00009938  52		     5			PUSH EDX
 00009939  51		     5			PUSH ECX
 0000993A  56		     5			PUSH ESI
 0000993B  BA 00000223 R     5				MOV EDX, OFFSET CompCastle_1_6
 00009940  E8 00000000 E     5				CALL WriteString
 00009945  59		     5			POP ECX
 00009946  59		     5			POP ECX
 00009947  5E		     5			POP ESI
 00009948  5A		     4				POP  EDX
 00009949  FE C6	     4				INC  DH
 0000994B  E8 00000000 E     4				Call GoToXY
 00009962  8A 15 00000002 R  4			MOV  	dl, CurrentPointX
 00009968  8A 35 00000003 R  4			MOV  	dh, CurrentPointY
 0000996E  88 15 00000000 R  4			MOV		LastPointX,	dl
 00009974  88 35 00000001 R  4			MOV 	LastPointY,	dh
 0000997A  B2 67	     4			MOV  	dl, BYTE PTR 103
 0000997C  B6 0A	     4			MOV  	dh, BYTE PTR 10
 0000997E  88 15 00000002 R  4			MOV 	CurrentPointX,	dl
 00009984  88 35 00000003 R  4			MOV 	CurrentPointY,	dh
 0000998A  E8 00000000 E     4			CALL 	Gotoxy  
 0000998F  52		     4				PUSH EDX
 00009990  52		     5			PUSH EDX
 00009991  51		     5			PUSH ECX
 00009992  56		     5			PUSH ESI
 00009993  BA 00000230 R     5				MOV EDX, OFFSET CompCastle_2_1
 00009998  E8 00000000 E     5				CALL WriteString
 0000999D  59		     5			POP ECX
 0000999E  59		     5			POP ECX
 0000999F  5E		     5			POP ESI
 000099A0  5A		     4				POP  EDX
 000099A1  FE C6	     4				INC  DH
 000099A3  E8 00000000 E     4				Call GoToXY
 000099A8  52		     4				PUSH EDX
 000099A9  52		     5			PUSH EDX
 000099AA  51		     5			PUSH ECX
 000099AB  56		     5			PUSH ESI
 000099AC  BA 0000023B R     5				MOV EDX, OFFSET CompCastle_2_2
 000099B1  E8 00000000 E     5				CALL WriteString
 000099B6  59		     5			POP ECX
 000099B7  59		     5			POP ECX
 000099B8  5E		     5			POP ESI
 000099B9  5A		     4				POP  EDX
 000099BA  FE C6	     4				INC  DH
 000099BC  E8 00000000 E     4				Call GoToXY
 000099C1  52		     4				PUSH EDX
 000099C2  52		     5			PUSH EDX
 000099C3  51		     5			PUSH ECX
 000099C4  56		     5			PUSH ESI
 000099C5  BA 00000246 R     5				MOV EDX, OFFSET CompCastle_2_3
 000099CA  E8 00000000 E     5				CALL WriteString
 000099CF  59		     5			POP ECX
 000099D0  59		     5			POP ECX
 000099D1  5E		     5			POP ESI
 000099D2  5A		     4				POP  EDX
 000099D3  FE C6	     4				INC  DH
 000099D5  E8 00000000 E     4				Call GoToXY
 000099DA  52		     4				PUSH EDX
 000099DB  52		     5			PUSH EDX
 000099DC  51		     5			PUSH ECX
 000099DD  56		     5			PUSH ESI
 000099DE  BA 00000255 R     5				MOV EDX, OFFSET CompCastle_2_4
 000099E3  E8 00000000 E     5				CALL WriteString
 000099E8  59		     5			POP ECX
 000099E9  59		     5			POP ECX
 000099EA  5E		     5			POP ESI
 000099EB  5A		     4				POP  EDX
 000099EC  FE C6	     4				INC  DH
 000099EE  E8 00000000 E     4				Call GoToXY
 000099F3  52		     4				PUSH EDX
 000099F4  52		     5			PUSH EDX
 000099F5  51		     5			PUSH ECX
 000099F6  56		     5			PUSH ESI
 000099F7  BA 00000264 R     5				MOV EDX, OFFSET CompCastle_2_5
 000099FC  E8 00000000 E     5				CALL WriteString
 00009A01  59		     5			POP ECX
 00009A02  59		     5			POP ECX
 00009A03  5E		     5			POP ESI
 00009A04  5A		     4				POP  EDX
 00009A05  FE C6	     4				INC  DH
 00009A07  E8 00000000 E     4				Call GoToXY
 00009A0C  52		     4				PUSH EDX
 00009A0D  52		     5			PUSH EDX
 00009A0E  51		     5			PUSH ECX
 00009A0F  56		     5			PUSH ESI
 00009A10  BA 00000275 R     5				MOV EDX, OFFSET CompCastle_2_6
 00009A15  E8 00000000 E     5				CALL WriteString
 00009A1A  59		     5			POP ECX
 00009A1B  59		     5			POP ECX
 00009A1C  5E		     5			POP ESI
 00009A1D  5A		     4				POP  EDX
 00009A1E  FE C6	     4				INC  DH
 00009A20  E8 00000000 E     4				Call GoToXY
 00009A25  52		     4				PUSH EDX
 00009A26  52		     5			PUSH EDX
 00009A27  51		     5			PUSH ECX
 00009A28  56		     5			PUSH ESI
 00009A29  BA 00000286 R     5				MOV EDX, OFFSET CompCastle_2_7
 00009A2E  E8 00000000 E     5				CALL WriteString
 00009A33  59		     5			POP ECX
 00009A34  59		     5			POP ECX
 00009A35  5E		     5			POP ESI
 00009A36  5A		     4				POP  EDX
 00009A37  FE C6	     4				INC  DH
 00009A39  E8 00000000 E     4				Call GoToXY
 00009A3E  52		     4				PUSH EDX
 00009A3F  52		     5			PUSH EDX
 00009A40  51		     5			PUSH ECX
 00009A41  56		     5			PUSH ESI
 00009A42  BA 00000295 R     5				MOV EDX, OFFSET CompCastle_2_8
 00009A47  E8 00000000 E     5				CALL WriteString
 00009A4C  59		     5			POP ECX
 00009A4D  59		     5			POP ECX
 00009A4E  5E		     5			POP ESI
 00009A4F  5A		     4				POP  EDX
 00009A50  FE C6	     4				INC  DH
 00009A52  E8 00000000 E     4				Call GoToXY
 00009A69  8A 15 00000002 R  4			MOV  	dl, CurrentPointX
 00009A6F  8A 35 00000003 R  4			MOV  	dh, CurrentPointY
 00009A75  88 15 00000000 R  4			MOV		LastPointX,	dl
 00009A7B  88 35 00000001 R  4			MOV 	LastPointY,	dh
 00009A81  B2 67	     4			MOV  	dl, BYTE PTR 103
 00009A83  B6 09	     4			MOV  	dh, BYTE PTR 9
 00009A85  88 15 00000002 R  4			MOV 	CurrentPointX,	dl
 00009A8B  88 35 00000003 R  4			MOV 	CurrentPointY,	dh
 00009A91  E8 00000000 E     4			CALL 	Gotoxy  
 00009A96  52		     4				PUSH EDX
 00009A97  52		     5			PUSH EDX
 00009A98  51		     5			PUSH ECX
 00009A99  56		     5			PUSH ESI
 00009A9A  BA 000002A4 R     5				MOV EDX, OFFSET CompCastle_3_1
 00009A9F  E8 00000000 E     5				CALL WriteString
 00009AA4  59		     5			POP ECX
 00009AA5  59		     5			POP ECX
 00009AA6  5E		     5			POP ESI
 00009AA7  5A		     4				POP  EDX
 00009AA8  FE C6	     4				INC  DH
 00009AAA  E8 00000000 E     4				Call GoToXY
 00009AAF  52		     4				PUSH EDX
 00009AB0  52		     5			PUSH EDX
 00009AB1  51		     5			PUSH ECX
 00009AB2  56		     5			PUSH ESI
 00009AB3  BA 000002B7 R     5				MOV EDX, OFFSET CompCastle_3_2
 00009AB8  E8 00000000 E     5				CALL WriteString
 00009ABD  59		     5			POP ECX
 00009ABE  59		     5			POP ECX
 00009ABF  5E		     5			POP ESI
 00009AC0  5A		     4				POP  EDX
 00009AC1  FE C6	     4				INC  DH
 00009AC3  E8 00000000 E     4				Call GoToXY
 00009AC8  52		     4				PUSH EDX
 00009AC9  52		     5			PUSH EDX
 00009ACA  51		     5			PUSH ECX
 00009ACB  56		     5			PUSH ESI
 00009ACC  BA 000002CC R     5				MOV EDX, OFFSET CompCastle_3_3
 00009AD1  E8 00000000 E     5				CALL WriteString
 00009AD6  59		     5			POP ECX
 00009AD7  59		     5			POP ECX
 00009AD8  5E		     5			POP ESI
 00009AD9  5A		     4				POP  EDX
 00009ADA  FE C6	     4				INC  DH
 00009ADC  E8 00000000 E     4				Call GoToXY
 00009AE1  52		     4				PUSH EDX
 00009AE2  52		     5			PUSH EDX
 00009AE3  51		     5			PUSH ECX
 00009AE4  56		     5			PUSH ESI
 00009AE5  BA 000002DD R     5				MOV EDX, OFFSET CompCastle_3_4
 00009AEA  E8 00000000 E     5				CALL WriteString
 00009AEF  59		     5			POP ECX
 00009AF0  59		     5			POP ECX
 00009AF1  5E		     5			POP ESI
 00009AF2  5A		     4				POP  EDX
 00009AF3  FE C6	     4				INC  DH
 00009AF5  E8 00000000 E     4				Call GoToXY
 00009AFA  52		     4				PUSH EDX
 00009AFB  52		     5			PUSH EDX
 00009AFC  51		     5			PUSH ECX
 00009AFD  56		     5			PUSH ESI
 00009AFE  BA 000002F3 R     5				MOV EDX, OFFSET CompCastle_3_5
 00009B03  E8 00000000 E     5				CALL WriteString
 00009B08  59		     5			POP ECX
 00009B09  59		     5			POP ECX
 00009B0A  5E		     5			POP ESI
 00009B0B  5A		     4				POP  EDX
 00009B0C  FE C6	     4				INC  DH
 00009B0E  E8 00000000 E     4				Call GoToXY
 00009B13  52		     4				PUSH EDX
 00009B14  52		     5			PUSH EDX
 00009B15  51		     5			PUSH ECX
 00009B16  56		     5			PUSH ESI
 00009B17  BA 00000309 R     5				MOV EDX, OFFSET CompCastle_3_6
 00009B1C  E8 00000000 E     5				CALL WriteString
 00009B21  59		     5			POP ECX
 00009B22  59		     5			POP ECX
 00009B23  5E		     5			POP ESI
 00009B24  5A		     4				POP  EDX
 00009B25  FE C6	     4				INC  DH
 00009B27  E8 00000000 E     4				Call GoToXY
 00009B2C  52		     4				PUSH EDX
 00009B2D  52		     5			PUSH EDX
 00009B2E  51		     5			PUSH ECX
 00009B2F  56		     5			PUSH ESI
 00009B30  BA 0000031F R     5				MOV EDX, OFFSET CompCastle_3_7
 00009B35  E8 00000000 E     5				CALL WriteString
 00009B3A  59		     5			POP ECX
 00009B3B  59		     5			POP ECX
 00009B3C  5E		     5			POP ESI
 00009B3D  5A		     4				POP  EDX
 00009B3E  FE C6	     4				INC  DH
 00009B40  E8 00000000 E     4				Call GoToXY
 00009B45  52		     4				PUSH EDX
 00009B46  52		     5			PUSH EDX
 00009B47  51		     5			PUSH ECX
 00009B48  56		     5			PUSH ESI
 00009B49  BA 00000336 R     5				MOV EDX, OFFSET CompCastle_3_8
 00009B4E  E8 00000000 E     5				CALL WriteString
 00009B53  59		     5			POP ECX
 00009B54  59		     5			POP ECX
 00009B55  5E		     5			POP ESI
 00009B56  5A		     4				POP  EDX
 00009B57  FE C6	     4				INC  DH
 00009B59  E8 00000000 E     4				Call GoToXY
 00009B5E  52		     4				PUSH EDX
 00009B5F  52		     5			PUSH EDX
 00009B60  51		     5			PUSH ECX
 00009B61  56		     5			PUSH ESI
 00009B62  BA 00000347 R     5				MOV EDX, OFFSET CompCastle_3_9
 00009B67  E8 00000000 E     5				CALL WriteString
 00009B6C  59		     5			POP ECX
 00009B6D  59		     5			POP ECX
 00009B6E  5E		     5			POP ESI
 00009B6F  5A		     4				POP  EDX
 00009B70  FE C6	     4				INC  DH
 00009B72  E8 00000000 E     4				Call GoToXY
 00009B80  50		     3				PUSH 	EAX
 00009B81  B8 00000007	     3					MOV 	EAX, 00000111b
 00009B86  E8 00000000 E     3					CALL	SetTextColor
 00009B8B  58		     3				POP 	EAX
 00009B8C  60		     2			PUSHAD
 00009B8D  B8 00000000	     2				MOV EAX, 0
 00009B96  50		     3			PUSH EAX
 00009B97  B8 00000005	     3				MOV EAX, 5
 00009B9C  A3 00000DD1 R     3				MOV HPLineX, 	EAX
 00009BA1  58		     3			POP EAX
 00009BA2  50		     3			PUSH EAX
 00009BA3  B8 0000000A	     3				MOV EAX, 10
 00009BA8  A3 00000DD5 R     3				MOV HPLineY, 	EAX
 00009BAD  58		     3			POP EAX
 00009BAE  8B 1D 00000DC5 R  2					MOV EBX, UserCastleHP
 00009BB6  50		     3			PUSH EAX
 00009BB7  B8 00000069	     3				MOV EAX, 105
 00009BBC  A3 00000DD1 R     3				MOV HPLineX, 	EAX
 00009BC1  58		     3			POP EAX
 00009BC2  50		     3			PUSH EAX
 00009BC3  B8 0000000A	     3				MOV EAX, 10
 00009BC8  A3 00000DD5 R     3				MOV HPLineY, 	EAX
 00009BCD  58		     3			POP EAX
 00009BCE  8B 1D 00000DC9 R  2					MOV EBX, CompCastleHP
 00009BE0  60		     3			PUSHAD
 00009BE1  8A 15 00000002 R  4			MOV  	dl, CurrentPointX
 00009BE7  8A 35 00000003 R  4			MOV  	dh, CurrentPointY
 00009BED  88 15 00000000 R  4			MOV		LastPointX,	dl
 00009BF3  88 35 00000001 R  4			MOV 	LastPointY,	dh
 00009BF9  8A 15 00000DD1 R  4			MOV  	dl, BYTE PTR HPLineX
 00009BFF  8A 35 00000DD5 R  4			MOV  	dh, BYTE PTR HPLineY
 00009C05  88 15 00000002 R  4			MOV 	CurrentPointX,	dl
 00009C0B  88 35 00000003 R  4			MOV 	CurrentPointY,	dh
 00009C11  E8 00000000 E     4			CALL 	Gotoxy  
 00009C16  50		     4			PUSH 	EAX
 00009C17  8B C3	     4				MOV 	EAX,	EBX
 00009C19  E8 00000000 E     4				CALL 	WriteDec
 00009C1E  58		     4			POP 	EAX
 00009C1F  50		     4			PUSH 	EAX
 00009C20  B8 0000005B	     4				MOV 	EAX,	'['
 00009C25  E8 00000000 E     4				CALL 	WriteChar
 00009C2A  58		     4			POP 	EAX
 00009C2B  B9 00000004	     3				MOV ECX, 4
 00009C3E  50		     4				PUSH 	EAX
 00009C3F  B8 00000004	     4					MOV 	EAX, Red
 00009C44  E8 00000000 E     4					CALL	SetTextColor
 00009C49  58		     4				POP 	EAX
 00009C4A  50		     4			PUSH 	EAX
 00009C4B  B8 00000049	     4				MOV 	EAX,	'I'
 00009C50  E8 00000000 E     4				CALL 	WriteChar
 00009C55  58		     4			POP 	EAX
 00009C56  50		     4			PUSH 	EAX
 00009C57  B8 00000020	     4				MOV 	EAX,	' '
 00009C5C  E8 00000000 E     4				CALL 	WriteChar
 00009C61  58		     4			POP 	EAX
 00009C62  50		     4			PUSH 	EAX
 00009C63  B8 00000020	     4				MOV 	EAX,	' '
 00009C68  E8 00000000 E     4				CALL 	WriteChar
 00009C6D  58		     4			POP 	EAX
 00009C6E  50		     4			PUSH 	EAX
 00009C6F  B8 00000020	     4				MOV 	EAX,	' '
 00009C74  E8 00000000 E     4				CALL 	WriteChar
 00009C79  58		     4			POP 	EAX
 00009C8D  50		     4				PUSH 	EAX
 00009C8E  B8 0000000C	     4					MOV 	EAX, LightRed
 00009C93  E8 00000000 E     4					CALL	SetTextColor
 00009C98  58		     4				POP 	EAX
 00009C99  50		     4			PUSH 	EAX
 00009C9A  B8 00000049	     4				MOV 	EAX,	'I'
 00009C9F  E8 00000000 E     4				CALL 	WriteChar
 00009CA4  58		     4			POP 	EAX
 00009CA5  50		     4			PUSH 	EAX
 00009CA6  B8 00000049	     4				MOV 	EAX,	'I'
 00009CAB  E8 00000000 E     4				CALL 	WriteChar
 00009CB0  58		     4			POP 	EAX
 00009CB1  50		     4			PUSH 	EAX
 00009CB2  B8 00000020	     4				MOV 	EAX,	' '
 00009CB7  E8 00000000 E     4				CALL 	WriteChar
 00009CBC  58		     4			POP 	EAX
 00009CBD  50		     4			PUSH 	EAX
 00009CBE  B8 00000020	     4				MOV 	EAX,	' '
 00009CC3  E8 00000000 E     4				CALL 	WriteChar
 00009CC8  58		     4			POP 	EAX
 00009CDC  50		     4				PUSH 	EAX
 00009CDD  B8 00000002	     4					MOV 	EAX, Green
 00009CE2  E8 00000000 E     4					CALL	SetTextColor
 00009CE7  58		     4				POP 	EAX
 00009CE8  50		     4			PUSH 	EAX
 00009CE9  B8 00000049	     4				MOV 	EAX,	'I'
 00009CEE  E8 00000000 E     4				CALL 	WriteChar
 00009CF3  58		     4			POP 	EAX
 00009CF4  50		     4			PUSH 	EAX
 00009CF5  B8 00000049	     4				MOV 	EAX,	'I'
 00009CFA  E8 00000000 E     4				CALL 	WriteChar
 00009CFF  58		     4			POP 	EAX
 00009D00  50		     4			PUSH 	EAX
 00009D01  B8 00000049	     4				MOV 	EAX,	'I'
 00009D06  E8 00000000 E     4				CALL 	WriteChar
 00009D0B  58		     4			POP 	EAX
 00009D0C  50		     4			PUSH 	EAX
 00009D0D  B8 00000020	     4				MOV 	EAX,	' '
 00009D12  E8 00000000 E     4				CALL 	WriteChar
 00009D17  58		     4			POP 	EAX
 00009D28  50		     4				PUSH 	EAX
 00009D29  B8 0000000A	     4					MOV 	EAX, LightGreen
 00009D2E  E8 00000000 E     4					CALL	SetTextColor
 00009D33  58		     4				POP 	EAX
 00009D34  50		     4			PUSH 	EAX
 00009D35  B8 00000049	     4				MOV 	EAX,	'I'
 00009D3A  E8 00000000 E     4				CALL 	WriteChar
 00009D3F  58		     4			POP 	EAX
 00009D40  50		     4			PUSH 	EAX
 00009D41  B8 00000049	     4				MOV 	EAX,	'I'
 00009D46  E8 00000000 E     4				CALL 	WriteChar
 00009D4B  58		     4			POP 	EAX
 00009D4C  50		     4			PUSH 	EAX
 00009D4D  B8 00000049	     4				MOV 	EAX,	'I'
 00009D52  E8 00000000 E     4				CALL 	WriteChar
 00009D57  58		     4			POP 	EAX
 00009D58  50		     4			PUSH 	EAX
 00009D59  B8 00000049	     4				MOV 	EAX,	'I'
 00009D5E  E8 00000000 E     4				CALL 	WriteChar
 00009D63  58		     4			POP 	EAX
 00009D6D  50		     4				PUSH 	EAX
 00009D6E  B8 00000007	     4					MOV 	EAX, 00000111b
 00009D73  E8 00000000 E     4					CALL	SetTextColor
 00009D78  58		     4				POP 	EAX
 00009D79  50		     4			PUSH 	EAX
 00009D7A  B8 0000005D	     4				MOV 	EAX,	']'
 00009D7F  E8 00000000 E     4				CALL 	WriteChar
 00009D84  58		     4			POP 	EAX
 00009D85  8A 15 00000000 R  4			MOV  	dl, LastPointX
 00009D8B  8A 35 00000001 R  4			MOV  	dh, LastPointY
 00009D91  88 15 00000002 R  4			MOV 	CurrentPointX,	dl
 00009D97  88 35 00000003 R  4			MOV 	CurrentPointY,	dh
 00009D9D  E8 00000000 E     4			CALL 	Gotoxy 
 00009DA2  61		     3			POPAD
 00009DB4  60		     3			PUSHAD
 00009DB5  8A 15 00000002 R  4			MOV  	dl, CurrentPointX
 00009DBB  8A 35 00000003 R  4			MOV  	dh, CurrentPointY
 00009DC1  88 15 00000000 R  4			MOV		LastPointX,	dl
 00009DC7  88 35 00000001 R  4			MOV 	LastPointY,	dh
 00009DCD  8A 15 00000DD1 R  4			MOV  	dl, BYTE PTR HPLineX
 00009DD3  8A 35 00000DD5 R  4			MOV  	dh, BYTE PTR HPLineY
 00009DD9  88 15 00000002 R  4			MOV 	CurrentPointX,	dl
 00009DDF  88 35 00000003 R  4			MOV 	CurrentPointY,	dh
 00009DE5  E8 00000000 E     4			CALL 	Gotoxy  
 00009DEA  50		     4			PUSH 	EAX
 00009DEB  8B C3	     4				MOV 	EAX,	EBX
 00009DED  E8 00000000 E     4				CALL 	WriteDec
 00009DF2  58		     4			POP 	EAX
 00009DF3  50		     4			PUSH 	EAX
 00009DF4  B8 0000005B	     4				MOV 	EAX,	'['
 00009DF9  E8 00000000 E     4				CALL 	WriteChar
 00009DFE  58		     4			POP 	EAX
 00009DFF  B9 00000003	     3				MOV ECX, 3
 00009E12  50		     4				PUSH 	EAX
 00009E13  B8 00000004	     4					MOV 	EAX, Red
 00009E18  E8 00000000 E     4					CALL	SetTextColor
 00009E1D  58		     4				POP 	EAX
 00009E1E  50		     4			PUSH 	EAX
 00009E1F  B8 00000049	     4				MOV 	EAX,	'I'
 00009E24  E8 00000000 E     4				CALL 	WriteChar
 00009E29  58		     4			POP 	EAX
 00009E2A  50		     4			PUSH 	EAX
 00009E2B  B8 00000020	     4				MOV 	EAX,	' '
 00009E30  E8 00000000 E     4				CALL 	WriteChar
 00009E35  58		     4			POP 	EAX
 00009E36  50		     4			PUSH 	EAX
 00009E37  B8 00000020	     4				MOV 	EAX,	' '
 00009E3C  E8 00000000 E     4				CALL 	WriteChar
 00009E41  58		     4			POP 	EAX
 00009E42  50		     4			PUSH 	EAX
 00009E43  B8 00000020	     4				MOV 	EAX,	' '
 00009E48  E8 00000000 E     4				CALL 	WriteChar
 00009E4D  58		     4			POP 	EAX
 00009E61  50		     4				PUSH 	EAX
 00009E62  B8 0000000C	     4					MOV 	EAX, LightRed
 00009E67  E8 00000000 E     4					CALL	SetTextColor
 00009E6C  58		     4				POP 	EAX
 00009E6D  50		     4			PUSH 	EAX
 00009E6E  B8 00000049	     4				MOV 	EAX,	'I'
 00009E73  E8 00000000 E     4				CALL 	WriteChar
 00009E78  58		     4			POP 	EAX
 00009E79  50		     4			PUSH 	EAX
 00009E7A  B8 00000049	     4				MOV 	EAX,	'I'
 00009E7F  E8 00000000 E     4				CALL 	WriteChar
 00009E84  58		     4			POP 	EAX
 00009E85  50		     4			PUSH 	EAX
 00009E86  B8 00000020	     4				MOV 	EAX,	' '
 00009E8B  E8 00000000 E     4				CALL 	WriteChar
 00009E90  58		     4			POP 	EAX
 00009E91  50		     4			PUSH 	EAX
 00009E92  B8 00000020	     4				MOV 	EAX,	' '
 00009E97  E8 00000000 E     4				CALL 	WriteChar
 00009E9C  58		     4			POP 	EAX
 00009EB0  50		     4				PUSH 	EAX
 00009EB1  B8 00000002	     4					MOV 	EAX, Green
 00009EB6  E8 00000000 E     4					CALL	SetTextColor
 00009EBB  58		     4				POP 	EAX
 00009EBC  50		     4			PUSH 	EAX
 00009EBD  B8 00000049	     4				MOV 	EAX,	'I'
 00009EC2  E8 00000000 E     4				CALL 	WriteChar
 00009EC7  58		     4			POP 	EAX
 00009EC8  50		     4			PUSH 	EAX
 00009EC9  B8 00000049	     4				MOV 	EAX,	'I'
 00009ECE  E8 00000000 E     4				CALL 	WriteChar
 00009ED3  58		     4			POP 	EAX
 00009ED4  50		     4			PUSH 	EAX
 00009ED5  B8 00000049	     4				MOV 	EAX,	'I'
 00009EDA  E8 00000000 E     4				CALL 	WriteChar
 00009EDF  58		     4			POP 	EAX
 00009EE0  50		     4			PUSH 	EAX
 00009EE1  B8 00000020	     4				MOV 	EAX,	' '
 00009EE6  E8 00000000 E     4				CALL 	WriteChar
 00009EEB  58		     4			POP 	EAX
 00009EFC  50		     4				PUSH 	EAX
 00009EFD  B8 0000000A	     4					MOV 	EAX, LightGreen
 00009F02  E8 00000000 E     4					CALL	SetTextColor
 00009F07  58		     4				POP 	EAX
 00009F08  50		     4			PUSH 	EAX
 00009F09  B8 00000049	     4				MOV 	EAX,	'I'
 00009F0E  E8 00000000 E     4				CALL 	WriteChar
 00009F13  58		     4			POP 	EAX
 00009F14  50		     4			PUSH 	EAX
 00009F15  B8 00000049	     4				MOV 	EAX,	'I'
 00009F1A  E8 00000000 E     4				CALL 	WriteChar
 00009F1F  58		     4			POP 	EAX
 00009F20  50		     4			PUSH 	EAX
 00009F21  B8 00000049	     4				MOV 	EAX,	'I'
 00009F26  E8 00000000 E     4				CALL 	WriteChar
 00009F2B  58		     4			POP 	EAX
 00009F2C  50		     4			PUSH 	EAX
 00009F2D  B8 00000049	     4				MOV 	EAX,	'I'
 00009F32  E8 00000000 E     4				CALL 	WriteChar
 00009F37  58		     4			POP 	EAX
 00009F41  50		     4				PUSH 	EAX
 00009F42  B8 00000007	     4					MOV 	EAX, 00000111b
 00009F47  E8 00000000 E     4					CALL	SetTextColor
 00009F4C  58		     4				POP 	EAX
 00009F4D  50		     4			PUSH 	EAX
 00009F4E  B8 0000005D	     4				MOV 	EAX,	']'
 00009F53  E8 00000000 E     4				CALL 	WriteChar
 00009F58  58		     4			POP 	EAX
 00009F59  8A 15 00000000 R  4			MOV  	dl, LastPointX
 00009F5F  8A 35 00000001 R  4			MOV  	dh, LastPointY
 00009F65  88 15 00000002 R  4			MOV 	CurrentPointX,	dl
 00009F6B  88 35 00000003 R  4			MOV 	CurrentPointY,	dh
 00009F71  E8 00000000 E     4			CALL 	Gotoxy 
 00009F76  61		     3			POPAD
 00009F88  60		     3			PUSHAD
 00009F89  8A 15 00000002 R  4			MOV  	dl, CurrentPointX
 00009F8F  8A 35 00000003 R  4			MOV  	dh, CurrentPointY
 00009F95  88 15 00000000 R  4			MOV		LastPointX,	dl
 00009F9B  88 35 00000001 R  4			MOV 	LastPointY,	dh
 00009FA1  8A 15 00000DD1 R  4			MOV  	dl, BYTE PTR HPLineX
 00009FA7  8A 35 00000DD5 R  4			MOV  	dh, BYTE PTR HPLineY
 00009FAD  88 15 00000002 R  4			MOV 	CurrentPointX,	dl
 00009FB3  88 35 00000003 R  4			MOV 	CurrentPointY,	dh
 00009FB9  E8 00000000 E     4			CALL 	Gotoxy  
 00009FBE  50		     4			PUSH 	EAX
 00009FBF  8B C3	     4				MOV 	EAX,	EBX
 00009FC1  E8 00000000 E     4				CALL 	WriteDec
 00009FC6  58		     4			POP 	EAX
 00009FC7  50		     4			PUSH 	EAX
 00009FC8  B8 0000005B	     4				MOV 	EAX,	'['
 00009FCD  E8 00000000 E     4				CALL 	WriteChar
 00009FD2  58		     4			POP 	EAX
 00009FD3  B9 00000002	     3				MOV ECX, 2
 00009FE6  50		     4				PUSH 	EAX
 00009FE7  B8 00000004	     4					MOV 	EAX, Red
 00009FEC  E8 00000000 E     4					CALL	SetTextColor
 00009FF1  58		     4				POP 	EAX
 00009FF2  50		     4			PUSH 	EAX
 00009FF3  B8 00000049	     4				MOV 	EAX,	'I'
 00009FF8  E8 00000000 E     4				CALL 	WriteChar
 00009FFD  58		     4			POP 	EAX
 00009FFE  50		     4			PUSH 	EAX
 00009FFF  B8 00000020	     4				MOV 	EAX,	' '
 0000A004  E8 00000000 E     4				CALL 	WriteChar
 0000A009  58		     4			POP 	EAX
 0000A00A  50		     4			PUSH 	EAX
 0000A00B  B8 00000020	     4				MOV 	EAX,	' '
 0000A010  E8 00000000 E     4				CALL 	WriteChar
 0000A015  58		     4			POP 	EAX
 0000A016  50		     4			PUSH 	EAX
 0000A017  B8 00000020	     4				MOV 	EAX,	' '
 0000A01C  E8 00000000 E     4				CALL 	WriteChar
 0000A021  58		     4			POP 	EAX
 0000A035  50		     4				PUSH 	EAX
 0000A036  B8 0000000C	     4					MOV 	EAX, LightRed
 0000A03B  E8 00000000 E     4					CALL	SetTextColor
 0000A040  58		     4				POP 	EAX
 0000A041  50		     4			PUSH 	EAX
 0000A042  B8 00000049	     4				MOV 	EAX,	'I'
 0000A047  E8 00000000 E     4				CALL 	WriteChar
 0000A04C  58		     4			POP 	EAX
 0000A04D  50		     4			PUSH 	EAX
 0000A04E  B8 00000049	     4				MOV 	EAX,	'I'
 0000A053  E8 00000000 E     4				CALL 	WriteChar
 0000A058  58		     4			POP 	EAX
 0000A059  50		     4			PUSH 	EAX
 0000A05A  B8 00000020	     4				MOV 	EAX,	' '
 0000A05F  E8 00000000 E     4				CALL 	WriteChar
 0000A064  58		     4			POP 	EAX
 0000A065  50		     4			PUSH 	EAX
 0000A066  B8 00000020	     4				MOV 	EAX,	' '
 0000A06B  E8 00000000 E     4				CALL 	WriteChar
 0000A070  58		     4			POP 	EAX
 0000A084  50		     4				PUSH 	EAX
 0000A085  B8 00000002	     4					MOV 	EAX, Green
 0000A08A  E8 00000000 E     4					CALL	SetTextColor
 0000A08F  58		     4				POP 	EAX
 0000A090  50		     4			PUSH 	EAX
 0000A091  B8 00000049	     4				MOV 	EAX,	'I'
 0000A096  E8 00000000 E     4				CALL 	WriteChar
 0000A09B  58		     4			POP 	EAX
 0000A09C  50		     4			PUSH 	EAX
 0000A09D  B8 00000049	     4				MOV 	EAX,	'I'
 0000A0A2  E8 00000000 E     4				CALL 	WriteChar
 0000A0A7  58		     4			POP 	EAX
 0000A0A8  50		     4			PUSH 	EAX
 0000A0A9  B8 00000049	     4				MOV 	EAX,	'I'
 0000A0AE  E8 00000000 E     4				CALL 	WriteChar
 0000A0B3  58		     4			POP 	EAX
 0000A0B4  50		     4			PUSH 	EAX
 0000A0B5  B8 00000020	     4				MOV 	EAX,	' '
 0000A0BA  E8 00000000 E     4				CALL 	WriteChar
 0000A0BF  58		     4			POP 	EAX
 0000A0D0  50		     4				PUSH 	EAX
 0000A0D1  B8 0000000A	     4					MOV 	EAX, LightGreen
 0000A0D6  E8 00000000 E     4					CALL	SetTextColor
 0000A0DB  58		     4				POP 	EAX
 0000A0DC  50		     4			PUSH 	EAX
 0000A0DD  B8 00000049	     4				MOV 	EAX,	'I'
 0000A0E2  E8 00000000 E     4				CALL 	WriteChar
 0000A0E7  58		     4			POP 	EAX
 0000A0E8  50		     4			PUSH 	EAX
 0000A0E9  B8 00000049	     4				MOV 	EAX,	'I'
 0000A0EE  E8 00000000 E     4				CALL 	WriteChar
 0000A0F3  58		     4			POP 	EAX
 0000A0F4  50		     4			PUSH 	EAX
 0000A0F5  B8 00000049	     4				MOV 	EAX,	'I'
 0000A0FA  E8 00000000 E     4				CALL 	WriteChar
 0000A0FF  58		     4			POP 	EAX
 0000A100  50		     4			PUSH 	EAX
 0000A101  B8 00000049	     4				MOV 	EAX,	'I'
 0000A106  E8 00000000 E     4				CALL 	WriteChar
 0000A10B  58		     4			POP 	EAX
 0000A115  50		     4				PUSH 	EAX
 0000A116  B8 00000007	     4					MOV 	EAX, 00000111b
 0000A11B  E8 00000000 E     4					CALL	SetTextColor
 0000A120  58		     4				POP 	EAX
 0000A121  50		     4			PUSH 	EAX
 0000A122  B8 0000005D	     4				MOV 	EAX,	']'
 0000A127  E8 00000000 E     4				CALL 	WriteChar
 0000A12C  58		     4			POP 	EAX
 0000A12D  8A 15 00000000 R  4			MOV  	dl, LastPointX
 0000A133  8A 35 00000001 R  4			MOV  	dh, LastPointY
 0000A139  88 15 00000002 R  4			MOV 	CurrentPointX,	dl
 0000A13F  88 35 00000003 R  4			MOV 	CurrentPointY,	dh
 0000A145  E8 00000000 E     4			CALL 	Gotoxy 
 0000A14A  61		     3			POPAD
 0000A150  60		     3			PUSHAD
 0000A151  8A 15 00000002 R  4			MOV  	dl, CurrentPointX
 0000A157  8A 35 00000003 R  4			MOV  	dh, CurrentPointY
 0000A15D  88 15 00000000 R  4			MOV		LastPointX,	dl
 0000A163  88 35 00000001 R  4			MOV 	LastPointY,	dh
 0000A169  8A 15 00000DD1 R  4			MOV  	dl, BYTE PTR HPLineX
 0000A16F  8A 35 00000DD5 R  4			MOV  	dh, BYTE PTR HPLineY
 0000A175  88 15 00000002 R  4			MOV 	CurrentPointX,	dl
 0000A17B  88 35 00000003 R  4			MOV 	CurrentPointY,	dh
 0000A181  E8 00000000 E     4			CALL 	Gotoxy  
 0000A186  50		     4			PUSH 	EAX
 0000A187  8B C3	     4				MOV 	EAX,	EBX
 0000A189  E8 00000000 E     4				CALL 	WriteDec
 0000A18E  58		     4			POP 	EAX
 0000A18F  50		     4			PUSH 	EAX
 0000A190  B8 0000005B	     4				MOV 	EAX,	'['
 0000A195  E8 00000000 E     4				CALL 	WriteChar
 0000A19A  58		     4			POP 	EAX
 0000A19B  B9 00000001	     3				MOV ECX, 1
 0000A1AE  50		     4				PUSH 	EAX
 0000A1AF  B8 00000004	     4					MOV 	EAX, Red
 0000A1B4  E8 00000000 E     4					CALL	SetTextColor
 0000A1B9  58		     4				POP 	EAX
 0000A1BA  50		     4			PUSH 	EAX
 0000A1BB  B8 00000049	     4				MOV 	EAX,	'I'
 0000A1C0  E8 00000000 E     4				CALL 	WriteChar
 0000A1C5  58		     4			POP 	EAX
 0000A1C6  50		     4			PUSH 	EAX
 0000A1C7  B8 00000020	     4				MOV 	EAX,	' '
 0000A1CC  E8 00000000 E     4				CALL 	WriteChar
 0000A1D1  58		     4			POP 	EAX
 0000A1D2  50		     4			PUSH 	EAX
 0000A1D3  B8 00000020	     4				MOV 	EAX,	' '
 0000A1D8  E8 00000000 E     4				CALL 	WriteChar
 0000A1DD  58		     4			POP 	EAX
 0000A1DE  50		     4			PUSH 	EAX
 0000A1DF  B8 00000020	     4				MOV 	EAX,	' '
 0000A1E4  E8 00000000 E     4				CALL 	WriteChar
 0000A1E9  58		     4			POP 	EAX
 0000A1FD  50		     4				PUSH 	EAX
 0000A1FE  B8 0000000C	     4					MOV 	EAX, LightRed
 0000A203  E8 00000000 E     4					CALL	SetTextColor
 0000A208  58		     4				POP 	EAX
 0000A209  50		     4			PUSH 	EAX
 0000A20A  B8 00000049	     4				MOV 	EAX,	'I'
 0000A20F  E8 00000000 E     4				CALL 	WriteChar
 0000A214  58		     4			POP 	EAX
 0000A215  50		     4			PUSH 	EAX
 0000A216  B8 00000049	     4				MOV 	EAX,	'I'
 0000A21B  E8 00000000 E     4				CALL 	WriteChar
 0000A220  58		     4			POP 	EAX
 0000A221  50		     4			PUSH 	EAX
 0000A222  B8 00000020	     4				MOV 	EAX,	' '
 0000A227  E8 00000000 E     4				CALL 	WriteChar
 0000A22C  58		     4			POP 	EAX
 0000A22D  50		     4			PUSH 	EAX
 0000A22E  B8 00000020	     4				MOV 	EAX,	' '
 0000A233  E8 00000000 E     4				CALL 	WriteChar
 0000A238  58		     4			POP 	EAX
 0000A24C  50		     4				PUSH 	EAX
 0000A24D  B8 00000002	     4					MOV 	EAX, Green
 0000A252  E8 00000000 E     4					CALL	SetTextColor
 0000A257  58		     4				POP 	EAX
 0000A258  50		     4			PUSH 	EAX
 0000A259  B8 00000049	     4				MOV 	EAX,	'I'
 0000A25E  E8 00000000 E     4				CALL 	WriteChar
 0000A263  58		     4			POP 	EAX
 0000A264  50		     4			PUSH 	EAX
 0000A265  B8 00000049	     4				MOV 	EAX,	'I'
 0000A26A  E8 00000000 E     4				CALL 	WriteChar
 0000A26F  58		     4			POP 	EAX
 0000A270  50		     4			PUSH 	EAX
 0000A271  B8 00000049	     4				MOV 	EAX,	'I'
 0000A276  E8 00000000 E     4				CALL 	WriteChar
 0000A27B  58		     4			POP 	EAX
 0000A27C  50		     4			PUSH 	EAX
 0000A27D  B8 00000020	     4				MOV 	EAX,	' '
 0000A282  E8 00000000 E     4				CALL 	WriteChar
 0000A287  58		     4			POP 	EAX
 0000A298  50		     4				PUSH 	EAX
 0000A299  B8 0000000A	     4					MOV 	EAX, LightGreen
 0000A29E  E8 00000000 E     4					CALL	SetTextColor
 0000A2A3  58		     4				POP 	EAX
 0000A2A4  50		     4			PUSH 	EAX
 0000A2A5  B8 00000049	     4				MOV 	EAX,	'I'
 0000A2AA  E8 00000000 E     4				CALL 	WriteChar
 0000A2AF  58		     4			POP 	EAX
 0000A2B0  50		     4			PUSH 	EAX
 0000A2B1  B8 00000049	     4				MOV 	EAX,	'I'
 0000A2B6  E8 00000000 E     4				CALL 	WriteChar
 0000A2BB  58		     4			POP 	EAX
 0000A2BC  50		     4			PUSH 	EAX
 0000A2BD  B8 00000049	     4				MOV 	EAX,	'I'
 0000A2C2  E8 00000000 E     4				CALL 	WriteChar
 0000A2C7  58		     4			POP 	EAX
 0000A2C8  50		     4			PUSH 	EAX
 0000A2C9  B8 00000049	     4				MOV 	EAX,	'I'
 0000A2CE  E8 00000000 E     4				CALL 	WriteChar
 0000A2D3  58		     4			POP 	EAX
 0000A2DD  50		     4				PUSH 	EAX
 0000A2DE  B8 00000007	     4					MOV 	EAX, 00000111b
 0000A2E3  E8 00000000 E     4					CALL	SetTextColor
 0000A2E8  58		     4				POP 	EAX
 0000A2E9  50		     4			PUSH 	EAX
 0000A2EA  B8 0000005D	     4				MOV 	EAX,	']'
 0000A2EF  E8 00000000 E     4				CALL 	WriteChar
 0000A2F4  58		     4			POP 	EAX
 0000A2F5  8A 15 00000000 R  4			MOV  	dl, LastPointX
 0000A2FB  8A 35 00000001 R  4			MOV  	dh, LastPointY
 0000A301  88 15 00000002 R  4			MOV 	CurrentPointX,	dl
 0000A307  88 35 00000003 R  4			MOV 	CurrentPointY,	dh
 0000A30D  E8 00000000 E     4			CALL 	Gotoxy 
 0000A312  61		     3			POPAD
 0000A313  61		     2			POPAD
 0000A314  60		     2			PUSHAD
 0000A315  B8 00000001	     2				MOV EAX, 1
 0000A31E  50		     3			PUSH EAX
 0000A31F  B8 00000005	     3				MOV EAX, 5
 0000A324  A3 00000DD1 R     3				MOV HPLineX, 	EAX
 0000A329  58		     3			POP EAX
 0000A32A  50		     3			PUSH EAX
 0000A32B  B8 0000000A	     3				MOV EAX, 10
 0000A330  A3 00000DD5 R     3				MOV HPLineY, 	EAX
 0000A335  58		     3			POP EAX
 0000A336  8B 1D 00000DC5 R  2					MOV EBX, UserCastleHP
 0000A33E  50		     3			PUSH EAX
 0000A33F  B8 00000069	     3				MOV EAX, 105
 0000A344  A3 00000DD1 R     3				MOV HPLineX, 	EAX
 0000A349  58		     3			POP EAX
 0000A34A  50		     3			PUSH EAX
 0000A34B  B8 0000000A	     3				MOV EAX, 10
 0000A350  A3 00000DD5 R     3				MOV HPLineY, 	EAX
 0000A355  58		     3			POP EAX
 0000A356  8B 1D 00000DC9 R  2					MOV EBX, CompCastleHP
 0000A368  60		     3			PUSHAD
 0000A369  8A 15 00000002 R  4			MOV  	dl, CurrentPointX
 0000A36F  8A 35 00000003 R  4			MOV  	dh, CurrentPointY
 0000A375  88 15 00000000 R  4			MOV		LastPointX,	dl
 0000A37B  88 35 00000001 R  4			MOV 	LastPointY,	dh
 0000A381  8A 15 00000DD1 R  4			MOV  	dl, BYTE PTR HPLineX
 0000A387  8A 35 00000DD5 R  4			MOV  	dh, BYTE PTR HPLineY
 0000A38D  88 15 00000002 R  4			MOV 	CurrentPointX,	dl
 0000A393  88 35 00000003 R  4			MOV 	CurrentPointY,	dh
 0000A399  E8 00000000 E     4			CALL 	Gotoxy  
 0000A39E  50		     4			PUSH 	EAX
 0000A39F  8B C3	     4				MOV 	EAX,	EBX
 0000A3A1  E8 00000000 E     4				CALL 	WriteDec
 0000A3A6  58		     4			POP 	EAX
 0000A3A7  50		     4			PUSH 	EAX
 0000A3A8  B8 0000005B	     4				MOV 	EAX,	'['
 0000A3AD  E8 00000000 E     4				CALL 	WriteChar
 0000A3B2  58		     4			POP 	EAX
 0000A3B3  B9 00000004	     3				MOV ECX, 4
 0000A3C6  50		     4				PUSH 	EAX
 0000A3C7  B8 00000004	     4					MOV 	EAX, Red
 0000A3CC  E8 00000000 E     4					CALL	SetTextColor
 0000A3D1  58		     4				POP 	EAX
 0000A3D2  50		     4			PUSH 	EAX
 0000A3D3  B8 00000049	     4				MOV 	EAX,	'I'
 0000A3D8  E8 00000000 E     4				CALL 	WriteChar
 0000A3DD  58		     4			POP 	EAX
 0000A3DE  50		     4			PUSH 	EAX
 0000A3DF  B8 00000020	     4				MOV 	EAX,	' '
 0000A3E4  E8 00000000 E     4				CALL 	WriteChar
 0000A3E9  58		     4			POP 	EAX
 0000A3EA  50		     4			PUSH 	EAX
 0000A3EB  B8 00000020	     4				MOV 	EAX,	' '
 0000A3F0  E8 00000000 E     4				CALL 	WriteChar
 0000A3F5  58		     4			POP 	EAX
 0000A3F6  50		     4			PUSH 	EAX
 0000A3F7  B8 00000020	     4				MOV 	EAX,	' '
 0000A3FC  E8 00000000 E     4				CALL 	WriteChar
 0000A401  58		     4			POP 	EAX
 0000A415  50		     4				PUSH 	EAX
 0000A416  B8 0000000C	     4					MOV 	EAX, LightRed
 0000A41B  E8 00000000 E     4					CALL	SetTextColor
 0000A420  58		     4				POP 	EAX
 0000A421  50		     4			PUSH 	EAX
 0000A422  B8 00000049	     4				MOV 	EAX,	'I'
 0000A427  E8 00000000 E     4				CALL 	WriteChar
 0000A42C  58		     4			POP 	EAX
 0000A42D  50		     4			PUSH 	EAX
 0000A42E  B8 00000049	     4				MOV 	EAX,	'I'
 0000A433  E8 00000000 E     4				CALL 	WriteChar
 0000A438  58		     4			POP 	EAX
 0000A439  50		     4			PUSH 	EAX
 0000A43A  B8 00000020	     4				MOV 	EAX,	' '
 0000A43F  E8 00000000 E     4				CALL 	WriteChar
 0000A444  58		     4			POP 	EAX
 0000A445  50		     4			PUSH 	EAX
 0000A446  B8 00000020	     4				MOV 	EAX,	' '
 0000A44B  E8 00000000 E     4				CALL 	WriteChar
 0000A450  58		     4			POP 	EAX
 0000A464  50		     4				PUSH 	EAX
 0000A465  B8 00000002	     4					MOV 	EAX, Green
 0000A46A  E8 00000000 E     4					CALL	SetTextColor
 0000A46F  58		     4				POP 	EAX
 0000A470  50		     4			PUSH 	EAX
 0000A471  B8 00000049	     4				MOV 	EAX,	'I'
 0000A476  E8 00000000 E     4				CALL 	WriteChar
 0000A47B  58		     4			POP 	EAX
 0000A47C  50		     4			PUSH 	EAX
 0000A47D  B8 00000049	     4				MOV 	EAX,	'I'
 0000A482  E8 00000000 E     4				CALL 	WriteChar
 0000A487  58		     4			POP 	EAX
 0000A488  50		     4			PUSH 	EAX
 0000A489  B8 00000049	     4				MOV 	EAX,	'I'
 0000A48E  E8 00000000 E     4				CALL 	WriteChar
 0000A493  58		     4			POP 	EAX
 0000A494  50		     4			PUSH 	EAX
 0000A495  B8 00000020	     4				MOV 	EAX,	' '
 0000A49A  E8 00000000 E     4				CALL 	WriteChar
 0000A49F  58		     4			POP 	EAX
 0000A4B0  50		     4				PUSH 	EAX
 0000A4B1  B8 0000000A	     4					MOV 	EAX, LightGreen
 0000A4B6  E8 00000000 E     4					CALL	SetTextColor
 0000A4BB  58		     4				POP 	EAX
 0000A4BC  50		     4			PUSH 	EAX
 0000A4BD  B8 00000049	     4				MOV 	EAX,	'I'
 0000A4C2  E8 00000000 E     4				CALL 	WriteChar
 0000A4C7  58		     4			POP 	EAX
 0000A4C8  50		     4			PUSH 	EAX
 0000A4C9  B8 00000049	     4				MOV 	EAX,	'I'
 0000A4CE  E8 00000000 E     4				CALL 	WriteChar
 0000A4D3  58		     4			POP 	EAX
 0000A4D4  50		     4			PUSH 	EAX
 0000A4D5  B8 00000049	     4				MOV 	EAX,	'I'
 0000A4DA  E8 00000000 E     4				CALL 	WriteChar
 0000A4DF  58		     4			POP 	EAX
 0000A4E0  50		     4			PUSH 	EAX
 0000A4E1  B8 00000049	     4				MOV 	EAX,	'I'
 0000A4E6  E8 00000000 E     4				CALL 	WriteChar
 0000A4EB  58		     4			POP 	EAX
 0000A4F5  50		     4				PUSH 	EAX
 0000A4F6  B8 00000007	     4					MOV 	EAX, 00000111b
 0000A4FB  E8 00000000 E     4					CALL	SetTextColor
 0000A500  58		     4				POP 	EAX
 0000A501  50		     4			PUSH 	EAX
 0000A502  B8 0000005D	     4				MOV 	EAX,	']'
 0000A507  E8 00000000 E     4				CALL 	WriteChar
 0000A50C  58		     4			POP 	EAX
 0000A50D  8A 15 00000000 R  4			MOV  	dl, LastPointX
 0000A513  8A 35 00000001 R  4			MOV  	dh, LastPointY
 0000A519  88 15 00000002 R  4			MOV 	CurrentPointX,	dl
 0000A51F  88 35 00000003 R  4			MOV 	CurrentPointY,	dh
 0000A525  E8 00000000 E     4			CALL 	Gotoxy 
 0000A52A  61		     3			POPAD

 0000A53C  60		     3			PUSHAD
 0000A53D  8A 15 00000002 R  4			MOV  	dl, CurrentPointX
 0000A543  8A 35 00000003 R  4			MOV  	dh, CurrentPointY
 0000A549  88 15 00000000 R  4			MOV		LastPointX,	dl
 0000A54F  88 35 00000001 R  4			MOV 	LastPointY,	dh
 0000A555  8A 15 00000DD1 R  4			MOV  	dl, BYTE PTR HPLineX
 0000A55B  8A 35 00000DD5 R  4			MOV  	dh, BYTE PTR HPLineY
 0000A561  88 15 00000002 R  4			MOV 	CurrentPointX,	dl
 0000A567  88 35 00000003 R  4			MOV 	CurrentPointY,	dh
 0000A56D  E8 00000000 E     4			CALL 	Gotoxy  
 0000A572  50		     4			PUSH 	EAX
 0000A573  8B C3	     4				MOV 	EAX,	EBX
 0000A575  E8 00000000 E     4				CALL 	WriteDec
 0000A57A  58		     4			POP 	EAX
 0000A57B  50		     4			PUSH 	EAX
 0000A57C  B8 0000005B	     4				MOV 	EAX,	'['
 0000A581  E8 00000000 E     4				CALL 	WriteChar
 0000A586  58		     4			POP 	EAX
 0000A587  B9 00000003	     3				MOV ECX, 3
 0000A59A  50		     4				PUSH 	EAX
 0000A59B  B8 00000004	     4					MOV 	EAX, Red
 0000A5A0  E8 00000000 E     4					CALL	SetTextColor
 0000A5A5  58		     4				POP 	EAX
 0000A5A6  50		     4			PUSH 	EAX
 0000A5A7  B8 00000049	     4				MOV 	EAX,	'I'
 0000A5AC  E8 00000000 E     4				CALL 	WriteChar
 0000A5B1  58		     4			POP 	EAX
 0000A5B2  50		     4			PUSH 	EAX
 0000A5B3  B8 00000020	     4				MOV 	EAX,	' '
 0000A5B8  E8 00000000 E     4				CALL 	WriteChar
 0000A5BD  58		     4			POP 	EAX
 0000A5BE  50		     4			PUSH 	EAX
 0000A5BF  B8 00000020	     4				MOV 	EAX,	' '
 0000A5C4  E8 00000000 E     4				CALL 	WriteChar
 0000A5C9  58		     4			POP 	EAX
 0000A5CA  50		     4			PUSH 	EAX
 0000A5CB  B8 00000020	     4				MOV 	EAX,	' '
 0000A5D0  E8 00000000 E     4				CALL 	WriteChar
 0000A5D5  58		     4			POP 	EAX
 0000A5E9  50		     4				PUSH 	EAX
 0000A5EA  B8 0000000C	     4					MOV 	EAX, LightRed
 0000A5EF  E8 00000000 E     4					CALL	SetTextColor
 0000A5F4  58		     4				POP 	EAX
 0000A5F5  50		     4			PUSH 	EAX
 0000A5F6  B8 00000049	     4				MOV 	EAX,	'I'
 0000A5FB  E8 00000000 E     4				CALL 	WriteChar
 0000A600  58		     4			POP 	EAX
 0000A601  50		     4			PUSH 	EAX
 0000A602  B8 00000049	     4				MOV 	EAX,	'I'
 0000A607  E8 00000000 E     4				CALL 	WriteChar
 0000A60C  58		     4			POP 	EAX
 0000A60D  50		     4			PUSH 	EAX
 0000A60E  B8 00000020	     4				MOV 	EAX,	' '
 0000A613  E8 00000000 E     4				CALL 	WriteChar
 0000A618  58		     4			POP 	EAX
 0000A619  50		     4			PUSH 	EAX
 0000A61A  B8 00000020	     4				MOV 	EAX,	' '
 0000A61F  E8 00000000 E     4				CALL 	WriteChar
 0000A624  58		     4			POP 	EAX
 0000A638  50		     4				PUSH 	EAX
 0000A639  B8 00000002	     4					MOV 	EAX, Green
 0000A63E  E8 00000000 E     4					CALL	SetTextColor
 0000A643  58		     4				POP 	EAX
 0000A644  50		     4			PUSH 	EAX
 0000A645  B8 00000049	     4				MOV 	EAX,	'I'
 0000A64A  E8 00000000 E     4				CALL 	WriteChar
 0000A64F  58		     4			POP 	EAX
 0000A650  50		     4			PUSH 	EAX
 0000A651  B8 00000049	     4				MOV 	EAX,	'I'
 0000A656  E8 00000000 E     4				CALL 	WriteChar
 0000A65B  58		     4			POP 	EAX
 0000A65C  50		     4			PUSH 	EAX
 0000A65D  B8 00000049	     4				MOV 	EAX,	'I'
 0000A662  E8 00000000 E     4				CALL 	WriteChar
 0000A667  58		     4			POP 	EAX
 0000A668  50		     4			PUSH 	EAX
 0000A669  B8 00000020	     4				MOV 	EAX,	' '
 0000A66E  E8 00000000 E     4				CALL 	WriteChar
 0000A673  58		     4			POP 	EAX
 0000A684  50		     4				PUSH 	EAX
 0000A685  B8 0000000A	     4					MOV 	EAX, LightGreen
 0000A68A  E8 00000000 E     4					CALL	SetTextColor
 0000A68F  58		     4				POP 	EAX
 0000A690  50		     4			PUSH 	EAX
 0000A691  B8 00000049	     4				MOV 	EAX,	'I'
 0000A696  E8 00000000 E     4				CALL 	WriteChar
 0000A69B  58		     4			POP 	EAX
 0000A69C  50		     4			PUSH 	EAX
 0000A69D  B8 00000049	     4				MOV 	EAX,	'I'
 0000A6A2  E8 00000000 E     4				CALL 	WriteChar
 0000A6A7  58		     4			POP 	EAX
 0000A6A8  50		     4			PUSH 	EAX
 0000A6A9  B8 00000049	     4				MOV 	EAX,	'I'
 0000A6AE  E8 00000000 E     4				CALL 	WriteChar
 0000A6B3  58		     4			POP 	EAX
 0000A6B4  50		     4			PUSH 	EAX
 0000A6B5  B8 00000049	     4				MOV 	EAX,	'I'
 0000A6BA  E8 00000000 E     4				CALL 	WriteChar
 0000A6BF  58		     4			POP 	EAX
 0000A6C9  50		     4				PUSH 	EAX
 0000A6CA  B8 00000007	     4					MOV 	EAX, 00000111b
 0000A6CF  E8 00000000 E     4					CALL	SetTextColor
 0000A6D4  58		     4				POP 	EAX
 0000A6D5  50		     4			PUSH 	EAX
 0000A6D6  B8 0000005D	     4				MOV 	EAX,	']'
 0000A6DB  E8 00000000 E     4				CALL 	WriteChar
 0000A6E0  58		     4			POP 	EAX
 0000A6E1  8A 15 00000000 R  4			MOV  	dl, LastPointX
 0000A6E7  8A 35 00000001 R  4			MOV  	dh, LastPointY
 0000A6ED  88 15 00000002 R  4			MOV 	CurrentPointX,	dl
 0000A6F3  88 35 00000003 R  4			MOV 	CurrentPointY,	dh
 0000A6F9  E8 00000000 E     4			CALL 	Gotoxy 
 0000A6FE  61		     3			POPAD
 0000A710  60		     3			PUSHAD
 0000A711  8A 15 00000002 R  4			MOV  	dl, CurrentPointX
 0000A717  8A 35 00000003 R  4			MOV  	dh, CurrentPointY
 0000A71D  88 15 00000000 R  4			MOV		LastPointX,	dl
 0000A723  88 35 00000001 R  4			MOV 	LastPointY,	dh
 0000A729  8A 15 00000DD1 R  4			MOV  	dl, BYTE PTR HPLineX
 0000A72F  8A 35 00000DD5 R  4			MOV  	dh, BYTE PTR HPLineY
 0000A735  88 15 00000002 R  4			MOV 	CurrentPointX,	dl
 0000A73B  88 35 00000003 R  4			MOV 	CurrentPointY,	dh
 0000A741  E8 00000000 E     4			CALL 	Gotoxy  
 0000A746  50		     4			PUSH 	EAX
 0000A747  8B C3	     4				MOV 	EAX,	EBX
 0000A749  E8 00000000 E     4				CALL 	WriteDec
 0000A74E  58		     4			POP 	EAX
 0000A74F  50		     4			PUSH 	EAX
 0000A750  B8 0000005B	     4				MOV 	EAX,	'['
 0000A755  E8 00000000 E     4				CALL 	WriteChar
 0000A75A  58		     4			POP 	EAX
 0000A75B  B9 00000002	     3				MOV ECX, 2
 0000A76E  50		     4				PUSH 	EAX
 0000A76F  B8 00000004	     4					MOV 	EAX, Red
 0000A774  E8 00000000 E     4					CALL	SetTextColor
 0000A779  58		     4				POP 	EAX
 0000A77A  50		     4			PUSH 	EAX
 0000A77B  B8 00000049	     4				MOV 	EAX,	'I'
 0000A780  E8 00000000 E     4				CALL 	WriteChar
 0000A785  58		     4			POP 	EAX
 0000A786  50		     4			PUSH 	EAX
 0000A787  B8 00000020	     4				MOV 	EAX,	' '
 0000A78C  E8 00000000 E     4				CALL 	WriteChar
 0000A791  58		     4			POP 	EAX
 0000A792  50		     4			PUSH 	EAX
 0000A793  B8 00000020	     4				MOV 	EAX,	' '
 0000A798  E8 00000000 E     4				CALL 	WriteChar
 0000A79D  58		     4			POP 	EAX
 0000A79E  50		     4			PUSH 	EAX
 0000A79F  B8 00000020	     4				MOV 	EAX,	' '
 0000A7A4  E8 00000000 E     4				CALL 	WriteChar
 0000A7A9  58		     4			POP 	EAX
 0000A7BD  50		     4				PUSH 	EAX
 0000A7BE  B8 0000000C	     4					MOV 	EAX, LightRed
 0000A7C3  E8 00000000 E     4					CALL	SetTextColor
 0000A7C8  58		     4				POP 	EAX
 0000A7C9  50		     4			PUSH 	EAX
 0000A7CA  B8 00000049	     4				MOV 	EAX,	'I'
 0000A7CF  E8 00000000 E     4				CALL 	WriteChar
 0000A7D4  58		     4			POP 	EAX
 0000A7D5  50		     4			PUSH 	EAX
 0000A7D6  B8 00000049	     4				MOV 	EAX,	'I'
 0000A7DB  E8 00000000 E     4				CALL 	WriteChar
 0000A7E0  58		     4			POP 	EAX
 0000A7E1  50		     4			PUSH 	EAX
 0000A7E2  B8 00000020	     4				MOV 	EAX,	' '
 0000A7E7  E8 00000000 E     4				CALL 	WriteChar
 0000A7EC  58		     4			POP 	EAX
 0000A7ED  50		     4			PUSH 	EAX
 0000A7EE  B8 00000020	     4				MOV 	EAX,	' '
 0000A7F3  E8 00000000 E     4				CALL 	WriteChar
 0000A7F8  58		     4			POP 	EAX
 0000A80C  50		     4				PUSH 	EAX
 0000A80D  B8 00000002	     4					MOV 	EAX, Green
 0000A812  E8 00000000 E     4					CALL	SetTextColor
 0000A817  58		     4				POP 	EAX
 0000A818  50		     4			PUSH 	EAX
 0000A819  B8 00000049	     4				MOV 	EAX,	'I'
 0000A81E  E8 00000000 E     4				CALL 	WriteChar
 0000A823  58		     4			POP 	EAX
 0000A824  50		     4			PUSH 	EAX
 0000A825  B8 00000049	     4				MOV 	EAX,	'I'
 0000A82A  E8 00000000 E     4				CALL 	WriteChar
 0000A82F  58		     4			POP 	EAX
 0000A830  50		     4			PUSH 	EAX
 0000A831  B8 00000049	     4				MOV 	EAX,	'I'
 0000A836  E8 00000000 E     4				CALL 	WriteChar
 0000A83B  58		     4			POP 	EAX
 0000A83C  50		     4			PUSH 	EAX
 0000A83D  B8 00000020	     4				MOV 	EAX,	' '
 0000A842  E8 00000000 E     4				CALL 	WriteChar
 0000A847  58		     4			POP 	EAX
 0000A858  50		     4				PUSH 	EAX
 0000A859  B8 0000000A	     4					MOV 	EAX, LightGreen
 0000A85E  E8 00000000 E     4					CALL	SetTextColor
 0000A863  58		     4				POP 	EAX
 0000A864  50		     4			PUSH 	EAX
 0000A865  B8 00000049	     4				MOV 	EAX,	'I'
 0000A86A  E8 00000000 E     4				CALL 	WriteChar
 0000A86F  58		     4			POP 	EAX
 0000A870  50		     4			PUSH 	EAX
 0000A871  B8 00000049	     4				MOV 	EAX,	'I'
 0000A876  E8 00000000 E     4				CALL 	WriteChar
 0000A87B  58		     4			POP 	EAX
 0000A87C  50		     4			PUSH 	EAX
 0000A87D  B8 00000049	     4				MOV 	EAX,	'I'
 0000A882  E8 00000000 E     4				CALL 	WriteChar
 0000A887  58		     4			POP 	EAX
 0000A888  50		     4			PUSH 	EAX
 0000A889  B8 00000049	     4				MOV 	EAX,	'I'
 0000A88E  E8 00000000 E     4				CALL 	WriteChar
 0000A893  58		     4			POP 	EAX
 0000A89D  50		     4				PUSH 	EAX
 0000A89E  B8 00000007	     4					MOV 	EAX, 00000111b
 0000A8A3  E8 00000000 E     4					CALL	SetTextColor
 0000A8A8  58		     4				POP 	EAX
 0000A8A9  50		     4			PUSH 	EAX
 0000A8AA  B8 0000005D	     4				MOV 	EAX,	']'
 0000A8AF  E8 00000000 E     4				CALL 	WriteChar
 0000A8B4  58		     4			POP 	EAX
 0000A8B5  8A 15 00000000 R  4			MOV  	dl, LastPointX
 0000A8BB  8A 35 00000001 R  4			MOV  	dh, LastPointY
 0000A8C1  88 15 00000002 R  4			MOV 	CurrentPointX,	dl
 0000A8C7  88 35 00000003 R  4			MOV 	CurrentPointY,	dh
 0000A8CD  E8 00000000 E     4			CALL 	Gotoxy 
 0000A8D2  61		     3			POPAD
 0000A8D8  60		     3			PUSHAD
 0000A8D9  8A 15 00000002 R  4			MOV  	dl, CurrentPointX
 0000A8DF  8A 35 00000003 R  4			MOV  	dh, CurrentPointY
 0000A8E5  88 15 00000000 R  4			MOV		LastPointX,	dl
 0000A8EB  88 35 00000001 R  4			MOV 	LastPointY,	dh
 0000A8F1  8A 15 00000DD1 R  4			MOV  	dl, BYTE PTR HPLineX
 0000A8F7  8A 35 00000DD5 R  4			MOV  	dh, BYTE PTR HPLineY
 0000A8FD  88 15 00000002 R  4			MOV 	CurrentPointX,	dl
 0000A903  88 35 00000003 R  4			MOV 	CurrentPointY,	dh
 0000A909  E8 00000000 E     4			CALL 	Gotoxy  
 0000A90E  50		     4			PUSH 	EAX
 0000A90F  8B C3	     4				MOV 	EAX,	EBX
 0000A911  E8 00000000 E     4				CALL 	WriteDec
 0000A916  58		     4			POP 	EAX
 0000A917  50		     4			PUSH 	EAX
 0000A918  B8 0000005B	     4				MOV 	EAX,	'['
 0000A91D  E8 00000000 E     4				CALL 	WriteChar
 0000A922  58		     4			POP 	EAX
 0000A923  B9 00000001	     3				MOV ECX, 1
 0000A936  50		     4				PUSH 	EAX
 0000A937  B8 00000004	     4					MOV 	EAX, Red
 0000A93C  E8 00000000 E     4					CALL	SetTextColor
 0000A941  58		     4				POP 	EAX
 0000A942  50		     4			PUSH 	EAX
 0000A943  B8 00000049	     4				MOV 	EAX,	'I'
 0000A948  E8 00000000 E     4				CALL 	WriteChar
 0000A94D  58		     4			POP 	EAX
 0000A94E  50		     4			PUSH 	EAX
 0000A94F  B8 00000020	     4				MOV 	EAX,	' '
 0000A954  E8 00000000 E     4				CALL 	WriteChar
 0000A959  58		     4			POP 	EAX
 0000A95A  50		     4			PUSH 	EAX
 0000A95B  B8 00000020	     4				MOV 	EAX,	' '
 0000A960  E8 00000000 E     4				CALL 	WriteChar
 0000A965  58		     4			POP 	EAX
 0000A966  50		     4			PUSH 	EAX
 0000A967  B8 00000020	     4				MOV 	EAX,	' '
 0000A96C  E8 00000000 E     4				CALL 	WriteChar
 0000A971  58		     4			POP 	EAX
 0000A985  50		     4				PUSH 	EAX
 0000A986  B8 0000000C	     4					MOV 	EAX, LightRed
 0000A98B  E8 00000000 E     4					CALL	SetTextColor
 0000A990  58		     4				POP 	EAX
 0000A991  50		     4			PUSH 	EAX
 0000A992  B8 00000049	     4				MOV 	EAX,	'I'
 0000A997  E8 00000000 E     4				CALL 	WriteChar
 0000A99C  58		     4			POP 	EAX
 0000A99D  50		     4			PUSH 	EAX
 0000A99E  B8 00000049	     4				MOV 	EAX,	'I'
 0000A9A3  E8 00000000 E     4				CALL 	WriteChar
 0000A9A8  58		     4			POP 	EAX
 0000A9A9  50		     4			PUSH 	EAX
 0000A9AA  B8 00000020	     4				MOV 	EAX,	' '
 0000A9AF  E8 00000000 E     4				CALL 	WriteChar
 0000A9B4  58		     4			POP 	EAX
 0000A9B5  50		     4			PUSH 	EAX
 0000A9B6  B8 00000020	     4				MOV 	EAX,	' '
 0000A9BB  E8 00000000 E     4				CALL 	WriteChar
 0000A9C0  58		     4			POP 	EAX
 0000A9D4  50		     4				PUSH 	EAX
 0000A9D5  B8 00000002	     4					MOV 	EAX, Green
 0000A9DA  E8 00000000 E     4					CALL	SetTextColor
 0000A9DF  58		     4				POP 	EAX
 0000A9E0  50		     4			PUSH 	EAX
 0000A9E1  B8 00000049	     4				MOV 	EAX,	'I'
 0000A9E6  E8 00000000 E     4				CALL 	WriteChar
 0000A9EB  58		     4			POP 	EAX
 0000A9EC  50		     4			PUSH 	EAX
 0000A9ED  B8 00000049	     4				MOV 	EAX,	'I'
 0000A9F2  E8 00000000 E     4				CALL 	WriteChar
 0000A9F7  58		     4			POP 	EAX
 0000A9F8  50		     4			PUSH 	EAX
 0000A9F9  B8 00000049	     4				MOV 	EAX,	'I'
 0000A9FE  E8 00000000 E     4				CALL 	WriteChar
 0000AA03  58		     4			POP 	EAX
 0000AA04  50		     4			PUSH 	EAX
 0000AA05  B8 00000020	     4				MOV 	EAX,	' '
 0000AA0A  E8 00000000 E     4				CALL 	WriteChar
 0000AA0F  58		     4			POP 	EAX
 0000AA20  50		     4				PUSH 	EAX
 0000AA21  B8 0000000A	     4					MOV 	EAX, LightGreen
 0000AA26  E8 00000000 E     4					CALL	SetTextColor
 0000AA2B  58		     4				POP 	EAX
 0000AA2C  50		     4			PUSH 	EAX
 0000AA2D  B8 00000049	     4				MOV 	EAX,	'I'
 0000AA32  E8 00000000 E     4				CALL 	WriteChar
 0000AA37  58		     4			POP 	EAX
 0000AA38  50		     4			PUSH 	EAX
 0000AA39  B8 00000049	     4				MOV 	EAX,	'I'
 0000AA3E  E8 00000000 E     4				CALL 	WriteChar
 0000AA43  58		     4			POP 	EAX
 0000AA44  50		     4			PUSH 	EAX
 0000AA45  B8 00000049	     4				MOV 	EAX,	'I'
 0000AA4A  E8 00000000 E     4				CALL 	WriteChar
 0000AA4F  58		     4			POP 	EAX
 0000AA50  50		     4			PUSH 	EAX
 0000AA51  B8 00000049	     4				MOV 	EAX,	'I'
 0000AA56  E8 00000000 E     4				CALL 	WriteChar
 0000AA5B  58		     4			POP 	EAX
 0000AA65  50		     4				PUSH 	EAX
 0000AA66  B8 00000007	     4					MOV 	EAX, 00000111b
 0000AA6B  E8 00000000 E     4					CALL	SetTextColor
 0000AA70  58		     4				POP 	EAX
 0000AA71  50		     4			PUSH 	EAX
 0000AA72  B8 0000005D	     4				MOV 	EAX,	']'
 0000AA77  E8 00000000 E     4				CALL 	WriteChar
 0000AA7C  58		     4			POP 	EAX
 0000AA7D  8A 15 00000000 R  4			MOV  	dl, LastPointX
 0000AA83  8A 35 00000001 R  4			MOV  	dh, LastPointY
 0000AA89  88 15 00000002 R  4			MOV 	CurrentPointX,	dl
 0000AA8F  88 35 00000003 R  4			MOV 	CurrentPointY,	dh
 0000AA95  E8 00000000 E     4			CALL 	Gotoxy 
 0000AA9A  61		     3			POPAD
 0000AA9B  61		     2			POPAD
 0000AA9C  8A 15 00000002 R  3			MOV  	dl, CurrentPointX
 0000AAA2  8A 35 00000003 R  3			MOV  	dh, CurrentPointY
 0000AAA8  88 15 00000000 R  3			MOV		LastPointX,	dl
 0000AAAE  88 35 00000001 R  3			MOV 	LastPointY,	dh
 0000AAB4  B2 3C	     3			MOV  	dl, BYTE PTR 60
 0000AAB6  B6 02	     3			MOV  	dh, BYTE PTR 2
 0000AAB8  88 15 00000002 R  3			MOV 	CurrentPointX,	dl
 0000AABE  88 35 00000003 R  3			MOV 	CurrentPointY,	dh
 0000AAC4  E8 00000000 E     3			CALL 	Gotoxy  
 0000AAD2  50		     3				PUSH 	EAX
 0000AAD3  B8 0000000E	     3					MOV 	EAX, Yellow
 0000AAD8  E8 00000000 E     3					CALL	SetTextColor
 0000AADD  58		     3				POP 	EAX
 0000AADE  50		     3			PUSH 	EAX
 0000AADF  B8 00000024	     3				MOV 	EAX,	'$'
 0000AAE4  E8 00000000 E     3				CALL 	WriteChar
 0000AAE9  58		     3			POP 	EAX
 0000AAEA  50		     3			PUSH 	EAX
 0000AAEB  A1 00000C47 R     3				MOV 	EAX,	UserMoney
 0000AAF0  E8 00000000 E     3				CALL 	WriteDec
 0000AAF5  58		     3			POP 	EAX
 0000AAFF  50		     3				PUSH 	EAX
 0000AB00  B8 00000007	     3					MOV 	EAX, 00000111b
 0000AB05  E8 00000000 E     3					CALL	SetTextColor
 0000AB0A  58		     3				POP 	EAX
 0000AB0B  8A 15 00000000 R  3			MOV  	dl, LastPointX
 0000AB11  8A 35 00000001 R  3			MOV  	dh, LastPointY
 0000AB17  88 15 00000002 R  3			MOV 	CurrentPointX,	dl
 0000AB1D  88 35 00000003 R  3			MOV 	CurrentPointY,	dh
 0000AB23  E8 00000000 E     3			CALL 	Gotoxy 
 0000AB28  E8 FFFF6F18	     1			DrawSoldiers
 0000AB50  50		     4				PUSH 	EAX
 0000AB51  B8 0000008F	     4					MOV 	EAX, Gray*16+White
 0000AB56  E8 00000000 E     4					CALL	SetTextColor
 0000AB5B  58		     4				POP 	EAX
 0000AB5C  8A 15 00000002 R  5			MOV  	dl, CurrentPointX
 0000AB62  8A 35 00000003 R  5			MOV  	dh, CurrentPointY
 0000AB68  88 15 00000000 R  5			MOV		LastPointX,	dl
 0000AB6E  88 35 00000001 R  5			MOV 	LastPointY,	dh
 0000AB74  B2 05	     5			MOV  	dl, BYTE PTR 5
 0000AB76  B6 16	     5			MOV  	dh, BYTE PTR 22
 0000AB78  88 15 00000002 R  5			MOV 	CurrentPointX,	dl
 0000AB7E  88 35 00000003 R  5			MOV 	CurrentPointY,	dh
 0000AB84  E8 00000000 E     5			CALL 	Gotoxy  
 0000AB89  52		     5				PUSH EDX
 0000AB8A  52		     6			PUSH EDX
 0000AB8B  51		     6			PUSH ECX
 0000AB8C  56		     6			PUSH ESI
 0000AB8D  BA 000002D7 R     6				MOV EDX, OFFSET KEY_A_1
 0000AB92  E8 00000000 E     6				CALL WriteString
 0000AB97  59		     6			POP ECX
 0000AB98  59		     6			POP ECX
 0000AB99  5E		     6			POP ESI
 0000AB9A  5A		     5				POP  EDX
 0000AB9B  FE C6	     5				INC  DH
 0000AB9D  E8 00000000 E     5				Call GoToXY
 0000ABA2  52		     5				PUSH EDX
 0000ABA3  52		     6			PUSH EDX
 0000ABA4  51		     6			PUSH ECX
 0000ABA5  56		     6			PUSH ESI
 0000ABA6  BA 000002DE R     6				MOV EDX, OFFSET KEY_A_2
 0000ABAB  E8 00000000 E     6				CALL WriteString
 0000ABB0  59		     6			POP ECX
 0000ABB1  59		     6			POP ECX
 0000ABB2  5E		     6			POP ESI
 0000ABB3  5A		     5				POP  EDX
 0000ABB4  FE C6	     5				INC  DH
 0000ABB6  E8 00000000 E     5				Call GoToXY
 0000ABBB  52		     5				PUSH EDX
 0000ABBC  52		     6			PUSH EDX
 0000ABBD  51		     6			PUSH ECX
 0000ABBE  56		     6			PUSH ESI
 0000ABBF  BA 000002E5 R     6				MOV EDX, OFFSET KEY_A_3
 0000ABC4  E8 00000000 E     6				CALL WriteString
 0000ABC9  59		     6			POP ECX
 0000ABCA  59		     6			POP ECX
 0000ABCB  5E		     6			POP ESI
 0000ABCC  5A		     5				POP  EDX
 0000ABCD  FE C6	     5				INC  DH
 0000ABCF  E8 00000000 E     5				Call GoToXY
 0000ABD4  52		     5				PUSH EDX
 0000ABD5  52		     6			PUSH EDX
 0000ABD6  51		     6			PUSH ECX
 0000ABD7  56		     6			PUSH ESI
 0000ABD8  BA 000002EC R     6				MOV EDX, OFFSET KEY_A_4
 0000ABDD  E8 00000000 E     6				CALL WriteString
 0000ABE2  59		     6			POP ECX
 0000ABE3  59		     6			POP ECX
 0000ABE4  5E		     6			POP ESI
 0000ABE5  5A		     5				POP  EDX
 0000ABE6  FE C6	     5				INC  DH
 0000ABE8  E8 00000000 E     5				Call GoToXY
 0000ABFA  50		     4				PUSH 	EAX
 0000ABFB  B8 00000007	     4					MOV 	EAX, 00000111b
 0000AC00  E8 00000000 E     4					CALL	SetTextColor
 0000AC05  58		     4				POP 	EAX
 0000AC14  50		     4				PUSH 	EAX
 0000AC15  B8 00000007	     4					MOV 	EAX, 00000111b
 0000AC1A  E8 00000000 E     4					CALL	SetTextColor
 0000AC1F  58		     4				POP 	EAX
 0000AC20  8A 15 00000002 R  5			MOV  	dl, CurrentPointX
 0000AC26  8A 35 00000003 R  5			MOV  	dh, CurrentPointY
 0000AC2C  88 15 00000000 R  5			MOV		LastPointX,	dl
 0000AC32  88 35 00000001 R  5			MOV 	LastPointY,	dh
 0000AC38  B2 05	     5			MOV  	dl, BYTE PTR 5
 0000AC3A  B6 16	     5			MOV  	dh, BYTE PTR 22
 0000AC3C  88 15 00000002 R  5			MOV 	CurrentPointX,	dl
 0000AC42  88 35 00000003 R  5			MOV 	CurrentPointY,	dh
 0000AC48  E8 00000000 E     5			CALL 	Gotoxy  
 0000AC4D  52		     5				PUSH EDX
 0000AC4E  52		     6			PUSH EDX
 0000AC4F  51		     6			PUSH ECX
 0000AC50  56		     6			PUSH ESI
 0000AC51  BA 000002D7 R     6				MOV EDX, OFFSET KEY_A_1
 0000AC56  E8 00000000 E     6				CALL WriteString
 0000AC5B  59		     6			POP ECX
 0000AC5C  59		     6			POP ECX
 0000AC5D  5E		     6			POP ESI
 0000AC5E  5A		     5				POP  EDX
 0000AC5F  FE C6	     5				INC  DH
 0000AC61  E8 00000000 E     5				Call GoToXY
 0000AC66  52		     5				PUSH EDX
 0000AC67  52		     6			PUSH EDX
 0000AC68  51		     6			PUSH ECX
 0000AC69  56		     6			PUSH ESI
 0000AC6A  BA 000002DE R     6				MOV EDX, OFFSET KEY_A_2
 0000AC6F  E8 00000000 E     6				CALL WriteString
 0000AC74  59		     6			POP ECX
 0000AC75  59		     6			POP ECX
 0000AC76  5E		     6			POP ESI
 0000AC77  5A		     5				POP  EDX
 0000AC78  FE C6	     5				INC  DH
 0000AC7A  E8 00000000 E     5				Call GoToXY
 0000AC7F  52		     5				PUSH EDX
 0000AC80  52		     6			PUSH EDX
 0000AC81  51		     6			PUSH ECX
 0000AC82  56		     6			PUSH ESI
 0000AC83  BA 000002E5 R     6				MOV EDX, OFFSET KEY_A_3
 0000AC88  E8 00000000 E     6				CALL WriteString
 0000AC8D  59		     6			POP ECX
 0000AC8E  59		     6			POP ECX
 0000AC8F  5E		     6			POP ESI
 0000AC90  5A		     5				POP  EDX
 0000AC91  FE C6	     5				INC  DH
 0000AC93  E8 00000000 E     5				Call GoToXY
 0000AC98  52		     5				PUSH EDX
 0000AC99  52		     6			PUSH EDX
 0000AC9A  51		     6			PUSH ECX
 0000AC9B  56		     6			PUSH ESI
 0000AC9C  BA 000002EC R     6				MOV EDX, OFFSET KEY_A_4
 0000ACA1  E8 00000000 E     6				CALL WriteString
 0000ACA6  59		     6			POP ECX
 0000ACA7  59		     6			POP ECX
 0000ACA8  5E		     6			POP ESI
 0000ACA9  5A		     5				POP  EDX
 0000ACAA  FE C6	     5				INC  DH
 0000ACAC  E8 00000000 E     5				Call GoToXY
 0000ACC7  50		     4				PUSH 	EAX
 0000ACC8  B8 0000008F	     4					MOV 	EAX, Gray*16+White
 0000ACCD  E8 00000000 E     4					CALL	SetTextColor
 0000ACD2  58		     4				POP 	EAX
 0000ACD3  8A 15 00000002 R  5			MOV  	dl, CurrentPointX
 0000ACD9  8A 35 00000003 R  5			MOV  	dh, CurrentPointY
 0000ACDF  88 15 00000000 R  5			MOV		LastPointX,	dl
 0000ACE5  88 35 00000001 R  5			MOV 	LastPointY,	dh
 0000ACEB  B2 0C	     5			MOV  	dl, BYTE PTR 12
 0000ACED  B6 16	     5			MOV  	dh, BYTE PTR 22
 0000ACEF  88 15 00000002 R  5			MOV 	CurrentPointX,	dl
 0000ACF5  88 35 00000003 R  5			MOV 	CurrentPointY,	dh
 0000ACFB  E8 00000000 E     5			CALL 	Gotoxy  
 0000AD00  52		     5				PUSH EDX
 0000AD01  52		     6			PUSH EDX
 0000AD02  51		     6			PUSH ECX
 0000AD03  56		     6			PUSH ESI
 0000AD04  BA 000002F3 R     6				MOV EDX, OFFSET KEY_B_1
 0000AD09  E8 00000000 E     6				CALL WriteString
 0000AD0E  59		     6			POP ECX
 0000AD0F  59		     6			POP ECX
 0000AD10  5E		     6			POP ESI
 0000AD11  5A		     5				POP  EDX
 0000AD12  FE C6	     5				INC  DH
 0000AD14  E8 00000000 E     5				Call GoToXY
 0000AD19  52		     5				PUSH EDX
 0000AD1A  52		     6			PUSH EDX
 0000AD1B  51		     6			PUSH ECX
 0000AD1C  56		     6			PUSH ESI
 0000AD1D  BA 000002FA R     6				MOV EDX, OFFSET KEY_B_2
 0000AD22  E8 00000000 E     6				CALL WriteString
 0000AD27  59		     6			POP ECX
 0000AD28  59		     6			POP ECX
 0000AD29  5E		     6			POP ESI
 0000AD2A  5A		     5				POP  EDX
 0000AD2B  FE C6	     5				INC  DH
 0000AD2D  E8 00000000 E     5				Call GoToXY
 0000AD32  52		     5				PUSH EDX
 0000AD33  52		     6			PUSH EDX
 0000AD34  51		     6			PUSH ECX
 0000AD35  56		     6			PUSH ESI
 0000AD36  BA 00000301 R     6				MOV EDX, OFFSET KEY_B_3
 0000AD3B  E8 00000000 E     6				CALL WriteString
 0000AD40  59		     6			POP ECX
 0000AD41  59		     6			POP ECX
 0000AD42  5E		     6			POP ESI
 0000AD43  5A		     5				POP  EDX
 0000AD44  FE C6	     5				INC  DH
 0000AD46  E8 00000000 E     5				Call GoToXY
 0000AD4B  52		     5				PUSH EDX
 0000AD4C  52		     6			PUSH EDX
 0000AD4D  51		     6			PUSH ECX
 0000AD4E  56		     6			PUSH ESI
 0000AD4F  BA 00000308 R     6				MOV EDX, OFFSET KEY_B_4
 0000AD54  E8 00000000 E     6				CALL WriteString
 0000AD59  59		     6			POP ECX
 0000AD5A  59		     6			POP ECX
 0000AD5B  5E		     6			POP ESI
 0000AD5C  5A		     5				POP  EDX
 0000AD5D  FE C6	     5				INC  DH
 0000AD5F  E8 00000000 E     5				Call GoToXY
 0000AD71  50		     4				PUSH 	EAX
 0000AD72  B8 00000007	     4					MOV 	EAX, 00000111b
 0000AD77  E8 00000000 E     4					CALL	SetTextColor
 0000AD7C  58		     4				POP 	EAX
 0000AD8B  50		     4				PUSH 	EAX
 0000AD8C  B8 00000007	     4					MOV 	EAX, 00000111b
 0000AD91  E8 00000000 E     4					CALL	SetTextColor
 0000AD96  58		     4				POP 	EAX
 0000AD97  8A 15 00000002 R  5			MOV  	dl, CurrentPointX
 0000AD9D  8A 35 00000003 R  5			MOV  	dh, CurrentPointY
 0000ADA3  88 15 00000000 R  5			MOV		LastPointX,	dl
 0000ADA9  88 35 00000001 R  5			MOV 	LastPointY,	dh
 0000ADAF  B2 0C	     5			MOV  	dl, BYTE PTR 12
 0000ADB1  B6 16	     5			MOV  	dh, BYTE PTR 22
 0000ADB3  88 15 00000002 R  5			MOV 	CurrentPointX,	dl
 0000ADB9  88 35 00000003 R  5			MOV 	CurrentPointY,	dh
 0000ADBF  E8 00000000 E     5			CALL 	Gotoxy  
 0000ADC4  52		     5				PUSH EDX
 0000ADC5  52		     6			PUSH EDX
 0000ADC6  51		     6			PUSH ECX
 0000ADC7  56		     6			PUSH ESI
 0000ADC8  BA 000002F3 R     6				MOV EDX, OFFSET KEY_B_1
 0000ADCD  E8 00000000 E     6				CALL WriteString
 0000ADD2  59		     6			POP ECX
 0000ADD3  59		     6			POP ECX
 0000ADD4  5E		     6			POP ESI
 0000ADD5  5A		     5				POP  EDX
 0000ADD6  FE C6	     5				INC  DH
 0000ADD8  E8 00000000 E     5				Call GoToXY
 0000ADDD  52		     5				PUSH EDX
 0000ADDE  52		     6			PUSH EDX
 0000ADDF  51		     6			PUSH ECX
 0000ADE0  56		     6			PUSH ESI
 0000ADE1  BA 000002FA R     6				MOV EDX, OFFSET KEY_B_2
 0000ADE6  E8 00000000 E     6				CALL WriteString
 0000ADEB  59		     6			POP ECX
 0000ADEC  59		     6			POP ECX
 0000ADED  5E		     6			POP ESI
 0000ADEE  5A		     5				POP  EDX
 0000ADEF  FE C6	     5				INC  DH
 0000ADF1  E8 00000000 E     5				Call GoToXY
 0000ADF6  52		     5				PUSH EDX
 0000ADF7  52		     6			PUSH EDX
 0000ADF8  51		     6			PUSH ECX
 0000ADF9  56		     6			PUSH ESI
 0000ADFA  BA 00000301 R     6				MOV EDX, OFFSET KEY_B_3
 0000ADFF  E8 00000000 E     6				CALL WriteString
 0000AE04  59		     6			POP ECX
 0000AE05  59		     6			POP ECX
 0000AE06  5E		     6			POP ESI
 0000AE07  5A		     5				POP  EDX
 0000AE08  FE C6	     5				INC  DH
 0000AE0A  E8 00000000 E     5				Call GoToXY
 0000AE0F  52		     5				PUSH EDX
 0000AE10  52		     6			PUSH EDX
 0000AE11  51		     6			PUSH ECX
 0000AE12  56		     6			PUSH ESI
 0000AE13  BA 00000308 R     6				MOV EDX, OFFSET KEY_B_4
 0000AE18  E8 00000000 E     6				CALL WriteString
 0000AE1D  59		     6			POP ECX
 0000AE1E  59		     6			POP ECX
 0000AE1F  5E		     6			POP ESI
 0000AE20  5A		     5				POP  EDX
 0000AE21  FE C6	     5				INC  DH
 0000AE23  E8 00000000 E     5				Call GoToXY
 0000AE3E  50		     4				PUSH 	EAX
 0000AE3F  B8 0000008F	     4					MOV 	EAX, Gray*16+White
 0000AE44  E8 00000000 E     4					CALL	SetTextColor
 0000AE49  58		     4				POP 	EAX
 0000AE4A  8A 15 00000002 R  5			MOV  	dl, CurrentPointX
 0000AE50  8A 35 00000003 R  5			MOV  	dh, CurrentPointY
 0000AE56  88 15 00000000 R  5			MOV		LastPointX,	dl
 0000AE5C  88 35 00000001 R  5			MOV 	LastPointY,	dh
 0000AE62  B2 13	     5			MOV  	dl, BYTE PTR 19
 0000AE64  B6 16	     5			MOV  	dh, BYTE PTR 22
 0000AE66  88 15 00000002 R  5			MOV 	CurrentPointX,	dl
 0000AE6C  88 35 00000003 R  5			MOV 	CurrentPointY,	dh
 0000AE72  E8 00000000 E     5			CALL 	Gotoxy  
 0000AE77  52		     5				PUSH EDX
 0000AE78  52		     6			PUSH EDX
 0000AE79  51		     6			PUSH ECX
 0000AE7A  56		     6			PUSH ESI
 0000AE7B  BA 0000030F R     6				MOV EDX, OFFSET KEY_C_1
 0000AE80  E8 00000000 E     6				CALL WriteString
 0000AE85  59		     6			POP ECX
 0000AE86  59		     6			POP ECX
 0000AE87  5E		     6			POP ESI
 0000AE88  5A		     5				POP  EDX
 0000AE89  FE C6	     5				INC  DH
 0000AE8B  E8 00000000 E     5				Call GoToXY
 0000AE90  52		     5				PUSH EDX
 0000AE91  52		     6			PUSH EDX
 0000AE92  51		     6			PUSH ECX
 0000AE93  56		     6			PUSH ESI
 0000AE94  BA 00000316 R     6				MOV EDX, OFFSET KEY_C_2
 0000AE99  E8 00000000 E     6				CALL WriteString
 0000AE9E  59		     6			POP ECX
 0000AE9F  59		     6			POP ECX
 0000AEA0  5E		     6			POP ESI
 0000AEA1  5A		     5				POP  EDX
 0000AEA2  FE C6	     5				INC  DH
 0000AEA4  E8 00000000 E     5				Call GoToXY
 0000AEA9  52		     5				PUSH EDX
 0000AEAA  52		     6			PUSH EDX
 0000AEAB  51		     6			PUSH ECX
 0000AEAC  56		     6			PUSH ESI
 0000AEAD  BA 0000031D R     6				MOV EDX, OFFSET KEY_C_3
 0000AEB2  E8 00000000 E     6				CALL WriteString
 0000AEB7  59		     6			POP ECX
 0000AEB8  59		     6			POP ECX
 0000AEB9  5E		     6			POP ESI
 0000AEBA  5A		     5				POP  EDX
 0000AEBB  FE C6	     5				INC  DH
 0000AEBD  E8 00000000 E     5				Call GoToXY
 0000AEC2  52		     5				PUSH EDX
 0000AEC3  52		     6			PUSH EDX
 0000AEC4  51		     6			PUSH ECX
 0000AEC5  56		     6			PUSH ESI
 0000AEC6  BA 00000324 R     6				MOV EDX, OFFSET KEY_C_4
 0000AECB  E8 00000000 E     6				CALL WriteString
 0000AED0  59		     6			POP ECX
 0000AED1  59		     6			POP ECX
 0000AED2  5E		     6			POP ESI
 0000AED3  5A		     5				POP  EDX
 0000AED4  FE C6	     5				INC  DH
 0000AED6  E8 00000000 E     5				Call GoToXY
 0000AEE8  50		     4				PUSH 	EAX
 0000AEE9  B8 00000007	     4					MOV 	EAX, 00000111b
 0000AEEE  E8 00000000 E     4					CALL	SetTextColor
 0000AEF3  58		     4				POP 	EAX
 0000AF02  50		     4				PUSH 	EAX
 0000AF03  B8 00000007	     4					MOV 	EAX, 00000111b
 0000AF08  E8 00000000 E     4					CALL	SetTextColor
 0000AF0D  58		     4				POP 	EAX
 0000AF0E  8A 15 00000002 R  5			MOV  	dl, CurrentPointX
 0000AF14  8A 35 00000003 R  5			MOV  	dh, CurrentPointY
 0000AF1A  88 15 00000000 R  5			MOV		LastPointX,	dl
 0000AF20  88 35 00000001 R  5			MOV 	LastPointY,	dh
 0000AF26  B2 13	     5			MOV  	dl, BYTE PTR 19
 0000AF28  B6 16	     5			MOV  	dh, BYTE PTR 22
 0000AF2A  88 15 00000002 R  5			MOV 	CurrentPointX,	dl
 0000AF30  88 35 00000003 R  5			MOV 	CurrentPointY,	dh
 0000AF36  E8 00000000 E     5			CALL 	Gotoxy  
 0000AF3B  52		     5				PUSH EDX
 0000AF3C  52		     6			PUSH EDX
 0000AF3D  51		     6			PUSH ECX
 0000AF3E  56		     6			PUSH ESI
 0000AF3F  BA 0000030F R     6				MOV EDX, OFFSET KEY_C_1
 0000AF44  E8 00000000 E     6				CALL WriteString
 0000AF49  59		     6			POP ECX
 0000AF4A  59		     6			POP ECX
 0000AF4B  5E		     6			POP ESI
 0000AF4C  5A		     5				POP  EDX
 0000AF4D  FE C6	     5				INC  DH
 0000AF4F  E8 00000000 E     5				Call GoToXY
 0000AF54  52		     5				PUSH EDX
 0000AF55  52		     6			PUSH EDX
 0000AF56  51		     6			PUSH ECX
 0000AF57  56		     6			PUSH ESI
 0000AF58  BA 00000316 R     6				MOV EDX, OFFSET KEY_C_2
 0000AF5D  E8 00000000 E     6				CALL WriteString
 0000AF62  59		     6			POP ECX
 0000AF63  59		     6			POP ECX
 0000AF64  5E		     6			POP ESI
 0000AF65  5A		     5				POP  EDX
 0000AF66  FE C6	     5				INC  DH
 0000AF68  E8 00000000 E     5				Call GoToXY
 0000AF6D  52		     5				PUSH EDX
 0000AF6E  52		     6			PUSH EDX
 0000AF6F  51		     6			PUSH ECX
 0000AF70  56		     6			PUSH ESI
 0000AF71  BA 0000031D R     6				MOV EDX, OFFSET KEY_C_3
 0000AF76  E8 00000000 E     6				CALL WriteString
 0000AF7B  59		     6			POP ECX
 0000AF7C  59		     6			POP ECX
 0000AF7D  5E		     6			POP ESI
 0000AF7E  5A		     5				POP  EDX
 0000AF7F  FE C6	     5				INC  DH
 0000AF81  E8 00000000 E     5				Call GoToXY
 0000AF86  52		     5				PUSH EDX
 0000AF87  52		     6			PUSH EDX
 0000AF88  51		     6			PUSH ECX
 0000AF89  56		     6			PUSH ESI
 0000AF8A  BA 00000324 R     6				MOV EDX, OFFSET KEY_C_4
 0000AF8F  E8 00000000 E     6				CALL WriteString
 0000AF94  59		     6			POP ECX
 0000AF95  59		     6			POP ECX
 0000AF96  5E		     6			POP ESI
 0000AF97  5A		     5				POP  EDX
 0000AF98  FE C6	     5				INC  DH
 0000AF9A  E8 00000000 E     5				Call GoToXY
 0000AFC5  50		     4				PUSH 	EAX
 0000AFC6  B8 00000007	     4					MOV 	EAX, 00000111b
 0000AFCB  E8 00000000 E     4					CALL	SetTextColor
 0000AFD0  58		     4				POP 	EAX
 0000AFD1  8A 15 00000002 R  5			MOV  	dl, CurrentPointX
 0000AFD7  8A 35 00000003 R  5			MOV  	dh, CurrentPointY
 0000AFDD  88 15 00000000 R  5			MOV		LastPointX,	dl
 0000AFE3  88 35 00000001 R  5			MOV 	LastPointY,	dh
 0000AFE9  B2 1D	     5			MOV  	dl, BYTE PTR 29
 0000AFEB  B6 18	     5			MOV  	dh, BYTE PTR 24
 0000AFED  88 15 00000002 R  5			MOV 	CurrentPointX,	dl
 0000AFF3  88 35 00000003 R  5			MOV 	CurrentPointY,	dh
 0000AFF9  E8 00000000 E     5			CALL 	Gotoxy  
 0000AFFE  52		     5				PUSH EDX
 0000AFFF  52		     6			PUSH EDX
 0000B000  51		     6			PUSH ECX
 0000B001  56		     6			PUSH ESI
 0000B002  BA 0000032B R     6				MOV EDX, OFFSET KEY_Z_1
 0000B007  E8 00000000 E     6				CALL WriteString
 0000B00C  59		     6			POP ECX
 0000B00D  59		     6			POP ECX
 0000B00E  5E		     6			POP ESI
 0000B00F  5A		     5				POP  EDX
 0000B010  FE C6	     5				INC  DH
 0000B012  E8 00000000 E     5				Call GoToXY
 0000B017  52		     5				PUSH EDX
 0000B018  52		     6			PUSH EDX
 0000B019  51		     6			PUSH ECX
 0000B01A  56		     6			PUSH ESI
 0000B01B  BA 00000332 R     6				MOV EDX, OFFSET KEY_Z_2
 0000B020  E8 00000000 E     6				CALL WriteString
 0000B025  59		     6			POP ECX
 0000B026  59		     6			POP ECX
 0000B027  5E		     6			POP ESI
 0000B028  5A		     5				POP  EDX
 0000B029  FE C6	     5				INC  DH
 0000B02B  E8 00000000 E     5				Call GoToXY
 0000B030  52		     5				PUSH EDX
 0000B031  52		     6			PUSH EDX
 0000B032  51		     6			PUSH ECX
 0000B033  56		     6			PUSH ESI
 0000B034  BA 00000341 R     6				MOV EDX, OFFSET KEY_Z_3
 0000B039  E8 00000000 E     6				CALL WriteString
 0000B03E  59		     6			POP ECX
 0000B03F  59		     6			POP ECX
 0000B040  5E		     6			POP ESI
 0000B041  5A		     5				POP  EDX
 0000B042  FE C6	     5				INC  DH
 0000B044  E8 00000000 E     5				Call GoToXY
 0000B052  52		     5				PUSH EDX
 0000B053  52		     6			PUSH EDX
 0000B054  51		     6			PUSH ECX
 0000B055  56		     6			PUSH ESI
 0000B056  BA 00000348 R     6				MOV EDX, OFFSET KEY_Z_M_1
 0000B05B  E8 00000000 E     6				CALL WriteString
 0000B060  59		     6			POP ECX
 0000B061  59		     6			POP ECX
 0000B062  5E		     6			POP ESI
 0000B063  5A		     5				POP  EDX
 0000B064  FE C6	     5				INC  DH
 0000B066  E8 00000000 E     5				Call GoToXY
 0000B079  52		     5				PUSH EDX
 0000B07A  52		     6			PUSH EDX
 0000B07B  51		     6			PUSH ECX
 0000B07C  56		     6			PUSH ESI
 0000B07D  BA 0000034E R     6				MOV EDX, OFFSET KEY_Z_M_2
 0000B082  E8 00000000 E     6				CALL WriteString
 0000B087  59		     6			POP ECX
 0000B088  59		     6			POP ECX
 0000B089  5E		     6			POP ESI
 0000B08A  5A		     5				POP  EDX
 0000B08B  FE C6	     5				INC  DH
 0000B08D  E8 00000000 E     5				Call GoToXY
 0000B0A4  52		     5				PUSH EDX
 0000B0A5  52		     6			PUSH EDX
 0000B0A6  51		     6			PUSH ECX
 0000B0A7  56		     6			PUSH ESI
 0000B0A8  BA 00000354 R     6				MOV EDX, OFFSET KEY_Z_M_3
 0000B0AD  E8 00000000 E     6				CALL WriteString
 0000B0B2  59		     6			POP ECX
 0000B0B3  59		     6			POP ECX
 0000B0B4  5E		     6			POP ESI
 0000B0B5  5A		     5				POP  EDX
 0000B0B6  FE C6	     5				INC  DH
 0000B0B8  E8 00000000 E     5				Call GoToXY
 0000B0CB  50		     4				PUSH 	EAX
 0000B0CC  B8 00000008	     4					MOV 	EAX, Gray
 0000B0D1  E8 00000000 E     4					CALL	SetTextColor
 0000B0D6  58		     4				POP 	EAX
 0000B0D7  8A 15 00000002 R  5			MOV  	dl, CurrentPointX
 0000B0DD  8A 35 00000003 R  5			MOV  	dh, CurrentPointY
 0000B0E3  88 15 00000000 R  5			MOV		LastPointX,	dl
 0000B0E9  88 35 00000001 R  5			MOV 	LastPointY,	dh
 0000B0EF  B2 1D	     5			MOV  	dl, BYTE PTR 29
 0000B0F1  B6 18	     5			MOV  	dh, BYTE PTR 24
 0000B0F3  88 15 00000002 R  5			MOV 	CurrentPointX,	dl
 0000B0F9  88 35 00000003 R  5			MOV 	CurrentPointY,	dh
 0000B0FF  E8 00000000 E     5			CALL 	Gotoxy  
 0000B104  52		     5				PUSH EDX
 0000B105  52		     6			PUSH EDX
 0000B106  51		     6			PUSH ECX
 0000B107  56		     6			PUSH ESI
 0000B108  BA 0000032B R     6				MOV EDX, OFFSET KEY_Z_1
 0000B10D  E8 00000000 E     6				CALL WriteString
 0000B112  59		     6			POP ECX
 0000B113  59		     6			POP ECX
 0000B114  5E		     6			POP ESI
 0000B115  5A		     5				POP  EDX
 0000B116  FE C6	     5				INC  DH
 0000B118  E8 00000000 E     5				Call GoToXY
 0000B11D  52		     5				PUSH EDX
 0000B11E  52		     6			PUSH EDX
 0000B11F  51		     6			PUSH ECX
 0000B120  56		     6			PUSH ESI
 0000B121  BA 00000332 R     6				MOV EDX, OFFSET KEY_Z_2
 0000B126  E8 00000000 E     6				CALL WriteString
 0000B12B  59		     6			POP ECX
 0000B12C  59		     6			POP ECX
 0000B12D  5E		     6			POP ESI
 0000B12E  5A		     5				POP  EDX
 0000B12F  FE C6	     5				INC  DH
 0000B131  E8 00000000 E     5				Call GoToXY
 0000B136  52		     5				PUSH EDX
 0000B137  52		     6			PUSH EDX
 0000B138  51		     6			PUSH ECX
 0000B139  56		     6			PUSH ESI
 0000B13A  BA 00000341 R     6				MOV EDX, OFFSET KEY_Z_3
 0000B13F  E8 00000000 E     6				CALL WriteString
 0000B144  59		     6			POP ECX
 0000B145  59		     6			POP ECX
 0000B146  5E		     6			POP ESI
 0000B147  5A		     5				POP  EDX
 0000B148  FE C6	     5				INC  DH
 0000B14A  E8 00000000 E     5				Call GoToXY
 0000B158  52		     5				PUSH EDX
 0000B159  52		     6			PUSH EDX
 0000B15A  51		     6			PUSH ECX
 0000B15B  56		     6			PUSH ESI
 0000B15C  BA 00000348 R     6				MOV EDX, OFFSET KEY_Z_M_1
 0000B161  E8 00000000 E     6				CALL WriteString
 0000B166  59		     6			POP ECX
 0000B167  59		     6			POP ECX
 0000B168  5E		     6			POP ESI
 0000B169  5A		     5				POP  EDX
 0000B16A  FE C6	     5				INC  DH
 0000B16C  E8 00000000 E     5				Call GoToXY
 0000B17C  52		     5				PUSH EDX
 0000B17D  52		     6			PUSH EDX
 0000B17E  51		     6			PUSH ECX
 0000B17F  56		     6			PUSH ESI
 0000B180  BA 0000034E R     6				MOV EDX, OFFSET KEY_Z_M_2
 0000B185  E8 00000000 E     6				CALL WriteString
 0000B18A  59		     6			POP ECX
 0000B18B  59		     6			POP ECX
 0000B18C  5E		     6			POP ESI
 0000B18D  5A		     5				POP  EDX
 0000B18E  FE C6	     5				INC  DH
 0000B190  E8 00000000 E     5				Call GoToXY
 0000B1A0  52		     5				PUSH EDX
 0000B1A1  52		     6			PUSH EDX
 0000B1A2  51		     6			PUSH ECX
 0000B1A3  56		     6			PUSH ESI
 0000B1A4  BA 00000354 R     6				MOV EDX, OFFSET KEY_Z_M_3
 0000B1A9  E8 00000000 E     6				CALL WriteString
 0000B1AE  59		     6			POP ECX
 0000B1AF  59		     6			POP ECX
 0000B1B0  5E		     6			POP ESI
 0000B1B1  5A		     5				POP  EDX
 0000B1B2  FE C6	     5				INC  DH
 0000B1B4  E8 00000000 E     5				Call GoToXY
 0000B1C2  50		     4				PUSH 	EAX
 0000B1C3  B8 00000007	     4					MOV 	EAX, 00000111b
 0000B1C8  E8 00000000 E     4					CALL	SetTextColor
 0000B1CD  58		     4				POP 	EAX
 0000B1F9  50		     4				PUSH 	EAX
 0000B1FA  B8 00000007	     4					MOV 	EAX, 00000111b
 0000B1FF  E8 00000000 E     4					CALL	SetTextColor
 0000B204  58		     4				POP 	EAX
 0000B205  8A 15 00000002 R  5			MOV  	dl, CurrentPointX
 0000B20B  8A 35 00000003 R  5			MOV  	dh, CurrentPointY
 0000B211  88 15 00000000 R  5			MOV		LastPointX,	dl
 0000B217  88 35 00000001 R  5			MOV 	LastPointY,	dh
 0000B21D  B2 1D	     5			MOV  	dl, BYTE PTR 29
 0000B21F  B6 18	     5			MOV  	dh, BYTE PTR 24
 0000B221  88 15 00000002 R  5			MOV 	CurrentPointX,	dl
 0000B227  88 35 00000003 R  5			MOV 	CurrentPointY,	dh
 0000B22D  E8 00000000 E     5			CALL 	Gotoxy  
 0000B232  52		     5				PUSH EDX
 0000B233  52		     6			PUSH EDX
 0000B234  51		     6			PUSH ECX
 0000B235  56		     6			PUSH ESI
 0000B236  BA 0000032B R     6				MOV EDX, OFFSET KEY_Z_1
 0000B23B  E8 00000000 E     6				CALL WriteString
 0000B240  59		     6			POP ECX
 0000B241  59		     6			POP ECX
 0000B242  5E		     6			POP ESI
 0000B243  5A		     5				POP  EDX
 0000B244  FE C6	     5				INC  DH
 0000B246  E8 00000000 E     5				Call GoToXY
 0000B24B  52		     5				PUSH EDX
 0000B24C  52		     6			PUSH EDX
 0000B24D  51		     6			PUSH ECX
 0000B24E  56		     6			PUSH ESI
 0000B24F  BA 00000332 R     6				MOV EDX, OFFSET KEY_Z_2
 0000B254  E8 00000000 E     6				CALL WriteString
 0000B259  59		     6			POP ECX
 0000B25A  59		     6			POP ECX
 0000B25B  5E		     6			POP ESI
 0000B25C  5A		     5				POP  EDX
 0000B25D  FE C6	     5				INC  DH
 0000B25F  E8 00000000 E     5				Call GoToXY
 0000B264  52		     5				PUSH EDX
 0000B265  52		     6			PUSH EDX
 0000B266  51		     6			PUSH ECX
 0000B267  56		     6			PUSH ESI
 0000B268  BA 00000341 R     6				MOV EDX, OFFSET KEY_Z_3
 0000B26D  E8 00000000 E     6				CALL WriteString
 0000B272  59		     6			POP ECX
 0000B273  59		     6			POP ECX
 0000B274  5E		     6			POP ESI
 0000B275  5A		     5				POP  EDX
 0000B276  FE C6	     5				INC  DH
 0000B278  E8 00000000 E     5				Call GoToXY
 0000B286  52		     5				PUSH EDX
 0000B287  52		     6			PUSH EDX
 0000B288  51		     6			PUSH ECX
 0000B289  56		     6			PUSH ESI
 0000B28A  BA 00000348 R     6				MOV EDX, OFFSET KEY_Z_M_1
 0000B28F  E8 00000000 E     6				CALL WriteString
 0000B294  59		     6			POP ECX
 0000B295  59		     6			POP ECX
 0000B296  5E		     6			POP ESI
 0000B297  5A		     5				POP  EDX
 0000B298  FE C6	     5				INC  DH
 0000B29A  E8 00000000 E     5				Call GoToXY
 0000B2AD  52		     5				PUSH EDX
 0000B2AE  52		     6			PUSH EDX
 0000B2AF  51		     6			PUSH ECX
 0000B2B0  56		     6			PUSH ESI
 0000B2B1  BA 0000034E R     6				MOV EDX, OFFSET KEY_Z_M_2
 0000B2B6  E8 00000000 E     6				CALL WriteString
 0000B2BB  59		     6			POP ECX
 0000B2BC  59		     6			POP ECX
 0000B2BD  5E		     6			POP ESI
 0000B2BE  5A		     5				POP  EDX
 0000B2BF  FE C6	     5				INC  DH
 0000B2C1  E8 00000000 E     5				Call GoToXY
 0000B2D8  52		     5				PUSH EDX
 0000B2D9  52		     6			PUSH EDX
 0000B2DA  51		     6			PUSH ECX
 0000B2DB  56		     6			PUSH ESI
 0000B2DC  BA 00000354 R     6				MOV EDX, OFFSET KEY_Z_M_3
 0000B2E1  E8 00000000 E     6				CALL WriteString
 0000B2E6  59		     6			POP ECX
 0000B2E7  59		     6			POP ECX
 0000B2E8  5E		     6			POP ESI
 0000B2E9  5A		     5				POP  EDX
 0000B2EA  FE C6	     5				INC  DH
 0000B2EC  E8 00000000 E     5				Call GoToXY
 0000B2FF  50		     4				PUSH 	EAX
 0000B300  B8 00000008	     4					MOV 	EAX, Gray
 0000B305  E8 00000000 E     4					CALL	SetTextColor
 0000B30A  58		     4				POP 	EAX
 0000B30B  8A 15 00000002 R  5			MOV  	dl, CurrentPointX
 0000B311  8A 35 00000003 R  5			MOV  	dh, CurrentPointY
 0000B317  88 15 00000000 R  5			MOV		LastPointX,	dl
 0000B31D  88 35 00000001 R  5			MOV 	LastPointY,	dh
 0000B323  B2 1D	     5			MOV  	dl, BYTE PTR 29
 0000B325  B6 18	     5			MOV  	dh, BYTE PTR 24
 0000B327  88 15 00000002 R  5			MOV 	CurrentPointX,	dl
 0000B32D  88 35 00000003 R  5			MOV 	CurrentPointY,	dh
 0000B333  E8 00000000 E     5			CALL 	Gotoxy  
 0000B338  52		     5				PUSH EDX
 0000B339  52		     6			PUSH EDX
 0000B33A  51		     6			PUSH ECX
 0000B33B  56		     6			PUSH ESI
 0000B33C  BA 0000032B R     6				MOV EDX, OFFSET KEY_Z_1
 0000B341  E8 00000000 E     6				CALL WriteString
 0000B346  59		     6			POP ECX
 0000B347  59		     6			POP ECX
 0000B348  5E		     6			POP ESI
 0000B349  5A		     5				POP  EDX
 0000B34A  FE C6	     5				INC  DH
 0000B34C  E8 00000000 E     5				Call GoToXY
 0000B351  52		     5				PUSH EDX
 0000B352  52		     6			PUSH EDX
 0000B353  51		     6			PUSH ECX
 0000B354  56		     6			PUSH ESI
 0000B355  BA 00000332 R     6				MOV EDX, OFFSET KEY_Z_2
 0000B35A  E8 00000000 E     6				CALL WriteString
 0000B35F  59		     6			POP ECX
 0000B360  59		     6			POP ECX
 0000B361  5E		     6			POP ESI
 0000B362  5A		     5				POP  EDX
 0000B363  FE C6	     5				INC  DH
 0000B365  E8 00000000 E     5				Call GoToXY
 0000B36A  52		     5				PUSH EDX
 0000B36B  52		     6			PUSH EDX
 0000B36C  51		     6			PUSH ECX
 0000B36D  56		     6			PUSH ESI
 0000B36E  BA 00000341 R     6				MOV EDX, OFFSET KEY_Z_3
 0000B373  E8 00000000 E     6				CALL WriteString
 0000B378  59		     6			POP ECX
 0000B379  59		     6			POP ECX
 0000B37A  5E		     6			POP ESI
 0000B37B  5A		     5				POP  EDX
 0000B37C  FE C6	     5				INC  DH
 0000B37E  E8 00000000 E     5				Call GoToXY
 0000B38C  52		     5				PUSH EDX
 0000B38D  52		     6			PUSH EDX
 0000B38E  51		     6			PUSH ECX
 0000B38F  56		     6			PUSH ESI
 0000B390  BA 00000348 R     6				MOV EDX, OFFSET KEY_Z_M_1
 0000B395  E8 00000000 E     6				CALL WriteString
 0000B39A  59		     6			POP ECX
 0000B39B  59		     6			POP ECX
 0000B39C  5E		     6			POP ESI
 0000B39D  5A		     5				POP  EDX
 0000B39E  FE C6	     5				INC  DH
 0000B3A0  E8 00000000 E     5				Call GoToXY
 0000B3B0  52		     5				PUSH EDX
 0000B3B1  52		     6			PUSH EDX
 0000B3B2  51		     6			PUSH ECX
 0000B3B3  56		     6			PUSH ESI
 0000B3B4  BA 0000034E R     6				MOV EDX, OFFSET KEY_Z_M_2
 0000B3B9  E8 00000000 E     6				CALL WriteString
 0000B3BE  59		     6			POP ECX
 0000B3BF  59		     6			POP ECX
 0000B3C0  5E		     6			POP ESI
 0000B3C1  5A		     5				POP  EDX
 0000B3C2  FE C6	     5				INC  DH
 0000B3C4  E8 00000000 E     5				Call GoToXY
 0000B3D4  52		     5				PUSH EDX
 0000B3D5  52		     6			PUSH EDX
 0000B3D6  51		     6			PUSH ECX
 0000B3D7  56		     6			PUSH ESI
 0000B3D8  BA 00000354 R     6				MOV EDX, OFFSET KEY_Z_M_3
 0000B3DD  E8 00000000 E     6				CALL WriteString
 0000B3E2  59		     6			POP ECX
 0000B3E3  59		     6			POP ECX
 0000B3E4  5E		     6			POP ESI
 0000B3E5  5A		     5				POP  EDX
 0000B3E6  FE C6	     5				INC  DH
 0000B3E8  E8 00000000 E     5				Call GoToXY
 0000B3F6  50		     4				PUSH 	EAX
 0000B3F7  B8 00000007	     4					MOV 	EAX, 00000111b
 0000B3FC  E8 00000000 E     4					CALL	SetTextColor
 0000B401  58		     4				POP 	EAX
 0000B42D  50		     4				PUSH 	EAX
 0000B42E  B8 00000007	     4					MOV 	EAX, 00000111b
 0000B433  E8 00000000 E     4					CALL	SetTextColor
 0000B438  58		     4				POP 	EAX
 0000B439  8A 15 00000002 R  5			MOV  	dl, CurrentPointX
 0000B43F  8A 35 00000003 R  5			MOV  	dh, CurrentPointY
 0000B445  88 15 00000000 R  5			MOV		LastPointX,	dl
 0000B44B  88 35 00000001 R  5			MOV 	LastPointY,	dh
 0000B451  B2 1D	     5			MOV  	dl, BYTE PTR 29
 0000B453  B6 18	     5			MOV  	dh, BYTE PTR 24
 0000B455  88 15 00000002 R  5			MOV 	CurrentPointX,	dl
 0000B45B  88 35 00000003 R  5			MOV 	CurrentPointY,	dh
 0000B461  E8 00000000 E     5			CALL 	Gotoxy  
 0000B466  52		     5				PUSH EDX
 0000B467  52		     6			PUSH EDX
 0000B468  51		     6			PUSH ECX
 0000B469  56		     6			PUSH ESI
 0000B46A  BA 0000032B R     6				MOV EDX, OFFSET KEY_Z_1
 0000B46F  E8 00000000 E     6				CALL WriteString
 0000B474  59		     6			POP ECX
 0000B475  59		     6			POP ECX
 0000B476  5E		     6			POP ESI
 0000B477  5A		     5				POP  EDX
 0000B478  FE C6	     5				INC  DH
 0000B47A  E8 00000000 E     5				Call GoToXY
 0000B47F  52		     5				PUSH EDX
 0000B480  52		     6			PUSH EDX
 0000B481  51		     6			PUSH ECX
 0000B482  56		     6			PUSH ESI
 0000B483  BA 00000332 R     6				MOV EDX, OFFSET KEY_Z_2
 0000B488  E8 00000000 E     6				CALL WriteString
 0000B48D  59		     6			POP ECX
 0000B48E  59		     6			POP ECX
 0000B48F  5E		     6			POP ESI
 0000B490  5A		     5				POP  EDX
 0000B491  FE C6	     5				INC  DH
 0000B493  E8 00000000 E     5				Call GoToXY
 0000B498  52		     5				PUSH EDX
 0000B499  52		     6			PUSH EDX
 0000B49A  51		     6			PUSH ECX
 0000B49B  56		     6			PUSH ESI
 0000B49C  BA 00000341 R     6				MOV EDX, OFFSET KEY_Z_3
 0000B4A1  E8 00000000 E     6				CALL WriteString
 0000B4A6  59		     6			POP ECX
 0000B4A7  59		     6			POP ECX
 0000B4A8  5E		     6			POP ESI
 0000B4A9  5A		     5				POP  EDX
 0000B4AA  FE C6	     5				INC  DH
 0000B4AC  E8 00000000 E     5				Call GoToXY
 0000B4BA  52		     5				PUSH EDX
 0000B4BB  52		     6			PUSH EDX
 0000B4BC  51		     6			PUSH ECX
 0000B4BD  56		     6			PUSH ESI
 0000B4BE  BA 00000348 R     6				MOV EDX, OFFSET KEY_Z_M_1
 0000B4C3  E8 00000000 E     6				CALL WriteString
 0000B4C8  59		     6			POP ECX
 0000B4C9  59		     6			POP ECX
 0000B4CA  5E		     6			POP ESI
 0000B4CB  5A		     5				POP  EDX
 0000B4CC  FE C6	     5				INC  DH
 0000B4CE  E8 00000000 E     5				Call GoToXY
 0000B4E1  52		     5				PUSH EDX
 0000B4E2  52		     6			PUSH EDX
 0000B4E3  51		     6			PUSH ECX
 0000B4E4  56		     6			PUSH ESI
 0000B4E5  BA 0000034E R     6				MOV EDX, OFFSET KEY_Z_M_2
 0000B4EA  E8 00000000 E     6				CALL WriteString
 0000B4EF  59		     6			POP ECX
 0000B4F0  59		     6			POP ECX
 0000B4F1  5E		     6			POP ESI
 0000B4F2  5A		     5				POP  EDX
 0000B4F3  FE C6	     5				INC  DH
 0000B4F5  E8 00000000 E     5				Call GoToXY
 0000B50C  52		     5				PUSH EDX
 0000B50D  52		     6			PUSH EDX
 0000B50E  51		     6			PUSH ECX
 0000B50F  56		     6			PUSH ESI
 0000B510  BA 00000354 R     6				MOV EDX, OFFSET KEY_Z_M_3
 0000B515  E8 00000000 E     6				CALL WriteString
 0000B51A  59		     6			POP ECX
 0000B51B  59		     6			POP ECX
 0000B51C  5E		     6			POP ESI
 0000B51D  5A		     5				POP  EDX
 0000B51E  FE C6	     5				INC  DH
 0000B520  E8 00000000 E     5				Call GoToXY
 0000B533  50		     4				PUSH 	EAX
 0000B534  B8 00000008	     4					MOV 	EAX, Gray
 0000B539  E8 00000000 E     4					CALL	SetTextColor
 0000B53E  58		     4				POP 	EAX
 0000B53F  8A 15 00000002 R  5			MOV  	dl, CurrentPointX
 0000B545  8A 35 00000003 R  5			MOV  	dh, CurrentPointY
 0000B54B  88 15 00000000 R  5			MOV		LastPointX,	dl
 0000B551  88 35 00000001 R  5			MOV 	LastPointY,	dh
 0000B557  B2 1D	     5			MOV  	dl, BYTE PTR 29
 0000B559  B6 18	     5			MOV  	dh, BYTE PTR 24
 0000B55B  88 15 00000002 R  5			MOV 	CurrentPointX,	dl
 0000B561  88 35 00000003 R  5			MOV 	CurrentPointY,	dh
 0000B567  E8 00000000 E     5			CALL 	Gotoxy  
 0000B56C  52		     5				PUSH EDX
 0000B56D  52		     6			PUSH EDX
 0000B56E  51		     6			PUSH ECX
 0000B56F  56		     6			PUSH ESI
 0000B570  BA 0000032B R     6				MOV EDX, OFFSET KEY_Z_1
 0000B575  E8 00000000 E     6				CALL WriteString
 0000B57A  59		     6			POP ECX
 0000B57B  59		     6			POP ECX
 0000B57C  5E		     6			POP ESI
 0000B57D  5A		     5				POP  EDX
 0000B57E  FE C6	     5				INC  DH
 0000B580  E8 00000000 E     5				Call GoToXY
 0000B585  52		     5				PUSH EDX
 0000B586  52		     6			PUSH EDX
 0000B587  51		     6			PUSH ECX
 0000B588  56		     6			PUSH ESI
 0000B589  BA 00000332 R     6				MOV EDX, OFFSET KEY_Z_2
 0000B58E  E8 00000000 E     6				CALL WriteString
 0000B593  59		     6			POP ECX
 0000B594  59		     6			POP ECX
 0000B595  5E		     6			POP ESI
 0000B596  5A		     5				POP  EDX
 0000B597  FE C6	     5				INC  DH
 0000B599  E8 00000000 E     5				Call GoToXY
 0000B59E  52		     5				PUSH EDX
 0000B59F  52		     6			PUSH EDX
 0000B5A0  51		     6			PUSH ECX
 0000B5A1  56		     6			PUSH ESI
 0000B5A2  BA 00000341 R     6				MOV EDX, OFFSET KEY_Z_3
 0000B5A7  E8 00000000 E     6				CALL WriteString
 0000B5AC  59		     6			POP ECX
 0000B5AD  59		     6			POP ECX
 0000B5AE  5E		     6			POP ESI
 0000B5AF  5A		     5				POP  EDX
 0000B5B0  FE C6	     5				INC  DH
 0000B5B2  E8 00000000 E     5				Call GoToXY
 0000B5C0  52		     5				PUSH EDX
 0000B5C1  52		     6			PUSH EDX
 0000B5C2  51		     6			PUSH ECX
 0000B5C3  56		     6			PUSH ESI
 0000B5C4  BA 00000348 R     6				MOV EDX, OFFSET KEY_Z_M_1
 0000B5C9  E8 00000000 E     6				CALL WriteString
 0000B5CE  59		     6			POP ECX
 0000B5CF  59		     6			POP ECX
 0000B5D0  5E		     6			POP ESI
 0000B5D1  5A		     5				POP  EDX
 0000B5D2  FE C6	     5				INC  DH
 0000B5D4  E8 00000000 E     5				Call GoToXY
 0000B5E4  52		     5				PUSH EDX
 0000B5E5  52		     6			PUSH EDX
 0000B5E6  51		     6			PUSH ECX
 0000B5E7  56		     6			PUSH ESI
 0000B5E8  BA 0000034E R     6				MOV EDX, OFFSET KEY_Z_M_2
 0000B5ED  E8 00000000 E     6				CALL WriteString
 0000B5F2  59		     6			POP ECX
 0000B5F3  59		     6			POP ECX
 0000B5F4  5E		     6			POP ESI
 0000B5F5  5A		     5				POP  EDX
 0000B5F6  FE C6	     5				INC  DH
 0000B5F8  E8 00000000 E     5				Call GoToXY
 0000B608  52		     5				PUSH EDX
 0000B609  52		     6			PUSH EDX
 0000B60A  51		     6			PUSH ECX
 0000B60B  56		     6			PUSH ESI
 0000B60C  BA 00000354 R     6				MOV EDX, OFFSET KEY_Z_M_3
 0000B611  E8 00000000 E     6				CALL WriteString
 0000B616  59		     6			POP ECX
 0000B617  59		     6			POP ECX
 0000B618  5E		     6			POP ESI
 0000B619  5A		     5				POP  EDX
 0000B61A  FE C6	     5				INC  DH
 0000B61C  E8 00000000 E     5				Call GoToXY
 0000B62A  50		     4				PUSH 	EAX
 0000B62B  B8 00000007	     4					MOV 	EAX, 00000111b
 0000B630  E8 00000000 E     4					CALL	SetTextColor
 0000B635  58		     4				POP 	EAX
 0000B653  50		     4				PUSH 	EAX
 0000B654  B8 0000000C	     4					MOV 	EAX, LightRed
 0000B659  E8 00000000 E     4					CALL	SetTextColor
 0000B65E  58		     4				POP 	EAX
 0000B65F  B9 0000003C	     4			MOV 	ECX,	60
 0000B664  BB 00000027	     4			MOV 	EBX,	SIZEOF NoEnoughMoney_Dialog
 0000B669  D1 EB	     4			SHR		EBX,	1
 0000B66B  2B CB	     4			SUB 	ECX,	EBX
 0000B66D  89 0D 00000CA0 R  4			MOV 	SetterBuffer,	ECX
 0000B673  50		     5			PUSH EAX
 0000B674  51		     5			PUSH ECX
 0000B675  56		     5			PUSH ESI
 0000B676  8B C2	     5				MOV 	EAX,	EDX
 0000B678  8A 15 00000CA0 R  5				MOV  	 DL, BYTE PTR SetterBuffer
 0000B67E  B6 17	     5				MOV  	 DH, BYTE PTR 23 
 0000B680  E8 00000000 E     5				CALL 	Gotoxy
 0000B685  8B D0	     5				MOV 	EDX,	EAX
 0000B687  BA 00000282 R     5				MOV EDX, OFFSET NoEnoughMoney_Dialog
 0000B68C  E8 00000000 E     5				CALL WriteString
 0000B691  58		     5			POP EAX
 0000B692  59		     5			POP ECX
 0000B693  5E		     5			POP ESI
 0000B694  FF 05 00000CEC R  3				INC EnoughTimer
 0000B69C  50		     4			PUSH EAX
 0000B69D  B8 00000000	     4				MOV EAX, 0
 0000B6A2  A3 00000CEC R     4				MOV EnoughTimer, 	EAX
 0000B6A7  58		     4			POP EAX
 0000B6BE  B9 0000003C	     4			MOV 	ECX,	60
 0000B6C3  BB 00000028	     4			MOV 	EBX,	SIZEOF Building_Dialog_1
 0000B6C8  D1 EB	     4			SHR		EBX,	1
 0000B6CA  2B CB	     4			SUB 	ECX,	EBX
 0000B6CC  89 0D 00000CA0 R  4			MOV 	SetterBuffer,	ECX
 0000B6D2  50		     5			PUSH EAX
 0000B6D3  51		     5			PUSH ECX
 0000B6D4  56		     5			PUSH ESI
 0000B6D5  8B C2	     5				MOV 	EAX,	EDX
 0000B6D7  8A 15 00000CA0 R  5				MOV  	 DL, BYTE PTR SetterBuffer
 0000B6DD  B6 15	     5				MOV  	 DH, BYTE PTR 21 
 0000B6DF  E8 00000000 E     5				CALL 	Gotoxy
 0000B6E4  8B D0	     5				MOV 	EDX,	EAX
 0000B6E6  BA 00000192 R     5				MOV EDX, OFFSET Building_Dialog_1
 0000B6EB  E8 00000000 E     5				CALL WriteString
 0000B6F0  58		     5			POP EAX
 0000B6F1  59		     5			POP ECX
 0000B6F2  5E		     5			POP ESI
 0000B701  B9 0000003C	     4			MOV 	ECX,	60
 0000B706  BB 00000028	     4			MOV 	EBX,	SIZEOF Building_Dialog_2
 0000B70B  D1 EB	     4			SHR		EBX,	1
 0000B70D  2B CB	     4			SUB 	ECX,	EBX
 0000B70F  89 0D 00000CA0 R  4			MOV 	SetterBuffer,	ECX
 0000B715  50		     5			PUSH EAX
 0000B716  51		     5			PUSH ECX
 0000B717  56		     5			PUSH ESI
 0000B718  8B C2	     5				MOV 	EAX,	EDX
 0000B71A  8A 15 00000CA0 R  5				MOV  	 DL, BYTE PTR SetterBuffer
 0000B720  B6 15	     5				MOV  	 DH, BYTE PTR 21 
 0000B722  E8 00000000 E     5				CALL 	Gotoxy
 0000B727  8B D0	     5				MOV 	EDX,	EAX
 0000B729  BA 000001BA R     5				MOV EDX, OFFSET Building_Dialog_2
 0000B72E  E8 00000000 E     5				CALL WriteString
 0000B733  58		     5			POP EAX
 0000B734  59		     5			POP ECX
 0000B735  5E		     5			POP ESI
 0000B744  B9 0000003C	     4			MOV 	ECX,	60
 0000B749  BB 00000028	     4			MOV 	EBX,	SIZEOF Building_Dialog_3
 0000B74E  D1 EB	     4			SHR		EBX,	1
 0000B750  2B CB	     4			SUB 	ECX,	EBX
 0000B752  89 0D 00000CA0 R  4			MOV 	SetterBuffer,	ECX
 0000B758  50		     5			PUSH EAX
 0000B759  51		     5			PUSH ECX
 0000B75A  56		     5			PUSH ESI
 0000B75B  8B C2	     5				MOV 	EAX,	EDX
 0000B75D  8A 15 00000CA0 R  5				MOV  	 DL, BYTE PTR SetterBuffer
 0000B763  B6 15	     5				MOV  	 DH, BYTE PTR 21 
 0000B765  E8 00000000 E     5				CALL 	Gotoxy
 0000B76A  8B D0	     5				MOV 	EDX,	EAX
 0000B76C  BA 000001E2 R     5				MOV EDX, OFFSET Building_Dialog_3
 0000B771  E8 00000000 E     5				CALL WriteString
 0000B776  58		     5			POP EAX
 0000B777  59		     5			POP ECX
 0000B778  5E		     5			POP ESI
 0000B787  B9 0000003C	     4			MOV 	ECX,	60
 0000B78C  BB 00000028	     4			MOV 	EBX,	SIZEOF Building_Dialog_4
 0000B791  D1 EB	     4			SHR		EBX,	1
 0000B793  2B CB	     4			SUB 	ECX,	EBX
 0000B795  89 0D 00000CA0 R  4			MOV 	SetterBuffer,	ECX
 0000B79B  50		     5			PUSH EAX
 0000B79C  51		     5			PUSH ECX
 0000B79D  56		     5			PUSH ESI
 0000B79E  8B C2	     5				MOV 	EAX,	EDX
 0000B7A0  8A 15 00000CA0 R  5				MOV  	 DL, BYTE PTR SetterBuffer
 0000B7A6  B6 15	     5				MOV  	 DH, BYTE PTR 21 
 0000B7A8  E8 00000000 E     5				CALL 	Gotoxy
 0000B7AD  8B D0	     5				MOV 	EDX,	EAX
 0000B7AF  BA 0000020A R     5				MOV EDX, OFFSET Building_Dialog_4
 0000B7B4  E8 00000000 E     5				CALL WriteString
 0000B7B9  58		     5			POP EAX
 0000B7BA  59		     5			POP ECX
 0000B7BB  5E		     5			POP ESI
 0000B7C7  B9 0000003C	     4			MOV 	ECX,	60
 0000B7CC  BB 00000028	     4			MOV 	EBX,	SIZEOF Building_Dialog_5
 0000B7D1  D1 EB	     4			SHR		EBX,	1
 0000B7D3  2B CB	     4			SUB 	ECX,	EBX
 0000B7D5  89 0D 00000CA0 R  4			MOV 	SetterBuffer,	ECX
 0000B7DB  50		     5			PUSH EAX
 0000B7DC  51		     5			PUSH ECX
 0000B7DD  56		     5			PUSH ESI
 0000B7DE  8B C2	     5				MOV 	EAX,	EDX
 0000B7E0  8A 15 00000CA0 R  5				MOV  	 DL, BYTE PTR SetterBuffer
 0000B7E6  B6 15	     5				MOV  	 DH, BYTE PTR 21 
 0000B7E8  E8 00000000 E     5				CALL 	Gotoxy
 0000B7ED  8B D0	     5				MOV 	EDX,	EAX
 0000B7EF  BA 00000232 R     5				MOV EDX, OFFSET Building_Dialog_5
 0000B7F4  E8 00000000 E     5				CALL WriteString
 0000B7F9  58		     5			POP EAX
 0000B7FA  59		     5			POP ECX
 0000B7FB  5E		     5			POP ESI
 0000B807  B9 0000003C	     4			MOV 	ECX,	60
 0000B80C  BB 00000028	     4			MOV 	EBX,	SIZEOF Building_Dialog_6
 0000B811  D1 EB	     4			SHR		EBX,	1
 0000B813  2B CB	     4			SUB 	ECX,	EBX
 0000B815  89 0D 00000CA0 R  4			MOV 	SetterBuffer,	ECX
 0000B81B  50		     5			PUSH EAX
 0000B81C  51		     5			PUSH ECX
 0000B81D  56		     5			PUSH ESI
 0000B81E  8B C2	     5				MOV 	EAX,	EDX
 0000B820  8A 15 00000CA0 R  5				MOV  	 DL, BYTE PTR SetterBuffer
 0000B826  B6 15	     5				MOV  	 DH, BYTE PTR 21 
 0000B828  E8 00000000 E     5				CALL 	Gotoxy
 0000B82D  8B D0	     5				MOV 	EDX,	EAX
 0000B82F  BA 0000025A R     5				MOV EDX, OFFSET Building_Dialog_6
 0000B834  E8 00000000 E     5				CALL WriteString
 0000B839  58		     5			POP EAX
 0000B83A  59		     5			POP ECX
 0000B83B  5E		     5			POP ESI
 0000B83C  A1 00000CE8 R     3			MOV EAX,	Timer_Build_Goal
 0000B841  8B 1D 00000CE0 R  3			MOV EBX,	Timer_UserBuild
 0000B84F  2B C3	     3				SUB EAX,	EBX
 0000B851  A3 00000CA0 R     3				MOV SetterBuffer,	EAX
 0000B856  50		     4			PUSH	EAX
 0000B857  8B C2	     4				MOV 	EAX,	EDX
 0000B859  B2 3B	     4				MOV  	 DL, BYTE PTR 59
 0000B85B  B6 17	     4				MOV  	 DH, BYTE PTR 23
 0000B85D  E8 00000000 E     4				CALL 	Gotoxy
 0000B862  8B D0	     4				MOV 	EDX,	EAX
 0000B864  58		     4			POP		EAX
 0000B865  50		     5			PUSH 	EAX
 0000B866  A1 00000CA0 R     5				MOV 	EAX,	SetterBuffer
 0000B86B  E8 00000000 E     5				CALL 	WriteDec
 0000B870  58		     5			POP 	EAX
 0000B871  60		     2		PUSHA
 0000B872  60		     3			PUSHA
 0000B873  B8 0000002C	     4			MOV EAX, (SIZEOF Soldier)
 0000B878  BB 00000000	     4			MOV EBX, 0
 0000B87D  F7 E3	     4			MUL EBX
 0000B87F  8B D8	     4			MOV EBX, EAX
 0000B881  50		     4			PUSH EAX
 0000B882  8B 83 0000084D R  4				MOV EAX, UserSoldiers[EBX].X
 0000B888  A3 00000D99 R     4				MOV Collision_A_X, 	EAX
 0000B88D  58		     4			POP EAX
 0000B88E  61		     3			POPA
 0000B88F  60		     3			PUSHA
 0000B890  B8 0000002C	     4			MOV EAX, (SIZEOF Soldier)
 0000B895  BB 00000000	     4			MOV EBX, 0
 0000B89A  F7 E3	     4			MUL EBX
 0000B89C  8B D8	     4			MOV EBX, EAX
 0000B89E  50		     4			PUSH EAX
 0000B89F  8B 83 000009AD R  4				MOV EAX, CompSoldiers[EBX].X
 0000B8A5  A3 00000D9D R     4				MOV Collision_B_X, 	EAX
 0000B8AA  58		     4			POP EAX
 0000B8AB  61		     3			POPA
 0000B8AC  A1 00000D99 R     2			MOV		EAX,	Collision_A_X
 0000B8B1  8B 1D 00000D9D R  2			MOV 	EBX,	Collision_B_X
 0000B8B7  8B D3	     2			MOV 	EDX,	EBX
 0000B8B9  2B D0	     2			SUB 	EDX,	EAX
 0000B8BB  60		     3			PUSHA
 0000B8BC  B8 0000002C	     4			MOV EAX, (SIZEOF Soldier)
 0000B8C1  BB 00000000	     4			MOV EBX, 0
 0000B8C6  F7 E3	     4			MUL EBX
 0000B8C8  8B D8	     4			MOV EBX, EAX
 0000B8CA  8B 83 0000085D R  4			MOV EAX, UserSoldiers[EBX].Arms
 0000B8D0  48		     4			DEC EAX
 0000B8D1  BA 0000000C	     4			MOV EDX, 12
 0000B8D6  F7 E2	     4			MUL EDX
 0000B8D8  8B D0	     4			MOV EDX, EAX
 0000B8DA  8B 83 00000859 R  4			MOV EAX, UserSoldiers[EBX].Level
 0000B8E0  48		     4			DEC EAX
 0000B8E1  C1 E0 02	     4			SHL EAX, 2
 0000B8E4  03 C2	     4			ADD EAX, EDX
 0000B8EF  50		     4			PUSH EAX
 0000B8F0  8B 80 00000B2D R  4				MOV EAX, UserSoldier_Width[EAX]
 0000B8F6  A3 00000CA4 R     4				MOV GetterHandler, 	EAX
 0000B8FB  58		     4			POP EAX
 0000B8FE  50		     4			PUSH EAX
 0000B8FF  8B 80 00000B75 R  4				MOV EAX, CompSoldier_Width[EAX]
 0000B905  A3 00000CA4 R     4				MOV GetterHandler, 	EAX
 0000B90A  58		     4			POP EAX
 0000B90B  61		     3			POPA
 0000B90C  8B 0D 00000CA4 R  2			MOV ECX, GetterHandler
 0000B91E  60		     3			PUSHA
 0000B91F  B8 0000002C	     4			MOV EAX, (SIZEOF Soldier)
 0000B924  BB 00000000	     4			MOV EBX, 0
 0000B929  F7 E3	     4			MUL EBX
 0000B92B  8B D8	     4			MOV EBX, EAX
 0000B92D  50		     4			PUSH EAX
 0000B92E  B8 00000000	     4				MOV EAX, 0
 0000B933  89 83 0000086D R  4				MOV UserSoldiers[EBX].AttackTo, 	EAX
 0000B939  58		     4			POP EAX
 0000B93A  61		     3			POPA
 0000B93B  60		     3			PUSHA
 0000B93C  B8 0000002C	     4			MOV EAX, (SIZEOF Soldier)
 0000B941  BB 00000000	     4			MOV EBX, 0
 0000B946  F7 E3	     4			MUL EBX
 0000B948  8B D8	     4			MOV EBX, EAX
 0000B94A  50		     4			PUSH EAX
 0000B94B  B8 00000000	     4				MOV EAX, 0
 0000B950  89 83 000009CD R  4				MOV CompSoldiers[EBX].AttackTo, 	EAX
 0000B956  58		     4			POP EAX
 0000B957  61		     3			POPA
 0000B958  50		     3			PUSH EAX
 0000B959  B8 00000001	     3				MOV EAX, 1
 0000B95E  A3 00000CA4 R     3				MOV GetterHandler, 	EAX
 0000B963  58		     3			POP EAX
 0000B966  50		     3			PUSH EAX
 0000B967  B8 00000000	     3				MOV EAX, 0
 0000B96C  A3 00000CA4 R     3				MOV GetterHandler, 	EAX
 0000B971  58		     3			POP EAX
 0000B972  61		     2		POPA
						AI
 0000B97C  FF 05 00000EB1 R  2				INC AI_Timer
 0000B9AA  60		     4			PUSHA
 0000B9B4  61		     4			POPA
 0000B9C7  60		     4			PUSHA
 0000B9D1  61		     4			POPA
 0000B9E4  60		     4			PUSHA
 0000B9EE  61		     4			POPA
 0000B9F8  FF 05 00000EB5 R  3				INC Mod_A_Timer
 0000BA07  50		     4			PUSH EAX
 0000BA08  B8 00000000	     4				MOV EAX, 0
 0000BA0D  A3 00000EB5 R     4				MOV Mod_A_Timer, 	EAX
 0000BA12  58		     4			POP EAX
 0000BA3B  60		     4			PUSHA
 0000BA45  61		     4			POPA
 0000BA58  60		     4			PUSHA
 0000BA62  61		     4			POPA
 0000BA75  60		     4			PUSHA
 0000BA7F  61		     4			POPA
 0000BA89  FF 05 00000EB5 R  3				INC Mod_A_Timer
 0000BA98  50		     4			PUSH EAX
 0000BA99  B8 00000000	     4				MOV EAX, 0
 0000BA9E  A3 00000EB5 R     4				MOV Mod_A_Timer, 	EAX
 0000BAA3  58		     4			POP EAX
 0000BACC  60		     4			PUSHA
 0000BAD6  61		     4			POPA
 0000BAE9  60		     4			PUSHA
 0000BAF3  61		     4			POPA
 0000BB06  60		     4			PUSHA
 0000BB10  61		     4			POPA
 0000BB1A  FF 05 00000EB9 R  3				INC Mod_B_Timer
 0000BB29  50		     4			PUSH EAX
 0000BB2A  B8 00000000	     4				MOV EAX, 0
 0000BB2F  A3 00000EB9 R     4				MOV Mod_B_Timer, 	EAX
 0000BB34  58		     4			POP EAX
 0000BB59  60		     4			PUSHA
 0000BB63  61		     4			POPA
 0000BB76  60		     4			PUSHA
 0000BB80  61		     4			POPA
 0000BB8A  FF 05 00000EBD R  3				INC Mod_C_Timer
 0000BB99  50		     4			PUSH EAX
 0000BB9A  B8 00000000	     4				MOV EAX, 0
 0000BB9F  A3 00000EBD R     4				MOV Mod_C_Timer, 	EAX
 0000BBA4  58		     4			POP EAX
 0000BBCD  60		     4			PUSHA
 0000BBD7  61		     4			POPA
 0000BBEA  60		     4			PUSHA
 0000BBF4  61		     4			POPA
 0000BC07  60		     4			PUSHA
 0000BC11  61		     4			POPA
 0000BC1B  FF 05 00000EB5 R  3				INC Mod_A_Timer
 0000BC2A  50		     4			PUSH EAX
 0000BC2B  B8 00000000	     4				MOV EAX, 0
 0000BC30  A3 00000EB5 R     4				MOV Mod_A_Timer, 	EAX
 0000BC35  58		     4			POP EAX
 0000BC5E  60		     4			PUSHA
 0000BC68  61		     4			POPA
 0000BC7B  60		     4			PUSHA
 0000BC85  61		     4			POPA
 0000BC98  60		     4			PUSHA
 0000BCA2  61		     4			POPA
 0000BCAC  FF 05 00000EB5 R  3				INC Mod_A_Timer
 0000BCBB  50		     4			PUSH EAX
 0000BCBC  B8 00000000	     4				MOV EAX, 0
 0000BCC1  A3 00000EB5 R     4				MOV Mod_A_Timer, 	EAX
 0000BCC6  58		     4			POP EAX
 0000BCEF  60		     4			PUSHA
 0000BCF9  61		     4			POPA
 0000BD0C  60		     4			PUSHA
 0000BD16  61		     4			POPA
 0000BD29  60		     4			PUSHA
 0000BD33  61		     4			POPA
 0000BD3D  FF 05 00000EB9 R  3				INC Mod_B_Timer
 0000BD4C  50		     4			PUSH EAX
 0000BD4D  B8 00000000	     4				MOV EAX, 0
 0000BD52  A3 00000EB9 R     4				MOV Mod_B_Timer, 	EAX
 0000BD57  58		     4			POP EAX
 0000BD7C  60		     4			PUSHA
 0000BD86  61		     4			POPA
 0000BD99  60		     4			PUSHA
 0000BDA3  61		     4			POPA
 0000BDAD  FF 05 00000EBD R  3				INC Mod_C_Timer
 0000BDBC  50		     4			PUSH EAX
 0000BDBD  B8 00000000	     4				MOV EAX, 0
 0000BDC2  A3 00000EBD R     4				MOV Mod_C_Timer, 	EAX
 0000BDC7  58		     4			POP EAX
 0000BDDA  50		     3			PUSH EAX
 0000BDDB  B8 00000001	     3				MOV EAX, 1
 0000BDE0  A3 00000CBC R     3				MOV CompLevelUpFlag, 	EAX
 0000BDE5  58		     3			POP EAX
 0000BDEF  50		     3			PUSH EAX
 0000BDF0  B8 00000000	     3				MOV EAX, 0
 0000BDF5  A3 00000EB1 R     3				MOV AI_Timer, 	EAX
 0000BDFA  58		     3			POP EAX
						;DumpBothList
						;DumpList
						KeyHandler
 0000BDFB  60		     1			PUSHA
 0000BDFC  B8 00000000	     1				MOV EAX, 0
 0000BE01  E8 00000000 E     1				Call ReadKey
 0000BE12  50		     3			PUSH EAX
 0000BE13  B8 00000000	     3				MOV EAX, 0
 0000BE18  A3 00000DD9 R     3				MOV CanBuildCallBack, 	EAX
 0000BE1D  58		     3			POP EAX
 0000BE1E  60		     3			PUSHA
 0000BE1F  B8 00000001	     4			MOV EAX, 1
 0000BE24  48		     4			DEC EAX
 0000BE25  BA 0000000C	     4			MOV EDX, 12
 0000BE2A  F7 E2	     4			MUL EDX
 0000BE2C  8B D0	     4			MOV EDX, EAX
 0000BE2E  A1 00000CB0 R     4			MOV EAX, UserCurrLevel
 0000BE33  48		     4			DEC EAX
 0000BE34  C1 E0 02	     4			SHL EAX, 2
 0000BE37  03 C2	     4			ADD EAX, EDX
 0000BE39  50		     4			PUSH EAX
 0000BE3A  8B 80 00000C05 R  4				MOV EAX, Soldier_Money[EAX]
 0000BE40  A3 00000CA4 R     4				MOV GetterHandler, 	EAX
 0000BE45  58		     4			POP EAX
 0000BE46  61		     3			POPA
 0000BE47  A1 00000CA4 R     2			MOV EAX, GetterHandler
 0000BE54  50		     3			PUSH EAX
 0000BE55  A1 00000CA4 R     3				MOV EAX, GetterHandler
 0000BE5A  29 05 00000C47 R  3				SUB UserMoney, 	EAX
 0000BE60  58		     3			POP EAX
 0000BE61  50		     3			PUSH EAX
 0000BE62  B8 00000001	     3				MOV EAX, 1
 0000BE67  A3 00000DD9 R     3				MOV CanBuildCallBack, 	EAX
 0000BE6C  58		     3			POP EAX
 0000BE7A  60		     2			PUSHA
 0000BE84  50		     3			PUSH EAX
 0000BE85  B8 00000001	     3				MOV EAX, 1
 0000BE8A  A3 00000CE0 R     3				MOV Timer_UserBuild, 	EAX
 0000BE8F  58		     3			POP EAX
 0000BE90  B8 00000000	     2				MOV EAX,	0
 0000BEB3  61		     2			POPA
 0000BEC5  50		     3			PUSH EAX
 0000BEC6  B8 00000000	     3				MOV EAX, 0
 0000BECB  A3 00000DD9 R     3				MOV CanBuildCallBack, 	EAX
 0000BED0  58		     3			POP EAX
 0000BED1  60		     3			PUSHA
 0000BED2  B8 00000002	     4			MOV EAX, 2
 0000BED7  48		     4			DEC EAX
 0000BED8  BA 0000000C	     4			MOV EDX, 12
 0000BEDD  F7 E2	     4			MUL EDX
 0000BEDF  8B D0	     4			MOV EDX, EAX
 0000BEE1  A1 00000CB0 R     4			MOV EAX, UserCurrLevel
 0000BEE6  48		     4			DEC EAX
 0000BEE7  C1 E0 02	     4			SHL EAX, 2
 0000BEEA  03 C2	     4			ADD EAX, EDX
 0000BEEC  50		     4			PUSH EAX
 0000BEED  8B 80 00000C05 R  4				MOV EAX, Soldier_Money[EAX]
 0000BEF3  A3 00000CA4 R     4				MOV GetterHandler, 	EAX
 0000BEF8  58		     4			POP EAX
 0000BEF9  61		     3			POPA
 0000BEFA  A1 00000CA4 R     2			MOV EAX, GetterHandler
 0000BF07  50		     3			PUSH EAX
 0000BF08  A1 00000CA4 R     3				MOV EAX, GetterHandler
 0000BF0D  29 05 00000C47 R  3				SUB UserMoney, 	EAX
 0000BF13  58		     3			POP EAX
 0000BF14  50		     3			PUSH EAX
 0000BF15  B8 00000001	     3				MOV EAX, 1
 0000BF1A  A3 00000DD9 R     3				MOV CanBuildCallBack, 	EAX
 0000BF1F  58		     3			POP EAX
 0000BF2D  60		     2			PUSHA
 0000BF37  50		     3			PUSH EAX
 0000BF38  B8 00000001	     3				MOV EAX, 1
 0000BF3D  A3 00000CE0 R     3				MOV Timer_UserBuild, 	EAX
 0000BF42  58		     3			POP EAX
 0000BF43  B8 00000000	     2				MOV EAX,	0
 0000BF66  61		     2			POPA
 0000BF78  50		     3			PUSH EAX
 0000BF79  B8 00000000	     3				MOV EAX, 0
 0000BF7E  A3 00000DD9 R     3				MOV CanBuildCallBack, 	EAX
 0000BF83  58		     3			POP EAX
 0000BF84  60		     3			PUSHA
 0000BF85  B8 00000003	     4			MOV EAX, 3
 0000BF8A  48		     4			DEC EAX
 0000BF8B  BA 0000000C	     4			MOV EDX, 12
 0000BF90  F7 E2	     4			MUL EDX
 0000BF92  8B D0	     4			MOV EDX, EAX
 0000BF94  A1 00000CB0 R     4			MOV EAX, UserCurrLevel
 0000BF99  48		     4			DEC EAX
 0000BF9A  C1 E0 02	     4			SHL EAX, 2
 0000BF9D  03 C2	     4			ADD EAX, EDX
 0000BF9F  50		     4			PUSH EAX
 0000BFA0  8B 80 00000C05 R  4				MOV EAX, Soldier_Money[EAX]
 0000BFA6  A3 00000CA4 R     4				MOV GetterHandler, 	EAX
 0000BFAB  58		     4			POP EAX
 0000BFAC  61		     3			POPA
 0000BFAD  A1 00000CA4 R     2			MOV EAX, GetterHandler
 0000BFBA  50		     3			PUSH EAX
 0000BFBB  A1 00000CA4 R     3				MOV EAX, GetterHandler
 0000BFC0  29 05 00000C47 R  3				SUB UserMoney, 	EAX
 0000BFC6  58		     3			POP EAX
 0000BFC7  50		     3			PUSH EAX
 0000BFC8  B8 00000001	     3				MOV EAX, 1
 0000BFCD  A3 00000DD9 R     3				MOV CanBuildCallBack, 	EAX
 0000BFD2  58		     3			POP EAX
 0000BFE0  60		     2			PUSHA
 0000BFEA  50		     3			PUSH EAX
 0000BFEB  B8 00000001	     3				MOV EAX, 1
 0000BFF0  A3 00000CE0 R     3				MOV Timer_UserBuild, 	EAX
 0000BFF5  58		     3			POP EAX
 0000BFF6  B8 00000000	     2				MOV EAX,	0
 0000C019  61		     2			POPA
 0000C027  60		     2			PUSHA
 0000C031  61		     2			POPA
 0000C03F  60		     2			PUSHA
 0000C049  61		     2			POPA
 0000C057  60		     2			PUSHA
 0000C061  61		     2			POPA
 0000C099  50		     2			PUSH EAX
 0000C09A  B8 00000001	     2				MOV EAX, 1
 0000C09F  A3 00000CB8 R     2				MOV UserLevelUpFlag, 	EAX
 0000C0A4  58		     2			POP EAX
 0000C0AA  50		     2			PUSH EAX
 0000C0AB  B8 00000001	     2				MOV EAX, 1
 0000C0B0  A3 00000CEC R     2				MOV EnoughTimer, 	EAX
 0000C0B5  58		     2			POP EAX
 0000C0BF  50		     2				PUSH 	EAX
 0000C0C0  B8 00000008	     2					MOV 	EAX, Gray
 0000C0C5  E8 00000000 E     2					CALL	SetTextColor
 0000C0CA  58		     2				POP 	EAX
 0000C0CB  8A 15 00000002 R  3			MOV  	dl, CurrentPointX
 0000C0D1  8A 35 00000003 R  3			MOV  	dh, CurrentPointY
 0000C0D7  88 15 00000000 R  3			MOV		LastPointX,	dl
 0000C0DD  88 35 00000001 R  3			MOV 	LastPointY,	dh
 0000C0E3  B2 1D	     3			MOV  	dl, BYTE PTR 29
 0000C0E5  B6 18	     3			MOV  	dh, BYTE PTR 24
 0000C0E7  88 15 00000002 R  3			MOV 	CurrentPointX,	dl
 0000C0ED  88 35 00000003 R  3			MOV 	CurrentPointY,	dh
 0000C0F3  E8 00000000 E     3			CALL 	Gotoxy  
 0000C0F8  52		     3				PUSH EDX
 0000C0F9  52		     4			PUSH EDX
 0000C0FA  51		     4			PUSH ECX
 0000C0FB  56		     4			PUSH ESI
 0000C0FC  BA 0000032B R     4				MOV EDX, OFFSET KEY_Z_1
 0000C101  E8 00000000 E     4				CALL WriteString
 0000C106  59		     4			POP ECX
 0000C107  59		     4			POP ECX
 0000C108  5E		     4			POP ESI
 0000C109  5A		     3				POP  EDX
 0000C10A  FE C6	     3				INC  DH
 0000C10C  E8 00000000 E     3				Call GoToXY
 0000C111  52		     3				PUSH EDX
 0000C112  52		     4			PUSH EDX
 0000C113  51		     4			PUSH ECX
 0000C114  56		     4			PUSH ESI
 0000C115  BA 00000332 R     4				MOV EDX, OFFSET KEY_Z_2
 0000C11A  E8 00000000 E     4				CALL WriteString
 0000C11F  59		     4			POP ECX
 0000C120  59		     4			POP ECX
 0000C121  5E		     4			POP ESI
 0000C122  5A		     3				POP  EDX
 0000C123  FE C6	     3				INC  DH
 0000C125  E8 00000000 E     3				Call GoToXY
 0000C12A  52		     3				PUSH EDX
 0000C12B  52		     4			PUSH EDX
 0000C12C  51		     4			PUSH ECX
 0000C12D  56		     4			PUSH ESI
 0000C12E  BA 00000341 R     4				MOV EDX, OFFSET KEY_Z_3
 0000C133  E8 00000000 E     4				CALL WriteString
 0000C138  59		     4			POP ECX
 0000C139  59		     4			POP ECX
 0000C13A  5E		     4			POP ESI
 0000C13B  5A		     3				POP  EDX
 0000C13C  FE C6	     3				INC  DH
 0000C13E  E8 00000000 E     3				Call GoToXY
 0000C14C  52		     3				PUSH EDX
 0000C14D  52		     4			PUSH EDX
 0000C14E  51		     4			PUSH ECX
 0000C14F  56		     4			PUSH ESI
 0000C150  BA 00000348 R     4				MOV EDX, OFFSET KEY_Z_M_1
 0000C155  E8 00000000 E     4				CALL WriteString
 0000C15A  59		     4			POP ECX
 0000C15B  59		     4			POP ECX
 0000C15C  5E		     4			POP ESI
 0000C15D  5A		     3				POP  EDX
 0000C15E  FE C6	     3				INC  DH
 0000C160  E8 00000000 E     3				Call GoToXY
 0000C170  52		     3				PUSH EDX
 0000C171  52		     4			PUSH EDX
 0000C172  51		     4			PUSH ECX
 0000C173  56		     4			PUSH ESI
 0000C174  BA 0000034E R     4				MOV EDX, OFFSET KEY_Z_M_2
 0000C179  E8 00000000 E     4				CALL WriteString
 0000C17E  59		     4			POP ECX
 0000C17F  59		     4			POP ECX
 0000C180  5E		     4			POP ESI
 0000C181  5A		     3				POP  EDX
 0000C182  FE C6	     3				INC  DH
 0000C184  E8 00000000 E     3				Call GoToXY
 0000C194  52		     3				PUSH EDX
 0000C195  52		     4			PUSH EDX
 0000C196  51		     4			PUSH ECX
 0000C197  56		     4			PUSH ESI
 0000C198  BA 00000354 R     4				MOV EDX, OFFSET KEY_Z_M_3
 0000C19D  E8 00000000 E     4				CALL WriteString
 0000C1A2  59		     4			POP ECX
 0000C1A3  59		     4			POP ECX
 0000C1A4  5E		     4			POP ESI
 0000C1A5  5A		     3				POP  EDX
 0000C1A6  FE C6	     3				INC  DH
 0000C1A8  E8 00000000 E     3				Call GoToXY
 0000C1B6  50		     2				PUSH 	EAX
 0000C1B7  B8 00000007	     2					MOV 	EAX, 00000111b
 0000C1BC  E8 00000000 E     2					CALL	SetTextColor
 0000C1C1  58		     2				POP 	EAX
 0000C1E0  50		     2			PUSH EAX
 0000C1E1  B8 00000001	     2				MOV EAX, 1
 0000C1E6  A3 00000CB8 R     2				MOV UserLevelUpFlag, 	EAX
 0000C1EB  58		     2			POP EAX
 0000C1F1  50		     2			PUSH EAX
 0000C1F2  B8 00000001	     2				MOV EAX, 1
 0000C1F7  A3 00000CEC R     2				MOV EnoughTimer, 	EAX
 0000C1FC  58		     2			POP EAX
 0000C206  50		     2				PUSH 	EAX
 0000C207  B8 00000008	     2					MOV 	EAX, Gray
 0000C20C  E8 00000000 E     2					CALL	SetTextColor
 0000C211  58		     2				POP 	EAX
 0000C212  8A 15 00000002 R  3			MOV  	dl, CurrentPointX
 0000C218  8A 35 00000003 R  3			MOV  	dh, CurrentPointY
 0000C21E  88 15 00000000 R  3			MOV		LastPointX,	dl
 0000C224  88 35 00000001 R  3			MOV 	LastPointY,	dh
 0000C22A  B2 1D	     3			MOV  	dl, BYTE PTR 29
 0000C22C  B6 18	     3			MOV  	dh, BYTE PTR 24
 0000C22E  88 15 00000002 R  3			MOV 	CurrentPointX,	dl
 0000C234  88 35 00000003 R  3			MOV 	CurrentPointY,	dh
 0000C23A  E8 00000000 E     3			CALL 	Gotoxy  
 0000C23F  52		     3				PUSH EDX
 0000C240  52		     4			PUSH EDX
 0000C241  51		     4			PUSH ECX
 0000C242  56		     4			PUSH ESI
 0000C243  BA 0000032B R     4				MOV EDX, OFFSET KEY_Z_1
 0000C248  E8 00000000 E     4				CALL WriteString
 0000C24D  59		     4			POP ECX
 0000C24E  59		     4			POP ECX
 0000C24F  5E		     4			POP ESI
 0000C250  5A		     3				POP  EDX
 0000C251  FE C6	     3				INC  DH
 0000C253  E8 00000000 E     3				Call GoToXY
 0000C258  52		     3				PUSH EDX
 0000C259  52		     4			PUSH EDX
 0000C25A  51		     4			PUSH ECX
 0000C25B  56		     4			PUSH ESI
 0000C25C  BA 00000332 R     4				MOV EDX, OFFSET KEY_Z_2
 0000C261  E8 00000000 E     4				CALL WriteString
 0000C266  59		     4			POP ECX
 0000C267  59		     4			POP ECX
 0000C268  5E		     4			POP ESI
 0000C269  5A		     3				POP  EDX
 0000C26A  FE C6	     3				INC  DH
 0000C26C  E8 00000000 E     3				Call GoToXY
 0000C271  52		     3				PUSH EDX
 0000C272  52		     4			PUSH EDX
 0000C273  51		     4			PUSH ECX
 0000C274  56		     4			PUSH ESI
 0000C275  BA 00000341 R     4				MOV EDX, OFFSET KEY_Z_3
 0000C27A  E8 00000000 E     4				CALL WriteString
 0000C27F  59		     4			POP ECX
 0000C280  59		     4			POP ECX
 0000C281  5E		     4			POP ESI
 0000C282  5A		     3				POP  EDX
 0000C283  FE C6	     3				INC  DH
 0000C285  E8 00000000 E     3				Call GoToXY
 0000C293  52		     3				PUSH EDX
 0000C294  52		     4			PUSH EDX
 0000C295  51		     4			PUSH ECX
 0000C296  56		     4			PUSH ESI
 0000C297  BA 00000348 R     4				MOV EDX, OFFSET KEY_Z_M_1
 0000C29C  E8 00000000 E     4				CALL WriteString
 0000C2A1  59		     4			POP ECX
 0000C2A2  59		     4			POP ECX
 0000C2A3  5E		     4			POP ESI
 0000C2A4  5A		     3				POP  EDX
 0000C2A5  FE C6	     3				INC  DH
 0000C2A7  E8 00000000 E     3				Call GoToXY
 0000C2B7  52		     3				PUSH EDX
 0000C2B8  52		     4			PUSH EDX
 0000C2B9  51		     4			PUSH ECX
 0000C2BA  56		     4			PUSH ESI
 0000C2BB  BA 0000034E R     4				MOV EDX, OFFSET KEY_Z_M_2
 0000C2C0  E8 00000000 E     4				CALL WriteString
 0000C2C5  59		     4			POP ECX
 0000C2C6  59		     4			POP ECX
 0000C2C7  5E		     4			POP ESI
 0000C2C8  5A		     3				POP  EDX
 0000C2C9  FE C6	     3				INC  DH
 0000C2CB  E8 00000000 E     3				Call GoToXY
 0000C2DB  52		     3				PUSH EDX
 0000C2DC  52		     4			PUSH EDX
 0000C2DD  51		     4			PUSH ECX
 0000C2DE  56		     4			PUSH ESI
 0000C2DF  BA 00000354 R     4				MOV EDX, OFFSET KEY_Z_M_3
 0000C2E4  E8 00000000 E     4				CALL WriteString
 0000C2E9  59		     4			POP ECX
 0000C2EA  59		     4			POP ECX
 0000C2EB  5E		     4			POP ESI
 0000C2EC  5A		     3				POP  EDX
 0000C2ED  FE C6	     3				INC  DH
 0000C2EF  E8 00000000 E     3				Call GoToXY
 0000C2FD  50		     2				PUSH 	EAX
 0000C2FE  B8 00000007	     2					MOV 	EAX, 00000111b
 0000C303  E8 00000000 E     2					CALL	SetTextColor
 0000C308  58		     2				POP 	EAX
 0000C327  50		     2			PUSH EAX
 0000C328  B8 00000001	     2				MOV EAX, 1
 0000C32D  A3 00000CB8 R     2				MOV UserLevelUpFlag, 	EAX
 0000C332  58		     2			POP EAX
 0000C338  50		     2			PUSH EAX
 0000C339  B8 00000001	     2				MOV EAX, 1
 0000C33E  A3 00000CEC R     2				MOV EnoughTimer, 	EAX
 0000C343  58		     2			POP EAX
 0000C34D  50		     2				PUSH 	EAX
 0000C34E  B8 00000000	     2					MOV 	EAX, Black
 0000C353  E8 00000000 E     2					CALL	SetTextColor
 0000C358  58		     2				POP 	EAX
 0000C359  8A 15 00000002 R  3			MOV  	dl, CurrentPointX
 0000C35F  8A 35 00000003 R  3			MOV  	dh, CurrentPointY
 0000C365  88 15 00000000 R  3			MOV		LastPointX,	dl
 0000C36B  88 35 00000001 R  3			MOV 	LastPointY,	dh
 0000C371  B2 1D	     3			MOV  	dl, BYTE PTR 29
 0000C373  B6 18	     3			MOV  	dh, BYTE PTR 24
 0000C375  88 15 00000002 R  3			MOV 	CurrentPointX,	dl
 0000C37B  88 35 00000003 R  3			MOV 	CurrentPointY,	dh
 0000C381  E8 00000000 E     3			CALL 	Gotoxy  
 0000C386  52		     3				PUSH EDX
 0000C387  52		     4			PUSH EDX
 0000C388  51		     4			PUSH ECX
 0000C389  56		     4			PUSH ESI
 0000C38A  BA 0000032B R     4				MOV EDX, OFFSET KEY_Z_1
 0000C38F  E8 00000000 E     4				CALL WriteString
 0000C394  59		     4			POP ECX
 0000C395  59		     4			POP ECX
 0000C396  5E		     4			POP ESI
 0000C397  5A		     3				POP  EDX
 0000C398  FE C6	     3				INC  DH
 0000C39A  E8 00000000 E     3				Call GoToXY
 0000C39F  52		     3				PUSH EDX
 0000C3A0  52		     4			PUSH EDX
 0000C3A1  51		     4			PUSH ECX
 0000C3A2  56		     4			PUSH ESI
 0000C3A3  BA 00000332 R     4				MOV EDX, OFFSET KEY_Z_2
 0000C3A8  E8 00000000 E     4				CALL WriteString
 0000C3AD  59		     4			POP ECX
 0000C3AE  59		     4			POP ECX
 0000C3AF  5E		     4			POP ESI
 0000C3B0  5A		     3				POP  EDX
 0000C3B1  FE C6	     3				INC  DH
 0000C3B3  E8 00000000 E     3				Call GoToXY
 0000C3B8  52		     3				PUSH EDX
 0000C3B9  52		     4			PUSH EDX
 0000C3BA  51		     4			PUSH ECX
 0000C3BB  56		     4			PUSH ESI
 0000C3BC  BA 00000341 R     4				MOV EDX, OFFSET KEY_Z_3
 0000C3C1  E8 00000000 E     4				CALL WriteString
 0000C3C6  59		     4			POP ECX
 0000C3C7  59		     4			POP ECX
 0000C3C8  5E		     4			POP ESI
 0000C3C9  5A		     3				POP  EDX
 0000C3CA  FE C6	     3				INC  DH
 0000C3CC  E8 00000000 E     3				Call GoToXY
 0000C3DA  52		     3				PUSH EDX
 0000C3DB  52		     4			PUSH EDX
 0000C3DC  51		     4			PUSH ECX
 0000C3DD  56		     4			PUSH ESI
 0000C3DE  BA 00000348 R     4				MOV EDX, OFFSET KEY_Z_M_1
 0000C3E3  E8 00000000 E     4				CALL WriteString
 0000C3E8  59		     4			POP ECX
 0000C3E9  59		     4			POP ECX
 0000C3EA  5E		     4			POP ESI
 0000C3EB  5A		     3				POP  EDX
 0000C3EC  FE C6	     3				INC  DH
 0000C3EE  E8 00000000 E     3				Call GoToXY
 0000C3FE  52		     3				PUSH EDX
 0000C3FF  52		     4			PUSH EDX
 0000C400  51		     4			PUSH ECX
 0000C401  56		     4			PUSH ESI
 0000C402  BA 0000034E R     4				MOV EDX, OFFSET KEY_Z_M_2
 0000C407  E8 00000000 E     4				CALL WriteString
 0000C40C  59		     4			POP ECX
 0000C40D  59		     4			POP ECX
 0000C40E  5E		     4			POP ESI
 0000C40F  5A		     3				POP  EDX
 0000C410  FE C6	     3				INC  DH
 0000C412  E8 00000000 E     3				Call GoToXY
 0000C422  52		     3				PUSH EDX
 0000C423  52		     4			PUSH EDX
 0000C424  51		     4			PUSH ECX
 0000C425  56		     4			PUSH ESI
 0000C426  BA 00000354 R     4				MOV EDX, OFFSET KEY_Z_M_3
 0000C42B  E8 00000000 E     4				CALL WriteString
 0000C430  59		     4			POP ECX
 0000C431  59		     4			POP ECX
 0000C432  5E		     4			POP ESI
 0000C433  5A		     3				POP  EDX
 0000C434  FE C6	     3				INC  DH
 0000C436  E8 00000000 E     3				Call GoToXY
 0000C444  50		     2				PUSH 	EAX
 0000C445  B8 00000007	     2					MOV 	EAX, 00000111b
 0000C44A  E8 00000000 E     2					CALL	SetTextColor
 0000C44F  58		     2				POP 	EAX
 0000C463  50		     2			PUSH EAX
 0000C464  B8 00000001	     2				MOV EAX, 1
 0000C469  A3 00000CBC R     2				MOV CompLevelUpFlag, 	EAX
 0000C46E  58		     2			POP EAX
 0000C46F  61		     1			POPA
						Translate 60, 28
 0000C470  8A 15 00000002 R  1			MOV  	dl, CurrentPointX
 0000C476  8A 35 00000003 R  1			MOV  	dh, CurrentPointY
 0000C47C  88 15 00000000 R  1			MOV		LastPointX,	dl
 0000C482  88 35 00000001 R  1			MOV 	LastPointY,	dh
 0000C488  B2 3C	     1			MOV  	dl, BYTE PTR 60
 0000C48A  B6 1C	     1			MOV  	dh, BYTE PTR 28
 0000C48C  88 15 00000002 R  1			MOV 	CurrentPointX,	dl
 0000C492  88 35 00000003 R  1			MOV 	CurrentPointY,	dh
 0000C498  E8 00000000 E     1			CALL 	Gotoxy  
						
						PauseTime 250
 0000C49D  50		     1			PUSH 	EAX
 0000C49E  B8 000000FA	     1			MOV 	EAX, 250
 0000C4A3  E8 00000000 E     1			CALL 	Delay
 0000C4A8  58		     1			POP 	EAX
						;PauseTime 250
						Clear
 0000C4B2  50		     2				PUSH 	EAX
 0000C4B3  B8 00000000	     2					MOV 	EAX, Black
 0000C4B8  E8 00000000 E     2					CALL	SetTextColor
 0000C4BD  58		     2				POP 	EAX
 0000C4BE  50		     2			PUSH EAX
 0000C4BF  B8 00000001	     2				MOV EAX, 1
 0000C4C4  A3 00000CD4 R     2				MOV ClearOn, 	EAX
 0000C4C9  58		     2			POP EAX
 0000C4D7  60		     3			PUSHAD
 0000C4D8  B8 00000000	     3				MOV EAX, 0
 0000C4E1  50		     4			PUSH EAX
 0000C4E2  B8 00000005	     4				MOV EAX, 5
 0000C4E7  A3 00000DD1 R     4				MOV HPLineX, 	EAX
 0000C4EC  58		     4			POP EAX
 0000C4ED  50		     4			PUSH EAX
 0000C4EE  B8 0000000A	     4				MOV EAX, 10
 0000C4F3  A3 00000DD5 R     4				MOV HPLineY, 	EAX
 0000C4F8  58		     4			POP EAX
 0000C4F9  8B 1D 00000DC5 R  3					MOV EBX, UserCastleHP
 0000C501  50		     4			PUSH EAX
 0000C502  B8 00000069	     4				MOV EAX, 105
 0000C507  A3 00000DD1 R     4				MOV HPLineX, 	EAX
 0000C50C  58		     4			POP EAX
 0000C50D  50		     4			PUSH EAX
 0000C50E  B8 0000000A	     4				MOV EAX, 10
 0000C513  A3 00000DD5 R     4				MOV HPLineY, 	EAX
 0000C518  58		     4			POP EAX
 0000C519  8B 1D 00000DC9 R  3					MOV EBX, CompCastleHP
 0000C52B  60		     4			PUSHAD
 0000C52C  8A 15 00000002 R  5			MOV  	dl, CurrentPointX
 0000C532  8A 35 00000003 R  5			MOV  	dh, CurrentPointY
 0000C538  88 15 00000000 R  5			MOV		LastPointX,	dl
 0000C53E  88 35 00000001 R  5			MOV 	LastPointY,	dh
 0000C544  8A 15 00000DD1 R  5			MOV  	dl, BYTE PTR HPLineX
 0000C54A  8A 35 00000DD5 R  5			MOV  	dh, BYTE PTR HPLineY
 0000C550  88 15 00000002 R  5			MOV 	CurrentPointX,	dl
 0000C556  88 35 00000003 R  5			MOV 	CurrentPointY,	dh
 0000C55C  E8 00000000 E     5			CALL 	Gotoxy  
 0000C561  50		     5			PUSH 	EAX
 0000C562  8B C3	     5				MOV 	EAX,	EBX
 0000C564  E8 00000000 E     5				CALL 	WriteDec
 0000C569  58		     5			POP 	EAX
 0000C56A  50		     5			PUSH 	EAX
 0000C56B  B8 0000005B	     5				MOV 	EAX,	'['
 0000C570  E8 00000000 E     5				CALL 	WriteChar
 0000C575  58		     5			POP 	EAX
 0000C576  B9 00000004	     4				MOV ECX, 4
 0000C589  50		     5				PUSH 	EAX
 0000C58A  B8 00000004	     5					MOV 	EAX, Red
 0000C58F  E8 00000000 E     5					CALL	SetTextColor
 0000C594  58		     5				POP 	EAX
 0000C595  50		     5			PUSH 	EAX
 0000C596  B8 00000049	     5				MOV 	EAX,	'I'
 0000C59B  E8 00000000 E     5				CALL 	WriteChar
 0000C5A0  58		     5			POP 	EAX
 0000C5A1  50		     5			PUSH 	EAX
 0000C5A2  B8 00000020	     5				MOV 	EAX,	' '
 0000C5A7  E8 00000000 E     5				CALL 	WriteChar
 0000C5AC  58		     5			POP 	EAX
 0000C5AD  50		     5			PUSH 	EAX
 0000C5AE  B8 00000020	     5				MOV 	EAX,	' '
 0000C5B3  E8 00000000 E     5				CALL 	WriteChar
 0000C5B8  58		     5			POP 	EAX
 0000C5B9  50		     5			PUSH 	EAX
 0000C5BA  B8 00000020	     5				MOV 	EAX,	' '
 0000C5BF  E8 00000000 E     5				CALL 	WriteChar
 0000C5C4  58		     5			POP 	EAX
 0000C5D8  50		     5				PUSH 	EAX
 0000C5D9  B8 0000000C	     5					MOV 	EAX, LightRed
 0000C5DE  E8 00000000 E     5					CALL	SetTextColor
 0000C5E3  58		     5				POP 	EAX
 0000C5E4  50		     5			PUSH 	EAX
 0000C5E5  B8 00000049	     5				MOV 	EAX,	'I'
 0000C5EA  E8 00000000 E     5				CALL 	WriteChar
 0000C5EF  58		     5			POP 	EAX
 0000C5F0  50		     5			PUSH 	EAX
 0000C5F1  B8 00000049	     5				MOV 	EAX,	'I'
 0000C5F6  E8 00000000 E     5				CALL 	WriteChar
 0000C5FB  58		     5			POP 	EAX
 0000C5FC  50		     5			PUSH 	EAX
 0000C5FD  B8 00000020	     5				MOV 	EAX,	' '
 0000C602  E8 00000000 E     5				CALL 	WriteChar
 0000C607  58		     5			POP 	EAX
 0000C608  50		     5			PUSH 	EAX
 0000C609  B8 00000020	     5				MOV 	EAX,	' '
 0000C60E  E8 00000000 E     5				CALL 	WriteChar
 0000C613  58		     5			POP 	EAX
 0000C627  50		     5				PUSH 	EAX
 0000C628  B8 00000002	     5					MOV 	EAX, Green
 0000C62D  E8 00000000 E     5					CALL	SetTextColor
 0000C632  58		     5				POP 	EAX
 0000C633  50		     5			PUSH 	EAX
 0000C634  B8 00000049	     5				MOV 	EAX,	'I'
 0000C639  E8 00000000 E     5				CALL 	WriteChar
 0000C63E  58		     5			POP 	EAX
 0000C63F  50		     5			PUSH 	EAX
 0000C640  B8 00000049	     5				MOV 	EAX,	'I'
 0000C645  E8 00000000 E     5				CALL 	WriteChar
 0000C64A  58		     5			POP 	EAX
 0000C64B  50		     5			PUSH 	EAX
 0000C64C  B8 00000049	     5				MOV 	EAX,	'I'
 0000C651  E8 00000000 E     5				CALL 	WriteChar
 0000C656  58		     5			POP 	EAX
 0000C657  50		     5			PUSH 	EAX
 0000C658  B8 00000020	     5				MOV 	EAX,	' '
 0000C65D  E8 00000000 E     5				CALL 	WriteChar
 0000C662  58		     5			POP 	EAX
 0000C673  50		     5				PUSH 	EAX
 0000C674  B8 0000000A	     5					MOV 	EAX, LightGreen
 0000C679  E8 00000000 E     5					CALL	SetTextColor
 0000C67E  58		     5				POP 	EAX
 0000C67F  50		     5			PUSH 	EAX
 0000C680  B8 00000049	     5				MOV 	EAX,	'I'
 0000C685  E8 00000000 E     5				CALL 	WriteChar
 0000C68A  58		     5			POP 	EAX
 0000C68B  50		     5			PUSH 	EAX
 0000C68C  B8 00000049	     5				MOV 	EAX,	'I'
 0000C691  E8 00000000 E     5				CALL 	WriteChar
 0000C696  58		     5			POP 	EAX
 0000C697  50		     5			PUSH 	EAX
 0000C698  B8 00000049	     5				MOV 	EAX,	'I'
 0000C69D  E8 00000000 E     5				CALL 	WriteChar
 0000C6A2  58		     5			POP 	EAX
 0000C6A3  50		     5			PUSH 	EAX
 0000C6A4  B8 00000049	     5				MOV 	EAX,	'I'
 0000C6A9  E8 00000000 E     5				CALL 	WriteChar
 0000C6AE  58		     5			POP 	EAX
 0000C6B8  50		     5				PUSH 	EAX
 0000C6B9  B8 00000007	     5					MOV 	EAX, 00000111b
 0000C6BE  E8 00000000 E     5					CALL	SetTextColor
 0000C6C3  58		     5				POP 	EAX
 0000C6C4  50		     5			PUSH 	EAX
 0000C6C5  B8 0000005D	     5				MOV 	EAX,	']'
 0000C6CA  E8 00000000 E     5				CALL 	WriteChar
 0000C6CF  58		     5			POP 	EAX
 0000C6D0  8A 15 00000000 R  5			MOV  	dl, LastPointX
 0000C6D6  8A 35 00000001 R  5			MOV  	dh, LastPointY
 0000C6DC  88 15 00000002 R  5			MOV 	CurrentPointX,	dl
 0000C6E2  88 35 00000003 R  5			MOV 	CurrentPointY,	dh
 0000C6E8  E8 00000000 E     5			CALL 	Gotoxy 
 0000C6ED  61		     4			POPAD
 0000C6FF  60		     4			PUSHAD
 0000C700  8A 15 00000002 R  5			MOV  	dl, CurrentPointX
 0000C706  8A 35 00000003 R  5			MOV  	dh, CurrentPointY
 0000C70C  88 15 00000000 R  5			MOV		LastPointX,	dl
 0000C712  88 35 00000001 R  5			MOV 	LastPointY,	dh
 0000C718  8A 15 00000DD1 R  5			MOV  	dl, BYTE PTR HPLineX
 0000C71E  8A 35 00000DD5 R  5			MOV  	dh, BYTE PTR HPLineY
 0000C724  88 15 00000002 R  5			MOV 	CurrentPointX,	dl
 0000C72A  88 35 00000003 R  5			MOV 	CurrentPointY,	dh
 0000C730  E8 00000000 E     5			CALL 	Gotoxy  
 0000C735  50		     5			PUSH 	EAX
 0000C736  8B C3	     5				MOV 	EAX,	EBX
 0000C738  E8 00000000 E     5				CALL 	WriteDec
 0000C73D  58		     5			POP 	EAX
 0000C73E  50		     5			PUSH 	EAX
 0000C73F  B8 0000005B	     5				MOV 	EAX,	'['
 0000C744  E8 00000000 E     5				CALL 	WriteChar
 0000C749  58		     5			POP 	EAX
 0000C74A  B9 00000003	     4				MOV ECX, 3
 0000C75D  50		     5				PUSH 	EAX
 0000C75E  B8 00000004	     5					MOV 	EAX, Red
 0000C763  E8 00000000 E     5					CALL	SetTextColor
 0000C768  58		     5				POP 	EAX
 0000C769  50		     5			PUSH 	EAX
 0000C76A  B8 00000049	     5				MOV 	EAX,	'I'
 0000C76F  E8 00000000 E     5				CALL 	WriteChar
 0000C774  58		     5			POP 	EAX
 0000C775  50		     5			PUSH 	EAX
 0000C776  B8 00000020	     5				MOV 	EAX,	' '
 0000C77B  E8 00000000 E     5				CALL 	WriteChar
 0000C780  58		     5			POP 	EAX
 0000C781  50		     5			PUSH 	EAX
 0000C782  B8 00000020	     5				MOV 	EAX,	' '
 0000C787  E8 00000000 E     5				CALL 	WriteChar
 0000C78C  58		     5			POP 	EAX
 0000C78D  50		     5			PUSH 	EAX
 0000C78E  B8 00000020	     5				MOV 	EAX,	' '
 0000C793  E8 00000000 E     5				CALL 	WriteChar
 0000C798  58		     5			POP 	EAX
 0000C7AC  50		     5				PUSH 	EAX
 0000C7AD  B8 0000000C	     5					MOV 	EAX, LightRed
 0000C7B2  E8 00000000 E     5					CALL	SetTextColor
 0000C7B7  58		     5				POP 	EAX
 0000C7B8  50		     5			PUSH 	EAX
 0000C7B9  B8 00000049	     5				MOV 	EAX,	'I'
 0000C7BE  E8 00000000 E     5				CALL 	WriteChar
 0000C7C3  58		     5			POP 	EAX
 0000C7C4  50		     5			PUSH 	EAX
 0000C7C5  B8 00000049	     5				MOV 	EAX,	'I'
 0000C7CA  E8 00000000 E     5				CALL 	WriteChar
 0000C7CF  58		     5			POP 	EAX
 0000C7D0  50		     5			PUSH 	EAX
 0000C7D1  B8 00000020	     5				MOV 	EAX,	' '
 0000C7D6  E8 00000000 E     5				CALL 	WriteChar
 0000C7DB  58		     5			POP 	EAX
 0000C7DC  50		     5			PUSH 	EAX
 0000C7DD  B8 00000020	     5				MOV 	EAX,	' '
 0000C7E2  E8 00000000 E     5				CALL 	WriteChar
 0000C7E7  58		     5			POP 	EAX
 0000C7FB  50		     5				PUSH 	EAX
 0000C7FC  B8 00000002	     5					MOV 	EAX, Green
 0000C801  E8 00000000 E     5					CALL	SetTextColor
 0000C806  58		     5				POP 	EAX
 0000C807  50		     5			PUSH 	EAX
 0000C808  B8 00000049	     5				MOV 	EAX,	'I'
 0000C80D  E8 00000000 E     5				CALL 	WriteChar
 0000C812  58		     5			POP 	EAX
 0000C813  50		     5			PUSH 	EAX
 0000C814  B8 00000049	     5				MOV 	EAX,	'I'
 0000C819  E8 00000000 E     5				CALL 	WriteChar
 0000C81E  58		     5			POP 	EAX
 0000C81F  50		     5			PUSH 	EAX
 0000C820  B8 00000049	     5				MOV 	EAX,	'I'
 0000C825  E8 00000000 E     5				CALL 	WriteChar
 0000C82A  58		     5			POP 	EAX
 0000C82B  50		     5			PUSH 	EAX
 0000C82C  B8 00000020	     5				MOV 	EAX,	' '
 0000C831  E8 00000000 E     5				CALL 	WriteChar
 0000C836  58		     5			POP 	EAX
 0000C847  50		     5				PUSH 	EAX
 0000C848  B8 0000000A	     5					MOV 	EAX, LightGreen
 0000C84D  E8 00000000 E     5					CALL	SetTextColor
 0000C852  58		     5				POP 	EAX
 0000C853  50		     5			PUSH 	EAX
 0000C854  B8 00000049	     5				MOV 	EAX,	'I'
 0000C859  E8 00000000 E     5				CALL 	WriteChar
 0000C85E  58		     5			POP 	EAX
 0000C85F  50		     5			PUSH 	EAX
 0000C860  B8 00000049	     5				MOV 	EAX,	'I'
 0000C865  E8 00000000 E     5				CALL 	WriteChar
 0000C86A  58		     5			POP 	EAX
 0000C86B  50		     5			PUSH 	EAX
 0000C86C  B8 00000049	     5				MOV 	EAX,	'I'
 0000C871  E8 00000000 E     5				CALL 	WriteChar
 0000C876  58		     5			POP 	EAX
 0000C877  50		     5			PUSH 	EAX
 0000C878  B8 00000049	     5				MOV 	EAX,	'I'
 0000C87D  E8 00000000 E     5				CALL 	WriteChar
 0000C882  58		     5			POP 	EAX
 0000C88C  50		     5				PUSH 	EAX
 0000C88D  B8 00000007	     5					MOV 	EAX, 00000111b
 0000C892  E8 00000000 E     5					CALL	SetTextColor
 0000C897  58		     5				POP 	EAX
 0000C898  50		     5			PUSH 	EAX
 0000C899  B8 0000005D	     5				MOV 	EAX,	']'
 0000C89E  E8 00000000 E     5				CALL 	WriteChar
 0000C8A3  58		     5			POP 	EAX
 0000C8A4  8A 15 00000000 R  5			MOV  	dl, LastPointX
 0000C8AA  8A 35 00000001 R  5			MOV  	dh, LastPointY
 0000C8B0  88 15 00000002 R  5			MOV 	CurrentPointX,	dl
 0000C8B6  88 35 00000003 R  5			MOV 	CurrentPointY,	dh
 0000C8BC  E8 00000000 E     5			CALL 	Gotoxy 
 0000C8C1  61		     4			POPAD
 0000C8D3  60		     4			PUSHAD
 0000C8D4  8A 15 00000002 R  5			MOV  	dl, CurrentPointX
 0000C8DA  8A 35 00000003 R  5			MOV  	dh, CurrentPointY
 0000C8E0  88 15 00000000 R  5			MOV		LastPointX,	dl
 0000C8E6  88 35 00000001 R  5			MOV 	LastPointY,	dh
 0000C8EC  8A 15 00000DD1 R  5			MOV  	dl, BYTE PTR HPLineX
 0000C8F2  8A 35 00000DD5 R  5			MOV  	dh, BYTE PTR HPLineY
 0000C8F8  88 15 00000002 R  5			MOV 	CurrentPointX,	dl
 0000C8FE  88 35 00000003 R  5			MOV 	CurrentPointY,	dh
 0000C904  E8 00000000 E     5			CALL 	Gotoxy  
 0000C909  50		     5			PUSH 	EAX
 0000C90A  8B C3	     5				MOV 	EAX,	EBX
 0000C90C  E8 00000000 E     5				CALL 	WriteDec
 0000C911  58		     5			POP 	EAX
 0000C912  50		     5			PUSH 	EAX
 0000C913  B8 0000005B	     5				MOV 	EAX,	'['
 0000C918  E8 00000000 E     5				CALL 	WriteChar
 0000C91D  58		     5			POP 	EAX
 0000C91E  B9 00000002	     4				MOV ECX, 2
 0000C931  50		     5				PUSH 	EAX
 0000C932  B8 00000004	     5					MOV 	EAX, Red
 0000C937  E8 00000000 E     5					CALL	SetTextColor
 0000C93C  58		     5				POP 	EAX
 0000C93D  50		     5			PUSH 	EAX
 0000C93E  B8 00000049	     5				MOV 	EAX,	'I'
 0000C943  E8 00000000 E     5				CALL 	WriteChar
 0000C948  58		     5			POP 	EAX
 0000C949  50		     5			PUSH 	EAX
 0000C94A  B8 00000020	     5				MOV 	EAX,	' '
 0000C94F  E8 00000000 E     5				CALL 	WriteChar
 0000C954  58		     5			POP 	EAX
 0000C955  50		     5			PUSH 	EAX
 0000C956  B8 00000020	     5				MOV 	EAX,	' '
 0000C95B  E8 00000000 E     5				CALL 	WriteChar
 0000C960  58		     5			POP 	EAX
 0000C961  50		     5			PUSH 	EAX
 0000C962  B8 00000020	     5				MOV 	EAX,	' '
 0000C967  E8 00000000 E     5				CALL 	WriteChar
 0000C96C  58		     5			POP 	EAX
 0000C980  50		     5				PUSH 	EAX
 0000C981  B8 0000000C	     5					MOV 	EAX, LightRed
 0000C986  E8 00000000 E     5					CALL	SetTextColor
 0000C98B  58		     5				POP 	EAX
 0000C98C  50		     5			PUSH 	EAX
 0000C98D  B8 00000049	     5				MOV 	EAX,	'I'
 0000C992  E8 00000000 E     5				CALL 	WriteChar
 0000C997  58		     5			POP 	EAX
 0000C998  50		     5			PUSH 	EAX
 0000C999  B8 00000049	     5				MOV 	EAX,	'I'
 0000C99E  E8 00000000 E     5				CALL 	WriteChar
 0000C9A3  58		     5			POP 	EAX
 0000C9A4  50		     5			PUSH 	EAX
 0000C9A5  B8 00000020	     5				MOV 	EAX,	' '
 0000C9AA  E8 00000000 E     5				CALL 	WriteChar
 0000C9AF  58		     5			POP 	EAX
 0000C9B0  50		     5			PUSH 	EAX
 0000C9B1  B8 00000020	     5				MOV 	EAX,	' '
 0000C9B6  E8 00000000 E     5				CALL 	WriteChar
 0000C9BB  58		     5			POP 	EAX
 0000C9CF  50		     5				PUSH 	EAX
 0000C9D0  B8 00000002	     5					MOV 	EAX, Green
 0000C9D5  E8 00000000 E     5					CALL	SetTextColor
 0000C9DA  58		     5				POP 	EAX
 0000C9DB  50		     5			PUSH 	EAX
 0000C9DC  B8 00000049	     5				MOV 	EAX,	'I'
 0000C9E1  E8 00000000 E     5				CALL 	WriteChar
 0000C9E6  58		     5			POP 	EAX
 0000C9E7  50		     5			PUSH 	EAX
 0000C9E8  B8 00000049	     5				MOV 	EAX,	'I'
 0000C9ED  E8 00000000 E     5				CALL 	WriteChar
 0000C9F2  58		     5			POP 	EAX
 0000C9F3  50		     5			PUSH 	EAX
 0000C9F4  B8 00000049	     5				MOV 	EAX,	'I'
 0000C9F9  E8 00000000 E     5				CALL 	WriteChar
 0000C9FE  58		     5			POP 	EAX
 0000C9FF  50		     5			PUSH 	EAX
 0000CA00  B8 00000020	     5				MOV 	EAX,	' '
 0000CA05  E8 00000000 E     5				CALL 	WriteChar
 0000CA0A  58		     5			POP 	EAX
 0000CA1B  50		     5				PUSH 	EAX
 0000CA1C  B8 0000000A	     5					MOV 	EAX, LightGreen
 0000CA21  E8 00000000 E     5					CALL	SetTextColor
 0000CA26  58		     5				POP 	EAX
 0000CA27  50		     5			PUSH 	EAX
 0000CA28  B8 00000049	     5				MOV 	EAX,	'I'
 0000CA2D  E8 00000000 E     5				CALL 	WriteChar
 0000CA32  58		     5			POP 	EAX
 0000CA33  50		     5			PUSH 	EAX
 0000CA34  B8 00000049	     5				MOV 	EAX,	'I'
 0000CA39  E8 00000000 E     5				CALL 	WriteChar
 0000CA3E  58		     5			POP 	EAX
 0000CA3F  50		     5			PUSH 	EAX
 0000CA40  B8 00000049	     5				MOV 	EAX,	'I'
 0000CA45  E8 00000000 E     5				CALL 	WriteChar
 0000CA4A  58		     5			POP 	EAX
 0000CA4B  50		     5			PUSH 	EAX
 0000CA4C  B8 00000049	     5				MOV 	EAX,	'I'
 0000CA51  E8 00000000 E     5				CALL 	WriteChar
 0000CA56  58		     5			POP 	EAX
 0000CA60  50		     5				PUSH 	EAX
 0000CA61  B8 00000007	     5					MOV 	EAX, 00000111b
 0000CA66  E8 00000000 E     5					CALL	SetTextColor
 0000CA6B  58		     5				POP 	EAX
 0000CA6C  50		     5			PUSH 	EAX
 0000CA6D  B8 0000005D	     5				MOV 	EAX,	']'
 0000CA72  E8 00000000 E     5				CALL 	WriteChar
 0000CA77  58		     5			POP 	EAX
 0000CA78  8A 15 00000000 R  5			MOV  	dl, LastPointX
 0000CA7E  8A 35 00000001 R  5			MOV  	dh, LastPointY
 0000CA84  88 15 00000002 R  5			MOV 	CurrentPointX,	dl
 0000CA8A  88 35 00000003 R  5			MOV 	CurrentPointY,	dh
 0000CA90  E8 00000000 E     5			CALL 	Gotoxy 
 0000CA95  61		     4			POPAD
 0000CA9B  60		     4			PUSHAD
 0000CA9C  8A 15 00000002 R  5			MOV  	dl, CurrentPointX
 0000CAA2  8A 35 00000003 R  5			MOV  	dh, CurrentPointY
 0000CAA8  88 15 00000000 R  5			MOV		LastPointX,	dl
 0000CAAE  88 35 00000001 R  5			MOV 	LastPointY,	dh
 0000CAB4  8A 15 00000DD1 R  5			MOV  	dl, BYTE PTR HPLineX
 0000CABA  8A 35 00000DD5 R  5			MOV  	dh, BYTE PTR HPLineY
 0000CAC0  88 15 00000002 R  5			MOV 	CurrentPointX,	dl
 0000CAC6  88 35 00000003 R  5			MOV 	CurrentPointY,	dh
 0000CACC  E8 00000000 E     5			CALL 	Gotoxy  
 0000CAD1  50		     5			PUSH 	EAX
 0000CAD2  8B C3	     5				MOV 	EAX,	EBX
 0000CAD4  E8 00000000 E     5				CALL 	WriteDec
 0000CAD9  58		     5			POP 	EAX
 0000CADA  50		     5			PUSH 	EAX
 0000CADB  B8 0000005B	     5				MOV 	EAX,	'['
 0000CAE0  E8 00000000 E     5				CALL 	WriteChar
 0000CAE5  58		     5			POP 	EAX
 0000CAE6  B9 00000001	     4				MOV ECX, 1
 0000CAF9  50		     5				PUSH 	EAX
 0000CAFA  B8 00000004	     5					MOV 	EAX, Red
 0000CAFF  E8 00000000 E     5					CALL	SetTextColor
 0000CB04  58		     5				POP 	EAX
 0000CB05  50		     5			PUSH 	EAX
 0000CB06  B8 00000049	     5				MOV 	EAX,	'I'
 0000CB0B  E8 00000000 E     5				CALL 	WriteChar
 0000CB10  58		     5			POP 	EAX
 0000CB11  50		     5			PUSH 	EAX
 0000CB12  B8 00000020	     5				MOV 	EAX,	' '
 0000CB17  E8 00000000 E     5				CALL 	WriteChar
 0000CB1C  58		     5			POP 	EAX
 0000CB1D  50		     5			PUSH 	EAX
 0000CB1E  B8 00000020	     5				MOV 	EAX,	' '
 0000CB23  E8 00000000 E     5				CALL 	WriteChar
 0000CB28  58		     5			POP 	EAX
 0000CB29  50		     5			PUSH 	EAX
 0000CB2A  B8 00000020	     5				MOV 	EAX,	' '
 0000CB2F  E8 00000000 E     5				CALL 	WriteChar
 0000CB34  58		     5			POP 	EAX
 0000CB48  50		     5				PUSH 	EAX
 0000CB49  B8 0000000C	     5					MOV 	EAX, LightRed
 0000CB4E  E8 00000000 E     5					CALL	SetTextColor
 0000CB53  58		     5				POP 	EAX
 0000CB54  50		     5			PUSH 	EAX
 0000CB55  B8 00000049	     5				MOV 	EAX,	'I'
 0000CB5A  E8 00000000 E     5				CALL 	WriteChar
 0000CB5F  58		     5			POP 	EAX
 0000CB60  50		     5			PUSH 	EAX
 0000CB61  B8 00000049	     5				MOV 	EAX,	'I'
 0000CB66  E8 00000000 E     5				CALL 	WriteChar
 0000CB6B  58		     5			POP 	EAX
 0000CB6C  50		     5			PUSH 	EAX
 0000CB6D  B8 00000020	     5				MOV 	EAX,	' '
 0000CB72  E8 00000000 E     5				CALL 	WriteChar
 0000CB77  58		     5			POP 	EAX
 0000CB78  50		     5			PUSH 	EAX
 0000CB79  B8 00000020	     5				MOV 	EAX,	' '
 0000CB7E  E8 00000000 E     5				CALL 	WriteChar
 0000CB83  58		     5			POP 	EAX
 0000CB97  50		     5				PUSH 	EAX
 0000CB98  B8 00000002	     5					MOV 	EAX, Green
 0000CB9D  E8 00000000 E     5					CALL	SetTextColor
 0000CBA2  58		     5				POP 	EAX
 0000CBA3  50		     5			PUSH 	EAX
 0000CBA4  B8 00000049	     5				MOV 	EAX,	'I'
 0000CBA9  E8 00000000 E     5				CALL 	WriteChar
 0000CBAE  58		     5			POP 	EAX
 0000CBAF  50		     5			PUSH 	EAX
 0000CBB0  B8 00000049	     5				MOV 	EAX,	'I'
 0000CBB5  E8 00000000 E     5				CALL 	WriteChar
 0000CBBA  58		     5			POP 	EAX
 0000CBBB  50		     5			PUSH 	EAX
 0000CBBC  B8 00000049	     5				MOV 	EAX,	'I'
 0000CBC1  E8 00000000 E     5				CALL 	WriteChar
 0000CBC6  58		     5			POP 	EAX
 0000CBC7  50		     5			PUSH 	EAX
 0000CBC8  B8 00000020	     5				MOV 	EAX,	' '
 0000CBCD  E8 00000000 E     5				CALL 	WriteChar
 0000CBD2  58		     5			POP 	EAX
 0000CBE3  50		     5				PUSH 	EAX
 0000CBE4  B8 0000000A	     5					MOV 	EAX, LightGreen
 0000CBE9  E8 00000000 E     5					CALL	SetTextColor
 0000CBEE  58		     5				POP 	EAX
 0000CBEF  50		     5			PUSH 	EAX
 0000CBF0  B8 00000049	     5				MOV 	EAX,	'I'
 0000CBF5  E8 00000000 E     5				CALL 	WriteChar
 0000CBFA  58		     5			POP 	EAX
 0000CBFB  50		     5			PUSH 	EAX
 0000CBFC  B8 00000049	     5				MOV 	EAX,	'I'
 0000CC01  E8 00000000 E     5				CALL 	WriteChar
 0000CC06  58		     5			POP 	EAX
 0000CC07  50		     5			PUSH 	EAX
 0000CC08  B8 00000049	     5				MOV 	EAX,	'I'
 0000CC0D  E8 00000000 E     5				CALL 	WriteChar
 0000CC12  58		     5			POP 	EAX
 0000CC13  50		     5			PUSH 	EAX
 0000CC14  B8 00000049	     5				MOV 	EAX,	'I'
 0000CC19  E8 00000000 E     5				CALL 	WriteChar
 0000CC1E  58		     5			POP 	EAX
 0000CC28  50		     5				PUSH 	EAX
 0000CC29  B8 00000007	     5					MOV 	EAX, 00000111b
 0000CC2E  E8 00000000 E     5					CALL	SetTextColor
 0000CC33  58		     5				POP 	EAX
 0000CC34  50		     5			PUSH 	EAX
 0000CC35  B8 0000005D	     5				MOV 	EAX,	']'
 0000CC3A  E8 00000000 E     5				CALL 	WriteChar
 0000CC3F  58		     5			POP 	EAX
 0000CC40  8A 15 00000000 R  5			MOV  	dl, LastPointX
 0000CC46  8A 35 00000001 R  5			MOV  	dh, LastPointY
 0000CC4C  88 15 00000002 R  5			MOV 	CurrentPointX,	dl
 0000CC52  88 35 00000003 R  5			MOV 	CurrentPointY,	dh
 0000CC58  E8 00000000 E     5			CALL 	Gotoxy 
 0000CC5D  61		     4			POPAD
 0000CC5E  61		     3			POPAD
 0000CC5F  B8 00000000	     2			MOV EAX,	0
 0000CC75  50		     3				PUSH 	EAX
 0000CC76  B8 0000000E	     3					MOV 	EAX, Yellow
 0000CC7B  E8 00000000 E     3					CALL	SetTextColor
 0000CC80  58		     3				POP 	EAX
 0000CC8E  8A 15 00000002 R  4			MOV  	dl, CurrentPointX
 0000CC94  8A 35 00000003 R  4			MOV  	dh, CurrentPointY
 0000CC9A  88 15 00000000 R  4			MOV		LastPointX,	dl
 0000CCA0  88 35 00000001 R  4			MOV 	LastPointY,	dh
 0000CCA6  B2 00	     4			MOV  	dl, BYTE PTR 0
 0000CCA8  B6 0D	     4			MOV  	dh, BYTE PTR 13
 0000CCAA  88 15 00000002 R  4			MOV 	CurrentPointX,	dl
 0000CCB0  88 35 00000003 R  4			MOV 	CurrentPointY,	dh
 0000CCB6  E8 00000000 E     4			CALL 	Gotoxy  
 0000CCBB  52		     4				PUSH EDX
 0000CCBC  52		     5			PUSH EDX
 0000CCBD  51		     5			PUSH ECX
 0000CCBE  56		     5			PUSH ESI
 0000CCBF  BA 00000004 R     5				MOV EDX, OFFSET UserCastle_1_1
 0000CCC4  E8 00000000 E     5				CALL WriteString
 0000CCC9  59		     5			POP ECX
 0000CCCA  59		     5			POP ECX
 0000CCCB  5E		     5			POP ESI
 0000CCCC  5A		     4				POP  EDX
 0000CCCD  FE C6	     4				INC  DH
 0000CCCF  E8 00000000 E     4				Call GoToXY
 0000CCD4  52		     4				PUSH EDX
 0000CCD5  52		     5			PUSH EDX
 0000CCD6  51		     5			PUSH ECX
 0000CCD7  56		     5			PUSH ESI
 0000CCD8  BA 00000019 R     5				MOV EDX, OFFSET UserCastle_1_2
 0000CCDD  E8 00000000 E     5				CALL WriteString
 0000CCE2  59		     5			POP ECX
 0000CCE3  59		     5			POP ECX
 0000CCE4  5E		     5			POP ESI
 0000CCE5  5A		     4				POP  EDX
 0000CCE6  FE C6	     4				INC  DH
 0000CCE8  E8 00000000 E     4				Call GoToXY
 0000CCED  52		     4				PUSH EDX
 0000CCEE  52		     5			PUSH EDX
 0000CCEF  51		     5			PUSH ECX
 0000CCF0  56		     5			PUSH ESI
 0000CCF1  BA 00000031 R     5				MOV EDX, OFFSET UserCastle_1_3
 0000CCF6  E8 00000000 E     5				CALL WriteString
 0000CCFB  59		     5			POP ECX
 0000CCFC  59		     5			POP ECX
 0000CCFD  5E		     5			POP ESI
 0000CCFE  5A		     4				POP  EDX
 0000CCFF  FE C6	     4				INC  DH
 0000CD01  E8 00000000 E     4				Call GoToXY
 0000CD06  52		     4				PUSH EDX
 0000CD07  52		     5			PUSH EDX
 0000CD08  51		     5			PUSH ECX
 0000CD09  56		     5			PUSH ESI
 0000CD0A  BA 00000046 R     5				MOV EDX, OFFSET UserCastle_1_4
 0000CD0F  E8 00000000 E     5				CALL WriteString
 0000CD14  59		     5			POP ECX
 0000CD15  59		     5			POP ECX
 0000CD16  5E		     5			POP ESI
 0000CD17  5A		     4				POP  EDX
 0000CD18  FE C6	     4				INC  DH
 0000CD1A  E8 00000000 E     4				Call GoToXY
 0000CD1F  52		     4				PUSH EDX
 0000CD20  52		     5			PUSH EDX
 0000CD21  51		     5			PUSH ECX
 0000CD22  56		     5			PUSH ESI
 0000CD23  BA 0000005B R     5				MOV EDX, OFFSET UserCastle_1_5
 0000CD28  E8 00000000 E     5				CALL WriteString
 0000CD2D  59		     5			POP ECX
 0000CD2E  59		     5			POP ECX
 0000CD2F  5E		     5			POP ESI
 0000CD30  5A		     4				POP  EDX
 0000CD31  FE C6	     4				INC  DH
 0000CD33  E8 00000000 E     4				Call GoToXY
 0000CD4A  8A 15 00000002 R  4			MOV  	dl, CurrentPointX
 0000CD50  8A 35 00000003 R  4			MOV  	dh, CurrentPointY
 0000CD56  88 15 00000000 R  4			MOV		LastPointX,	dl
 0000CD5C  88 35 00000001 R  4			MOV 	LastPointY,	dh
 0000CD62  B2 00	     4			MOV  	dl, BYTE PTR 0
 0000CD64  B6 0A	     4			MOV  	dh, BYTE PTR 10
 0000CD66  88 15 00000002 R  4			MOV 	CurrentPointX,	dl
 0000CD6C  88 35 00000003 R  4			MOV 	CurrentPointY,	dh
 0000CD72  E8 00000000 E     4			CALL 	Gotoxy  
 0000CD77  52		     4				PUSH EDX
 0000CD78  52		     5			PUSH EDX
 0000CD79  51		     5			PUSH ECX
 0000CD7A  56		     5			PUSH ESI
 0000CD7B  BA 00000070 R     5				MOV EDX, OFFSET UserCastle_2_1
 0000CD80  E8 00000000 E     5				CALL WriteString
 0000CD85  59		     5			POP ECX
 0000CD86  59		     5			POP ECX
 0000CD87  5E		     5			POP ESI
 0000CD88  5A		     4				POP  EDX
 0000CD89  FE C6	     4				INC  DH
 0000CD8B  E8 00000000 E     4				Call GoToXY
 0000CD90  52		     4				PUSH EDX
 0000CD91  52		     5			PUSH EDX
 0000CD92  51		     5			PUSH ECX
 0000CD93  56		     5			PUSH ESI
 0000CD94  BA 00000083 R     5				MOV EDX, OFFSET UserCastle_2_2
 0000CD99  E8 00000000 E     5				CALL WriteString
 0000CD9E  59		     5			POP ECX
 0000CD9F  59		     5			POP ECX
 0000CDA0  5E		     5			POP ESI
 0000CDA1  5A		     4				POP  EDX
 0000CDA2  FE C6	     4				INC  DH
 0000CDA4  E8 00000000 E     4				Call GoToXY
 0000CDA9  52		     4				PUSH EDX
 0000CDAA  52		     5			PUSH EDX
 0000CDAB  51		     5			PUSH ECX
 0000CDAC  56		     5			PUSH ESI
 0000CDAD  BA 00000096 R     5				MOV EDX, OFFSET UserCastle_2_3
 0000CDB2  E8 00000000 E     5				CALL WriteString
 0000CDB7  59		     5			POP ECX
 0000CDB8  59		     5			POP ECX
 0000CDB9  5E		     5			POP ESI
 0000CDBA  5A		     4				POP  EDX
 0000CDBB  FE C6	     4				INC  DH
 0000CDBD  E8 00000000 E     4				Call GoToXY
 0000CDC2  52		     4				PUSH EDX
 0000CDC3  52		     5			PUSH EDX
 0000CDC4  51		     5			PUSH ECX
 0000CDC5  56		     5			PUSH ESI
 0000CDC6  BA 000000AA R     5				MOV EDX, OFFSET UserCastle_2_4
 0000CDCB  E8 00000000 E     5				CALL WriteString
 0000CDD0  59		     5			POP ECX
 0000CDD1  59		     5			POP ECX
 0000CDD2  5E		     5			POP ESI
 0000CDD3  5A		     4				POP  EDX
 0000CDD4  FE C6	     4				INC  DH
 0000CDD6  E8 00000000 E     4				Call GoToXY
 0000CDDB  52		     4				PUSH EDX
 0000CDDC  52		     5			PUSH EDX
 0000CDDD  51		     5			PUSH ECX
 0000CDDE  56		     5			PUSH ESI
 0000CDDF  BA 000000C0 R     5				MOV EDX, OFFSET UserCastle_2_5
 0000CDE4  E8 00000000 E     5				CALL WriteString
 0000CDE9  59		     5			POP ECX
 0000CDEA  59		     5			POP ECX
 0000CDEB  5E		     5			POP ESI
 0000CDEC  5A		     4				POP  EDX
 0000CDED  FE C6	     4				INC  DH
 0000CDEF  E8 00000000 E     4				Call GoToXY
 0000CDF4  52		     4				PUSH EDX
 0000CDF5  52		     5			PUSH EDX
 0000CDF6  51		     5			PUSH ECX
 0000CDF7  56		     5			PUSH ESI
 0000CDF8  BA 000000D8 R     5				MOV EDX, OFFSET UserCastle_2_6
 0000CDFD  E8 00000000 E     5				CALL WriteString
 0000CE02  59		     5			POP ECX
 0000CE03  59		     5			POP ECX
 0000CE04  5E		     5			POP ESI
 0000CE05  5A		     4				POP  EDX
 0000CE06  FE C6	     4				INC  DH
 0000CE08  E8 00000000 E     4				Call GoToXY
 0000CE0D  52		     4				PUSH EDX
 0000CE0E  52		     5			PUSH EDX
 0000CE0F  51		     5			PUSH ECX
 0000CE10  56		     5			PUSH ESI
 0000CE11  BA 000000ED R     5				MOV EDX, OFFSET UserCastle_2_7
 0000CE16  E8 00000000 E     5				CALL WriteString
 0000CE1B  59		     5			POP ECX
 0000CE1C  59		     5			POP ECX
 0000CE1D  5E		     5			POP ESI
 0000CE1E  5A		     4				POP  EDX
 0000CE1F  FE C6	     4				INC  DH
 0000CE21  E8 00000000 E     4				Call GoToXY
 0000CE26  52		     4				PUSH EDX
 0000CE27  52		     5			PUSH EDX
 0000CE28  51		     5			PUSH ECX
 0000CE29  56		     5			PUSH ESI
 0000CE2A  BA 00000104 R     5				MOV EDX, OFFSET UserCastle_2_8
 0000CE2F  E8 00000000 E     5				CALL WriteString
 0000CE34  59		     5			POP ECX
 0000CE35  59		     5			POP ECX
 0000CE36  5E		     5			POP ESI
 0000CE37  5A		     4				POP  EDX
 0000CE38  FE C6	     4				INC  DH
 0000CE3A  E8 00000000 E     4				Call GoToXY
 0000CE51  8A 15 00000002 R  4			MOV  	dl, CurrentPointX
 0000CE57  8A 35 00000003 R  4			MOV  	dh, CurrentPointY
 0000CE5D  88 15 00000000 R  4			MOV		LastPointX,	dl
 0000CE63  88 35 00000001 R  4			MOV 	LastPointY,	dh
 0000CE69  B2 00	     4			MOV  	dl, BYTE PTR 0
 0000CE6B  B6 09	     4			MOV  	dh, BYTE PTR 9
 0000CE6D  88 15 00000002 R  4			MOV 	CurrentPointX,	dl
 0000CE73  88 35 00000003 R  4			MOV 	CurrentPointY,	dh
 0000CE79  E8 00000000 E     4			CALL 	Gotoxy  
 0000CE7E  52		     4				PUSH EDX
 0000CE7F  52		     5			PUSH EDX
 0000CE80  51		     5			PUSH ECX
 0000CE81  56		     5			PUSH ESI
 0000CE82  BA 0000011B R     5				MOV EDX, OFFSET UserCastle_3_1
 0000CE87  E8 00000000 E     5				CALL WriteString
 0000CE8C  59		     5			POP ECX
 0000CE8D  59		     5			POP ECX
 0000CE8E  5E		     5			POP ESI
 0000CE8F  5A		     4				POP  EDX
 0000CE90  FE C6	     4				INC  DH
 0000CE92  E8 00000000 E     4				Call GoToXY
 0000CE97  52		     4				PUSH EDX
 0000CE98  52		     5			PUSH EDX
 0000CE99  51		     5			PUSH ECX
 0000CE9A  56		     5			PUSH ESI
 0000CE9B  BA 0000012D R     5				MOV EDX, OFFSET UserCastle_3_2
 0000CEA0  E8 00000000 E     5				CALL WriteString
 0000CEA5  59		     5			POP ECX
 0000CEA6  59		     5			POP ECX
 0000CEA7  5E		     5			POP ESI
 0000CEA8  5A		     4				POP  EDX
 0000CEA9  FE C6	     4				INC  DH
 0000CEAB  E8 00000000 E     4				Call GoToXY
 0000CEB0  52		     4				PUSH EDX
 0000CEB1  52		     5			PUSH EDX
 0000CEB2  51		     5			PUSH ECX
 0000CEB3  56		     5			PUSH ESI
 0000CEB4  BA 0000013F R     5				MOV EDX, OFFSET UserCastle_3_3
 0000CEB9  E8 00000000 E     5				CALL WriteString
 0000CEBE  59		     5			POP ECX
 0000CEBF  59		     5			POP ECX
 0000CEC0  5E		     5			POP ESI
 0000CEC1  5A		     4				POP  EDX
 0000CEC2  FE C6	     4				INC  DH
 0000CEC4  E8 00000000 E     4				Call GoToXY
 0000CEC9  52		     4				PUSH EDX
 0000CECA  52		     5			PUSH EDX
 0000CECB  51		     5			PUSH ECX
 0000CECC  56		     5			PUSH ESI
 0000CECD  BA 00000154 R     5				MOV EDX, OFFSET UserCastle_3_4
 0000CED2  E8 00000000 E     5				CALL WriteString
 0000CED7  59		     5			POP ECX
 0000CED8  59		     5			POP ECX
 0000CED9  5E		     5			POP ESI
 0000CEDA  5A		     4				POP  EDX
 0000CEDB  FE C6	     4				INC  DH
 0000CEDD  E8 00000000 E     4				Call GoToXY
 0000CEE2  52		     4				PUSH EDX
 0000CEE3  52		     5			PUSH EDX
 0000CEE4  51		     5			PUSH ECX
 0000CEE5  56		     5			PUSH ESI
 0000CEE6  BA 00000169 R     5				MOV EDX, OFFSET UserCastle_3_5
 0000CEEB  E8 00000000 E     5				CALL WriteString
 0000CEF0  59		     5			POP ECX
 0000CEF1  59		     5			POP ECX
 0000CEF2  5E		     5			POP ESI
 0000CEF3  5A		     4				POP  EDX
 0000CEF4  FE C6	     4				INC  DH
 0000CEF6  E8 00000000 E     4				Call GoToXY
 0000CEFB  52		     4				PUSH EDX
 0000CEFC  52		     5			PUSH EDX
 0000CEFD  51		     5			PUSH ECX
 0000CEFE  56		     5			PUSH ESI
 0000CEFF  BA 00000180 R     5				MOV EDX, OFFSET UserCastle_3_6
 0000CF04  E8 00000000 E     5				CALL WriteString
 0000CF09  59		     5			POP ECX
 0000CF0A  59		     5			POP ECX
 0000CF0B  5E		     5			POP ESI
 0000CF0C  5A		     4				POP  EDX
 0000CF0D  FE C6	     4				INC  DH
 0000CF0F  E8 00000000 E     4				Call GoToXY
 0000CF14  52		     4				PUSH EDX
 0000CF15  52		     5			PUSH EDX
 0000CF16  51		     5			PUSH ECX
 0000CF17  56		     5			PUSH ESI
 0000CF18  BA 00000197 R     5				MOV EDX, OFFSET UserCastle_3_7
 0000CF1D  E8 00000000 E     5				CALL WriteString
 0000CF22  59		     5			POP ECX
 0000CF23  59		     5			POP ECX
 0000CF24  5E		     5			POP ESI
 0000CF25  5A		     4				POP  EDX
 0000CF26  FE C6	     4				INC  DH
 0000CF28  E8 00000000 E     4				Call GoToXY
 0000CF2D  52		     4				PUSH EDX
 0000CF2E  52		     5			PUSH EDX
 0000CF2F  51		     5			PUSH ECX
 0000CF30  56		     5			PUSH ESI
 0000CF31  BA 000001AF R     5				MOV EDX, OFFSET UserCastle_3_8
 0000CF36  E8 00000000 E     5				CALL WriteString
 0000CF3B  59		     5			POP ECX
 0000CF3C  59		     5			POP ECX
 0000CF3D  5E		     5			POP ESI
 0000CF3E  5A		     4				POP  EDX
 0000CF3F  FE C6	     4				INC  DH
 0000CF41  E8 00000000 E     4				Call GoToXY
 0000CF46  52		     4				PUSH EDX
 0000CF47  52		     5			PUSH EDX
 0000CF48  51		     5			PUSH ECX
 0000CF49  56		     5			PUSH ESI
 0000CF4A  BA 000001C7 R     5				MOV EDX, OFFSET UserCastle_3_9
 0000CF4F  E8 00000000 E     5				CALL WriteString
 0000CF54  59		     5			POP ECX
 0000CF55  59		     5			POP ECX
 0000CF56  5E		     5			POP ESI
 0000CF57  5A		     4				POP  EDX
 0000CF58  FE C6	     4				INC  DH
 0000CF5A  E8 00000000 E     4				Call GoToXY
 0000CF6C  50		     3				PUSH 	EAX
 0000CF6D  B8 00000007	     3					MOV 	EAX, 00000111b
 0000CF72  E8 00000000 E     3					CALL	SetTextColor
 0000CF77  58		     3				POP 	EAX
 0000CF86  50		     3				PUSH 	EAX
 0000CF87  B8 0000000C	     3					MOV 	EAX, LightRed
 0000CF8C  E8 00000000 E     3					CALL	SetTextColor
 0000CF91  58		     3				POP 	EAX
 0000CF9F  8A 15 00000002 R  4			MOV  	dl, CurrentPointX
 0000CFA5  8A 35 00000003 R  4			MOV  	dh, CurrentPointY
 0000CFAB  88 15 00000000 R  4			MOV		LastPointX,	dl
 0000CFB1  88 35 00000001 R  4			MOV 	LastPointY,	dh
 0000CFB7  B2 00	     4			MOV  	dl, BYTE PTR 0
 0000CFB9  B6 0C	     4			MOV  	dh, BYTE PTR 12
 0000CFBB  88 15 00000002 R  4			MOV 	CurrentPointX,	dl
 0000CFC1  88 35 00000003 R  4			MOV 	CurrentPointY,	dh
 0000CFC7  E8 00000000 E     4			CALL 	Gotoxy  
 0000CFCC  52		     4				PUSH EDX
 0000CFCD  52		     5			PUSH EDX
 0000CFCE  51		     5			PUSH ECX
 0000CFCF  56		     5			PUSH ESI
 0000CFD0  BA 000001DF R     5				MOV EDX, OFFSET CompCastle_1_1
 0000CFD5  E8 00000000 E     5				CALL WriteString
 0000CFDA  59		     5			POP ECX
 0000CFDB  59		     5			POP ECX
 0000CFDC  5E		     5			POP ESI
 0000CFDD  5A		     4				POP  EDX
 0000CFDE  FE C6	     4				INC  DH
 0000CFE0  E8 00000000 E     4				Call GoToXY
 0000CFE5  52		     4				PUSH EDX
 0000CFE6  52		     5			PUSH EDX
 0000CFE7  51		     5			PUSH ECX
 0000CFE8  56		     5			PUSH ESI
 0000CFE9  BA 000001EF R     5				MOV EDX, OFFSET CompCastle_1_2
 0000CFEE  E8 00000000 E     5				CALL WriteString
 0000CFF3  59		     5			POP ECX
 0000CFF4  59		     5			POP ECX
 0000CFF5  5E		     5			POP ESI
 0000CFF6  5A		     4				POP  EDX
 0000CFF7  FE C6	     4				INC  DH
 0000CFF9  E8 00000000 E     4				Call GoToXY
 0000CFFE  52		     4				PUSH EDX
 0000CFFF  52		     5			PUSH EDX
 0000D000  51		     5			PUSH ECX
 0000D001  56		     5			PUSH ESI
 0000D002  BA 000001FC R     5				MOV EDX, OFFSET CompCastle_1_3
 0000D007  E8 00000000 E     5				CALL WriteString
 0000D00C  59		     5			POP ECX
 0000D00D  59		     5			POP ECX
 0000D00E  5E		     5			POP ESI
 0000D00F  5A		     4				POP  EDX
 0000D010  FE C6	     4				INC  DH
 0000D012  E8 00000000 E     4				Call GoToXY
 0000D017  52		     4				PUSH EDX
 0000D018  52		     5			PUSH EDX
 0000D019  51		     5			PUSH ECX
 0000D01A  56		     5			PUSH ESI
 0000D01B  BA 00000209 R     5				MOV EDX, OFFSET CompCastle_1_4
 0000D020  E8 00000000 E     5				CALL WriteString
 0000D025  59		     5			POP ECX
 0000D026  59		     5			POP ECX
 0000D027  5E		     5			POP ESI
 0000D028  5A		     4				POP  EDX
 0000D029  FE C6	     4				INC  DH
 0000D02B  E8 00000000 E     4				Call GoToXY
 0000D030  52		     4				PUSH EDX
 0000D031  52		     5			PUSH EDX
 0000D032  51		     5			PUSH ECX
 0000D033  56		     5			PUSH ESI
 0000D034  BA 00000216 R     5				MOV EDX, OFFSET CompCastle_1_5
 0000D039  E8 00000000 E     5				CALL WriteString
 0000D03E  59		     5			POP ECX
 0000D03F  59		     5			POP ECX
 0000D040  5E		     5			POP ESI
 0000D041  5A		     4				POP  EDX
 0000D042  FE C6	     4				INC  DH
 0000D044  E8 00000000 E     4				Call GoToXY
 0000D049  52		     4				PUSH EDX
 0000D04A  52		     5			PUSH EDX
 0000D04B  51		     5			PUSH ECX
 0000D04C  56		     5			PUSH ESI
 0000D04D  BA 00000223 R     5				MOV EDX, OFFSET CompCastle_1_6
 0000D052  E8 00000000 E     5				CALL WriteString
 0000D057  59		     5			POP ECX
 0000D058  59		     5			POP ECX
 0000D059  5E		     5			POP ESI
 0000D05A  5A		     4				POP  EDX
 0000D05B  FE C6	     4				INC  DH
 0000D05D  E8 00000000 E     4				Call GoToXY
 0000D074  8A 15 00000002 R  4			MOV  	dl, CurrentPointX
 0000D07A  8A 35 00000003 R  4			MOV  	dh, CurrentPointY
 0000D080  88 15 00000000 R  4			MOV		LastPointX,	dl
 0000D086  88 35 00000001 R  4			MOV 	LastPointY,	dh
 0000D08C  B2 00	     4			MOV  	dl, BYTE PTR 0
 0000D08E  B6 0A	     4			MOV  	dh, BYTE PTR 10
 0000D090  88 15 00000002 R  4			MOV 	CurrentPointX,	dl
 0000D096  88 35 00000003 R  4			MOV 	CurrentPointY,	dh
 0000D09C  E8 00000000 E     4			CALL 	Gotoxy  
 0000D0A1  52		     4				PUSH EDX
 0000D0A2  52		     5			PUSH EDX
 0000D0A3  51		     5			PUSH ECX
 0000D0A4  56		     5			PUSH ESI
 0000D0A5  BA 00000230 R     5				MOV EDX, OFFSET CompCastle_2_1
 0000D0AA  E8 00000000 E     5				CALL WriteString
 0000D0AF  59		     5			POP ECX
 0000D0B0  59		     5			POP ECX
 0000D0B1  5E		     5			POP ESI
 0000D0B2  5A		     4				POP  EDX
 0000D0B3  FE C6	     4				INC  DH
 0000D0B5  E8 00000000 E     4				Call GoToXY
 0000D0BA  52		     4				PUSH EDX
 0000D0BB  52		     5			PUSH EDX
 0000D0BC  51		     5			PUSH ECX
 0000D0BD  56		     5			PUSH ESI
 0000D0BE  BA 0000023B R     5				MOV EDX, OFFSET CompCastle_2_2
 0000D0C3  E8 00000000 E     5				CALL WriteString
 0000D0C8  59		     5			POP ECX
 0000D0C9  59		     5			POP ECX
 0000D0CA  5E		     5			POP ESI
 0000D0CB  5A		     4				POP  EDX
 0000D0CC  FE C6	     4				INC  DH
 0000D0CE  E8 00000000 E     4				Call GoToXY
 0000D0D3  52		     4				PUSH EDX
 0000D0D4  52		     5			PUSH EDX
 0000D0D5  51		     5			PUSH ECX
 0000D0D6  56		     5			PUSH ESI
 0000D0D7  BA 00000246 R     5				MOV EDX, OFFSET CompCastle_2_3
 0000D0DC  E8 00000000 E     5				CALL WriteString
 0000D0E1  59		     5			POP ECX
 0000D0E2  59		     5			POP ECX
 0000D0E3  5E		     5			POP ESI
 0000D0E4  5A		     4				POP  EDX
 0000D0E5  FE C6	     4				INC  DH
 0000D0E7  E8 00000000 E     4				Call GoToXY
 0000D0EC  52		     4				PUSH EDX
 0000D0ED  52		     5			PUSH EDX
 0000D0EE  51		     5			PUSH ECX
 0000D0EF  56		     5			PUSH ESI
 0000D0F0  BA 00000255 R     5				MOV EDX, OFFSET CompCastle_2_4
 0000D0F5  E8 00000000 E     5				CALL WriteString
 0000D0FA  59		     5			POP ECX
 0000D0FB  59		     5			POP ECX
 0000D0FC  5E		     5			POP ESI
 0000D0FD  5A		     4				POP  EDX
 0000D0FE  FE C6	     4				INC  DH
 0000D100  E8 00000000 E     4				Call GoToXY
 0000D105  52		     4				PUSH EDX
 0000D106  52		     5			PUSH EDX
 0000D107  51		     5			PUSH ECX
 0000D108  56		     5			PUSH ESI
 0000D109  BA 00000264 R     5				MOV EDX, OFFSET CompCastle_2_5
 0000D10E  E8 00000000 E     5				CALL WriteString
 0000D113  59		     5			POP ECX
 0000D114  59		     5			POP ECX
 0000D115  5E		     5			POP ESI
 0000D116  5A		     4				POP  EDX
 0000D117  FE C6	     4				INC  DH
 0000D119  E8 00000000 E     4				Call GoToXY
 0000D11E  52		     4				PUSH EDX
 0000D11F  52		     5			PUSH EDX
 0000D120  51		     5			PUSH ECX
 0000D121  56		     5			PUSH ESI
 0000D122  BA 00000275 R     5				MOV EDX, OFFSET CompCastle_2_6
 0000D127  E8 00000000 E     5				CALL WriteString
 0000D12C  59		     5			POP ECX
 0000D12D  59		     5			POP ECX
 0000D12E  5E		     5			POP ESI
 0000D12F  5A		     4				POP  EDX
 0000D130  FE C6	     4				INC  DH
 0000D132  E8 00000000 E     4				Call GoToXY
 0000D137  52		     4				PUSH EDX
 0000D138  52		     5			PUSH EDX
 0000D139  51		     5			PUSH ECX
 0000D13A  56		     5			PUSH ESI
 0000D13B  BA 00000286 R     5				MOV EDX, OFFSET CompCastle_2_7
 0000D140  E8 00000000 E     5				CALL WriteString
 0000D145  59		     5			POP ECX
 0000D146  59		     5			POP ECX
 0000D147  5E		     5			POP ESI
 0000D148  5A		     4				POP  EDX
 0000D149  FE C6	     4				INC  DH
 0000D14B  E8 00000000 E     4				Call GoToXY
 0000D150  52		     4				PUSH EDX
 0000D151  52		     5			PUSH EDX
 0000D152  51		     5			PUSH ECX
 0000D153  56		     5			PUSH ESI
 0000D154  BA 00000295 R     5				MOV EDX, OFFSET CompCastle_2_8
 0000D159  E8 00000000 E     5				CALL WriteString
 0000D15E  59		     5			POP ECX
 0000D15F  59		     5			POP ECX
 0000D160  5E		     5			POP ESI
 0000D161  5A		     4				POP  EDX
 0000D162  FE C6	     4				INC  DH
 0000D164  E8 00000000 E     4				Call GoToXY
 0000D17B  8A 15 00000002 R  4			MOV  	dl, CurrentPointX
 0000D181  8A 35 00000003 R  4			MOV  	dh, CurrentPointY
 0000D187  88 15 00000000 R  4			MOV		LastPointX,	dl
 0000D18D  88 35 00000001 R  4			MOV 	LastPointY,	dh
 0000D193  B2 00	     4			MOV  	dl, BYTE PTR 0
 0000D195  B6 09	     4			MOV  	dh, BYTE PTR 9
 0000D197  88 15 00000002 R  4			MOV 	CurrentPointX,	dl
 0000D19D  88 35 00000003 R  4			MOV 	CurrentPointY,	dh
 0000D1A3  E8 00000000 E     4			CALL 	Gotoxy  
 0000D1A8  52		     4				PUSH EDX
 0000D1A9  52		     5			PUSH EDX
 0000D1AA  51		     5			PUSH ECX
 0000D1AB  56		     5			PUSH ESI
 0000D1AC  BA 000002A4 R     5				MOV EDX, OFFSET CompCastle_3_1
 0000D1B1  E8 00000000 E     5				CALL WriteString
 0000D1B6  59		     5			POP ECX
 0000D1B7  59		     5			POP ECX
 0000D1B8  5E		     5			POP ESI
 0000D1B9  5A		     4				POP  EDX
 0000D1BA  FE C6	     4				INC  DH
 0000D1BC  E8 00000000 E     4				Call GoToXY
 0000D1C1  52		     4				PUSH EDX
 0000D1C2  52		     5			PUSH EDX
 0000D1C3  51		     5			PUSH ECX
 0000D1C4  56		     5			PUSH ESI
 0000D1C5  BA 000002B7 R     5				MOV EDX, OFFSET CompCastle_3_2
 0000D1CA  E8 00000000 E     5				CALL WriteString
 0000D1CF  59		     5			POP ECX
 0000D1D0  59		     5			POP ECX
 0000D1D1  5E		     5			POP ESI
 0000D1D2  5A		     4				POP  EDX
 0000D1D3  FE C6	     4				INC  DH
 0000D1D5  E8 00000000 E     4				Call GoToXY
 0000D1DA  52		     4				PUSH EDX
 0000D1DB  52		     5			PUSH EDX
 0000D1DC  51		     5			PUSH ECX
 0000D1DD  56		     5			PUSH ESI
 0000D1DE  BA 000002CC R     5				MOV EDX, OFFSET CompCastle_3_3
 0000D1E3  E8 00000000 E     5				CALL WriteString
 0000D1E8  59		     5			POP ECX
 0000D1E9  59		     5			POP ECX
 0000D1EA  5E		     5			POP ESI
 0000D1EB  5A		     4				POP  EDX
 0000D1EC  FE C6	     4				INC  DH
 0000D1EE  E8 00000000 E     4				Call GoToXY
 0000D1F3  52		     4				PUSH EDX
 0000D1F4  52		     5			PUSH EDX
 0000D1F5  51		     5			PUSH ECX
 0000D1F6  56		     5			PUSH ESI
 0000D1F7  BA 000002DD R     5				MOV EDX, OFFSET CompCastle_3_4
 0000D1FC  E8 00000000 E     5				CALL WriteString
 0000D201  59		     5			POP ECX
 0000D202  59		     5			POP ECX
 0000D203  5E		     5			POP ESI
 0000D204  5A		     4				POP  EDX
 0000D205  FE C6	     4				INC  DH
 0000D207  E8 00000000 E     4				Call GoToXY
 0000D20C  52		     4				PUSH EDX
 0000D20D  52		     5			PUSH EDX
 0000D20E  51		     5			PUSH ECX
 0000D20F  56		     5			PUSH ESI
 0000D210  BA 000002F3 R     5				MOV EDX, OFFSET CompCastle_3_5
 0000D215  E8 00000000 E     5				CALL WriteString
 0000D21A  59		     5			POP ECX
 0000D21B  59		     5			POP ECX
 0000D21C  5E		     5			POP ESI
 0000D21D  5A		     4				POP  EDX
 0000D21E  FE C6	     4				INC  DH
 0000D220  E8 00000000 E     4				Call GoToXY
 0000D225  52		     4				PUSH EDX
 0000D226  52		     5			PUSH EDX
 0000D227  51		     5			PUSH ECX
 0000D228  56		     5			PUSH ESI
 0000D229  BA 00000309 R     5				MOV EDX, OFFSET CompCastle_3_6
 0000D22E  E8 00000000 E     5				CALL WriteString
 0000D233  59		     5			POP ECX
 0000D234  59		     5			POP ECX
 0000D235  5E		     5			POP ESI
 0000D236  5A		     4				POP  EDX
 0000D237  FE C6	     4				INC  DH
 0000D239  E8 00000000 E     4				Call GoToXY
 0000D23E  52		     4				PUSH EDX
 0000D23F  52		     5			PUSH EDX
 0000D240  51		     5			PUSH ECX
 0000D241  56		     5			PUSH ESI
 0000D242  BA 0000031F R     5				MOV EDX, OFFSET CompCastle_3_7
 0000D247  E8 00000000 E     5				CALL WriteString
 0000D24C  59		     5			POP ECX
 0000D24D  59		     5			POP ECX
 0000D24E  5E		     5			POP ESI
 0000D24F  5A		     4				POP  EDX
 0000D250  FE C6	     4				INC  DH
 0000D252  E8 00000000 E     4				Call GoToXY
 0000D257  52		     4				PUSH EDX
 0000D258  52		     5			PUSH EDX
 0000D259  51		     5			PUSH ECX
 0000D25A  56		     5			PUSH ESI
 0000D25B  BA 00000336 R     5				MOV EDX, OFFSET CompCastle_3_8
 0000D260  E8 00000000 E     5				CALL WriteString
 0000D265  59		     5			POP ECX
 0000D266  59		     5			POP ECX
 0000D267  5E		     5			POP ESI
 0000D268  5A		     4				POP  EDX
 0000D269  FE C6	     4				INC  DH
 0000D26B  E8 00000000 E     4				Call GoToXY
 0000D270  52		     4				PUSH EDX
 0000D271  52		     5			PUSH EDX
 0000D272  51		     5			PUSH ECX
 0000D273  56		     5			PUSH ESI
 0000D274  BA 00000347 R     5				MOV EDX, OFFSET CompCastle_3_9
 0000D279  E8 00000000 E     5				CALL WriteString
 0000D27E  59		     5			POP ECX
 0000D27F  59		     5			POP ECX
 0000D280  5E		     5			POP ESI
 0000D281  5A		     4				POP  EDX
 0000D282  FE C6	     4				INC  DH
 0000D284  E8 00000000 E     4				Call GoToXY
 0000D292  50		     3				PUSH 	EAX
 0000D293  B8 00000007	     3					MOV 	EAX, 00000111b
 0000D298  E8 00000000 E     3					CALL	SetTextColor
 0000D29D  58		     3				POP 	EAX
 0000D2AB  60		     3			PUSHAD
 0000D2AC  B8 00000001	     3				MOV EAX, 1
 0000D2B5  50		     4			PUSH EAX
 0000D2B6  B8 00000005	     4				MOV EAX, 5
 0000D2BB  A3 00000DD1 R     4				MOV HPLineX, 	EAX
 0000D2C0  58		     4			POP EAX
 0000D2C1  50		     4			PUSH EAX
 0000D2C2  B8 0000000A	     4				MOV EAX, 10
 0000D2C7  A3 00000DD5 R     4				MOV HPLineY, 	EAX
 0000D2CC  58		     4			POP EAX
 0000D2CD  8B 1D 00000DC5 R  3					MOV EBX, UserCastleHP
 0000D2D5  50		     4			PUSH EAX
 0000D2D6  B8 00000069	     4				MOV EAX, 105
 0000D2DB  A3 00000DD1 R     4				MOV HPLineX, 	EAX
 0000D2E0  58		     4			POP EAX
 0000D2E1  50		     4			PUSH EAX
 0000D2E2  B8 0000000A	     4				MOV EAX, 10
 0000D2E7  A3 00000DD5 R     4				MOV HPLineY, 	EAX
 0000D2EC  58		     4			POP EAX
 0000D2ED  8B 1D 00000DC9 R  3					MOV EBX, CompCastleHP
 0000D2FF  60		     4			PUSHAD
 0000D300  8A 15 00000002 R  5			MOV  	dl, CurrentPointX
 0000D306  8A 35 00000003 R  5			MOV  	dh, CurrentPointY
 0000D30C  88 15 00000000 R  5			MOV		LastPointX,	dl
 0000D312  88 35 00000001 R  5			MOV 	LastPointY,	dh
 0000D318  8A 15 00000DD1 R  5			MOV  	dl, BYTE PTR HPLineX
 0000D31E  8A 35 00000DD5 R  5			MOV  	dh, BYTE PTR HPLineY
 0000D324  88 15 00000002 R  5			MOV 	CurrentPointX,	dl
 0000D32A  88 35 00000003 R  5			MOV 	CurrentPointY,	dh
 0000D330  E8 00000000 E     5			CALL 	Gotoxy  
 0000D335  50		     5			PUSH 	EAX
 0000D336  8B C3	     5				MOV 	EAX,	EBX
 0000D338  E8 00000000 E     5				CALL 	WriteDec
 0000D33D  58		     5			POP 	EAX
 0000D33E  50		     5			PUSH 	EAX
 0000D33F  B8 0000005B	     5				MOV 	EAX,	'['
 0000D344  E8 00000000 E     5				CALL 	WriteChar
 0000D349  58		     5			POP 	EAX
 0000D34A  B9 00000004	     4				MOV ECX, 4
 0000D35D  50		     5				PUSH 	EAX
 0000D35E  B8 00000004	     5					MOV 	EAX, Red
 0000D363  E8 00000000 E     5					CALL	SetTextColor
 0000D368  58		     5				POP 	EAX
 0000D369  50		     5			PUSH 	EAX
 0000D36A  B8 00000049	     5				MOV 	EAX,	'I'
 0000D36F  E8 00000000 E     5				CALL 	WriteChar
 0000D374  58		     5			POP 	EAX
 0000D375  50		     5			PUSH 	EAX
 0000D376  B8 00000020	     5				MOV 	EAX,	' '
 0000D37B  E8 00000000 E     5				CALL 	WriteChar
 0000D380  58		     5			POP 	EAX
 0000D381  50		     5			PUSH 	EAX
 0000D382  B8 00000020	     5				MOV 	EAX,	' '
 0000D387  E8 00000000 E     5				CALL 	WriteChar
 0000D38C  58		     5			POP 	EAX
 0000D38D  50		     5			PUSH 	EAX
 0000D38E  B8 00000020	     5				MOV 	EAX,	' '
 0000D393  E8 00000000 E     5				CALL 	WriteChar
 0000D398  58		     5			POP 	EAX
 0000D3AC  50		     5				PUSH 	EAX
 0000D3AD  B8 0000000C	     5					MOV 	EAX, LightRed
 0000D3B2  E8 00000000 E     5					CALL	SetTextColor
 0000D3B7  58		     5				POP 	EAX
 0000D3B8  50		     5			PUSH 	EAX
 0000D3B9  B8 00000049	     5				MOV 	EAX,	'I'
 0000D3BE  E8 00000000 E     5				CALL 	WriteChar
 0000D3C3  58		     5			POP 	EAX
 0000D3C4  50		     5			PUSH 	EAX
 0000D3C5  B8 00000049	     5				MOV 	EAX,	'I'
 0000D3CA  E8 00000000 E     5				CALL 	WriteChar
 0000D3CF  58		     5			POP 	EAX
 0000D3D0  50		     5			PUSH 	EAX
 0000D3D1  B8 00000020	     5				MOV 	EAX,	' '
 0000D3D6  E8 00000000 E     5				CALL 	WriteChar
 0000D3DB  58		     5			POP 	EAX
 0000D3DC  50		     5			PUSH 	EAX
 0000D3DD  B8 00000020	     5				MOV 	EAX,	' '
 0000D3E2  E8 00000000 E     5				CALL 	WriteChar
 0000D3E7  58		     5			POP 	EAX
 0000D3FB  50		     5				PUSH 	EAX
 0000D3FC  B8 00000002	     5					MOV 	EAX, Green
 0000D401  E8 00000000 E     5					CALL	SetTextColor
 0000D406  58		     5				POP 	EAX
 0000D407  50		     5			PUSH 	EAX
 0000D408  B8 00000049	     5				MOV 	EAX,	'I'
 0000D40D  E8 00000000 E     5				CALL 	WriteChar
 0000D412  58		     5			POP 	EAX
 0000D413  50		     5			PUSH 	EAX
 0000D414  B8 00000049	     5				MOV 	EAX,	'I'
 0000D419  E8 00000000 E     5				CALL 	WriteChar
 0000D41E  58		     5			POP 	EAX
 0000D41F  50		     5			PUSH 	EAX
 0000D420  B8 00000049	     5				MOV 	EAX,	'I'
 0000D425  E8 00000000 E     5				CALL 	WriteChar
 0000D42A  58		     5			POP 	EAX
 0000D42B  50		     5			PUSH 	EAX
 0000D42C  B8 00000020	     5				MOV 	EAX,	' '
 0000D431  E8 00000000 E     5				CALL 	WriteChar
 0000D436  58		     5			POP 	EAX
 0000D447  50		     5				PUSH 	EAX
 0000D448  B8 0000000A	     5					MOV 	EAX, LightGreen
 0000D44D  E8 00000000 E     5					CALL	SetTextColor
 0000D452  58		     5				POP 	EAX
 0000D453  50		     5			PUSH 	EAX
 0000D454  B8 00000049	     5				MOV 	EAX,	'I'
 0000D459  E8 00000000 E     5				CALL 	WriteChar
 0000D45E  58		     5			POP 	EAX
 0000D45F  50		     5			PUSH 	EAX
 0000D460  B8 00000049	     5				MOV 	EAX,	'I'
 0000D465  E8 00000000 E     5				CALL 	WriteChar
 0000D46A  58		     5			POP 	EAX
 0000D46B  50		     5			PUSH 	EAX
 0000D46C  B8 00000049	     5				MOV 	EAX,	'I'
 0000D471  E8 00000000 E     5				CALL 	WriteChar
 0000D476  58		     5			POP 	EAX
 0000D477  50		     5			PUSH 	EAX
 0000D478  B8 00000049	     5				MOV 	EAX,	'I'
 0000D47D  E8 00000000 E     5				CALL 	WriteChar
 0000D482  58		     5			POP 	EAX
 0000D48C  50		     5				PUSH 	EAX
 0000D48D  B8 00000007	     5					MOV 	EAX, 00000111b
 0000D492  E8 00000000 E     5					CALL	SetTextColor
 0000D497  58		     5				POP 	EAX
 0000D498  50		     5			PUSH 	EAX
 0000D499  B8 0000005D	     5				MOV 	EAX,	']'
 0000D49E  E8 00000000 E     5				CALL 	WriteChar
 0000D4A3  58		     5			POP 	EAX
 0000D4A4  8A 15 00000000 R  5			MOV  	dl, LastPointX
 0000D4AA  8A 35 00000001 R  5			MOV  	dh, LastPointY
 0000D4B0  88 15 00000002 R  5			MOV 	CurrentPointX,	dl
 0000D4B6  88 35 00000003 R  5			MOV 	CurrentPointY,	dh
 0000D4BC  E8 00000000 E     5			CALL 	Gotoxy 
 0000D4C1  61		     4			POPAD
 0000D4D3  60		     4			PUSHAD
 0000D4D4  8A 15 00000002 R  5			MOV  	dl, CurrentPointX
 0000D4DA  8A 35 00000003 R  5			MOV  	dh, CurrentPointY
 0000D4E0  88 15 00000000 R  5			MOV		LastPointX,	dl
 0000D4E6  88 35 00000001 R  5			MOV 	LastPointY,	dh
 0000D4EC  8A 15 00000DD1 R  5			MOV  	dl, BYTE PTR HPLineX
 0000D4F2  8A 35 00000DD5 R  5			MOV  	dh, BYTE PTR HPLineY
 0000D4F8  88 15 00000002 R  5			MOV 	CurrentPointX,	dl
 0000D4FE  88 35 00000003 R  5			MOV 	CurrentPointY,	dh
 0000D504  E8 00000000 E     5			CALL 	Gotoxy  
 0000D509  50		     5			PUSH 	EAX
 0000D50A  8B C3	     5				MOV 	EAX,	EBX
 0000D50C  E8 00000000 E     5				CALL 	WriteDec
 0000D511  58		     5			POP 	EAX
 0000D512  50		     5			PUSH 	EAX
 0000D513  B8 0000005B	     5				MOV 	EAX,	'['
 0000D518  E8 00000000 E     5				CALL 	WriteChar
 0000D51D  58		     5			POP 	EAX
 0000D51E  B9 00000003	     4				MOV ECX, 3
 0000D531  50		     5				PUSH 	EAX
 0000D532  B8 00000004	     5					MOV 	EAX, Red
 0000D537  E8 00000000 E     5					CALL	SetTextColor
 0000D53C  58		     5				POP 	EAX
 0000D53D  50		     5			PUSH 	EAX
 0000D53E  B8 00000049	     5				MOV 	EAX,	'I'
 0000D543  E8 00000000 E     5				CALL 	WriteChar
 0000D548  58		     5			POP 	EAX
 0000D549  50		     5			PUSH 	EAX
 0000D54A  B8 00000020	     5				MOV 	EAX,	' '
 0000D54F  E8 00000000 E     5				CALL 	WriteChar
 0000D554  58		     5			POP 	EAX
 0000D555  50		     5			PUSH 	EAX
 0000D556  B8 00000020	     5				MOV 	EAX,	' '
 0000D55B  E8 00000000 E     5				CALL 	WriteChar
 0000D560  58		     5			POP 	EAX
 0000D561  50		     5			PUSH 	EAX
 0000D562  B8 00000020	     5				MOV 	EAX,	' '
 0000D567  E8 00000000 E     5				CALL 	WriteChar
 0000D56C  58		     5			POP 	EAX
 0000D580  50		     5				PUSH 	EAX
 0000D581  B8 0000000C	     5					MOV 	EAX, LightRed
 0000D586  E8 00000000 E     5					CALL	SetTextColor
 0000D58B  58		     5				POP 	EAX
 0000D58C  50		     5			PUSH 	EAX
 0000D58D  B8 00000049	     5				MOV 	EAX,	'I'
 0000D592  E8 00000000 E     5				CALL 	WriteChar
 0000D597  58		     5			POP 	EAX
 0000D598  50		     5			PUSH 	EAX
 0000D599  B8 00000049	     5				MOV 	EAX,	'I'
 0000D59E  E8 00000000 E     5				CALL 	WriteChar
 0000D5A3  58		     5			POP 	EAX
 0000D5A4  50		     5			PUSH 	EAX
 0000D5A5  B8 00000020	     5				MOV 	EAX,	' '
 0000D5AA  E8 00000000 E     5				CALL 	WriteChar
 0000D5AF  58		     5			POP 	EAX
 0000D5B0  50		     5			PUSH 	EAX
 0000D5B1  B8 00000020	     5				MOV 	EAX,	' '
 0000D5B6  E8 00000000 E     5				CALL 	WriteChar
 0000D5BB  58		     5			POP 	EAX
 0000D5CF  50		     5				PUSH 	EAX
 0000D5D0  B8 00000002	     5					MOV 	EAX, Green
 0000D5D5  E8 00000000 E     5					CALL	SetTextColor
 0000D5DA  58		     5				POP 	EAX
 0000D5DB  50		     5			PUSH 	EAX
 0000D5DC  B8 00000049	     5				MOV 	EAX,	'I'
 0000D5E1  E8 00000000 E     5				CALL 	WriteChar
 0000D5E6  58		     5			POP 	EAX
 0000D5E7  50		     5			PUSH 	EAX
 0000D5E8  B8 00000049	     5				MOV 	EAX,	'I'
 0000D5ED  E8 00000000 E     5				CALL 	WriteChar
 0000D5F2  58		     5			POP 	EAX
 0000D5F3  50		     5			PUSH 	EAX
 0000D5F4  B8 00000049	     5				MOV 	EAX,	'I'
 0000D5F9  E8 00000000 E     5				CALL 	WriteChar
 0000D5FE  58		     5			POP 	EAX
 0000D5FF  50		     5			PUSH 	EAX
 0000D600  B8 00000020	     5				MOV 	EAX,	' '
 0000D605  E8 00000000 E     5				CALL 	WriteChar
 0000D60A  58		     5			POP 	EAX
 0000D61B  50		     5				PUSH 	EAX
 0000D61C  B8 0000000A	     5					MOV 	EAX, LightGreen
 0000D621  E8 00000000 E     5					CALL	SetTextColor
 0000D626  58		     5				POP 	EAX
 0000D627  50		     5			PUSH 	EAX
 0000D628  B8 00000049	     5				MOV 	EAX,	'I'
 0000D62D  E8 00000000 E     5				CALL 	WriteChar
 0000D632  58		     5			POP 	EAX
 0000D633  50		     5			PUSH 	EAX
 0000D634  B8 00000049	     5				MOV 	EAX,	'I'
 0000D639  E8 00000000 E     5				CALL 	WriteChar
 0000D63E  58		     5			POP 	EAX
 0000D63F  50		     5			PUSH 	EAX
 0000D640  B8 00000049	     5				MOV 	EAX,	'I'
 0000D645  E8 00000000 E     5				CALL 	WriteChar
 0000D64A  58		     5			POP 	EAX
 0000D64B  50		     5			PUSH 	EAX
 0000D64C  B8 00000049	     5				MOV 	EAX,	'I'
 0000D651  E8 00000000 E     5				CALL 	WriteChar
 0000D656  58		     5			POP 	EAX
 0000D660  50		     5				PUSH 	EAX
 0000D661  B8 00000007	     5					MOV 	EAX, 00000111b
 0000D666  E8 00000000 E     5					CALL	SetTextColor
 0000D66B  58		     5				POP 	EAX
 0000D66C  50		     5			PUSH 	EAX
 0000D66D  B8 0000005D	     5				MOV 	EAX,	']'
 0000D672  E8 00000000 E     5				CALL 	WriteChar
 0000D677  58		     5			POP 	EAX
 0000D678  8A 15 00000000 R  5			MOV  	dl, LastPointX
 0000D67E  8A 35 00000001 R  5			MOV  	dh, LastPointY
 0000D684  88 15 00000002 R  5			MOV 	CurrentPointX,	dl
 0000D68A  88 35 00000003 R  5			MOV 	CurrentPointY,	dh
 0000D690  E8 00000000 E     5			CALL 	Gotoxy 
 0000D695  61		     4			POPAD
 0000D6A7  60		     4			PUSHAD
 0000D6A8  8A 15 00000002 R  5			MOV  	dl, CurrentPointX
 0000D6AE  8A 35 00000003 R  5			MOV  	dh, CurrentPointY
 0000D6B4  88 15 00000000 R  5			MOV		LastPointX,	dl
 0000D6BA  88 35 00000001 R  5			MOV 	LastPointY,	dh
 0000D6C0  8A 15 00000DD1 R  5			MOV  	dl, BYTE PTR HPLineX
 0000D6C6  8A 35 00000DD5 R  5			MOV  	dh, BYTE PTR HPLineY
 0000D6CC  88 15 00000002 R  5			MOV 	CurrentPointX,	dl
 0000D6D2  88 35 00000003 R  5			MOV 	CurrentPointY,	dh
 0000D6D8  E8 00000000 E     5			CALL 	Gotoxy  
 0000D6DD  50		     5			PUSH 	EAX
 0000D6DE  8B C3	     5				MOV 	EAX,	EBX
 0000D6E0  E8 00000000 E     5				CALL 	WriteDec
 0000D6E5  58		     5			POP 	EAX
 0000D6E6  50		     5			PUSH 	EAX
 0000D6E7  B8 0000005B	     5				MOV 	EAX,	'['
 0000D6EC  E8 00000000 E     5				CALL 	WriteChar
 0000D6F1  58		     5			POP 	EAX
 0000D6F2  B9 00000002	     4				MOV ECX, 2
 0000D705  50		     5				PUSH 	EAX
 0000D706  B8 00000004	     5					MOV 	EAX, Red
 0000D70B  E8 00000000 E     5					CALL	SetTextColor
 0000D710  58		     5				POP 	EAX
 0000D711  50		     5			PUSH 	EAX
 0000D712  B8 00000049	     5				MOV 	EAX,	'I'
 0000D717  E8 00000000 E     5				CALL 	WriteChar
 0000D71C  58		     5			POP 	EAX
 0000D71D  50		     5			PUSH 	EAX
 0000D71E  B8 00000020	     5				MOV 	EAX,	' '
 0000D723  E8 00000000 E     5				CALL 	WriteChar
 0000D728  58		     5			POP 	EAX
 0000D729  50		     5			PUSH 	EAX
 0000D72A  B8 00000020	     5				MOV 	EAX,	' '
 0000D72F  E8 00000000 E     5				CALL 	WriteChar
 0000D734  58		     5			POP 	EAX
 0000D735  50		     5			PUSH 	EAX
 0000D736  B8 00000020	     5				MOV 	EAX,	' '
 0000D73B  E8 00000000 E     5				CALL 	WriteChar
 0000D740  58		     5			POP 	EAX
 0000D754  50		     5				PUSH 	EAX
 0000D755  B8 0000000C	     5					MOV 	EAX, LightRed
 0000D75A  E8 00000000 E     5					CALL	SetTextColor
 0000D75F  58		     5				POP 	EAX
 0000D760  50		     5			PUSH 	EAX
 0000D761  B8 00000049	     5				MOV 	EAX,	'I'
 0000D766  E8 00000000 E     5				CALL 	WriteChar
 0000D76B  58		     5			POP 	EAX
 0000D76C  50		     5			PUSH 	EAX
 0000D76D  B8 00000049	     5				MOV 	EAX,	'I'
 0000D772  E8 00000000 E     5				CALL 	WriteChar
 0000D777  58		     5			POP 	EAX
 0000D778  50		     5			PUSH 	EAX
 0000D779  B8 00000020	     5				MOV 	EAX,	' '
 0000D77E  E8 00000000 E     5				CALL 	WriteChar
 0000D783  58		     5			POP 	EAX
 0000D784  50		     5			PUSH 	EAX
 0000D785  B8 00000020	     5				MOV 	EAX,	' '
 0000D78A  E8 00000000 E     5				CALL 	WriteChar
 0000D78F  58		     5			POP 	EAX
 0000D7A3  50		     5				PUSH 	EAX
 0000D7A4  B8 00000002	     5					MOV 	EAX, Green
 0000D7A9  E8 00000000 E     5					CALL	SetTextColor
 0000D7AE  58		     5				POP 	EAX
 0000D7AF  50		     5			PUSH 	EAX
 0000D7B0  B8 00000049	     5				MOV 	EAX,	'I'
 0000D7B5  E8 00000000 E     5				CALL 	WriteChar
 0000D7BA  58		     5			POP 	EAX
 0000D7BB  50		     5			PUSH 	EAX
 0000D7BC  B8 00000049	     5				MOV 	EAX,	'I'
 0000D7C1  E8 00000000 E     5				CALL 	WriteChar
 0000D7C6  58		     5			POP 	EAX
 0000D7C7  50		     5			PUSH 	EAX
 0000D7C8  B8 00000049	     5				MOV 	EAX,	'I'
 0000D7CD  E8 00000000 E     5				CALL 	WriteChar
 0000D7D2  58		     5			POP 	EAX
 0000D7D3  50		     5			PUSH 	EAX
 0000D7D4  B8 00000020	     5				MOV 	EAX,	' '
 0000D7D9  E8 00000000 E     5				CALL 	WriteChar
 0000D7DE  58		     5			POP 	EAX
 0000D7EF  50		     5				PUSH 	EAX
 0000D7F0  B8 0000000A	     5					MOV 	EAX, LightGreen
 0000D7F5  E8 00000000 E     5					CALL	SetTextColor
 0000D7FA  58		     5				POP 	EAX
 0000D7FB  50		     5			PUSH 	EAX
 0000D7FC  B8 00000049	     5				MOV 	EAX,	'I'
 0000D801  E8 00000000 E     5				CALL 	WriteChar
 0000D806  58		     5			POP 	EAX
 0000D807  50		     5			PUSH 	EAX
 0000D808  B8 00000049	     5				MOV 	EAX,	'I'
 0000D80D  E8 00000000 E     5				CALL 	WriteChar
 0000D812  58		     5			POP 	EAX
 0000D813  50		     5			PUSH 	EAX
 0000D814  B8 00000049	     5				MOV 	EAX,	'I'
 0000D819  E8 00000000 E     5				CALL 	WriteChar
 0000D81E  58		     5			POP 	EAX
 0000D81F  50		     5			PUSH 	EAX
 0000D820  B8 00000049	     5				MOV 	EAX,	'I'
 0000D825  E8 00000000 E     5				CALL 	WriteChar
 0000D82A  58		     5			POP 	EAX
 0000D834  50		     5				PUSH 	EAX
 0000D835  B8 00000007	     5					MOV 	EAX, 00000111b
 0000D83A  E8 00000000 E     5					CALL	SetTextColor
 0000D83F  58		     5				POP 	EAX
 0000D840  50		     5			PUSH 	EAX
 0000D841  B8 0000005D	     5				MOV 	EAX,	']'
 0000D846  E8 00000000 E     5				CALL 	WriteChar
 0000D84B  58		     5			POP 	EAX
 0000D84C  8A 15 00000000 R  5			MOV  	dl, LastPointX
 0000D852  8A 35 00000001 R  5			MOV  	dh, LastPointY
 0000D858  88 15 00000002 R  5			MOV 	CurrentPointX,	dl
 0000D85E  88 35 00000003 R  5			MOV 	CurrentPointY,	dh
 0000D864  E8 00000000 E     5			CALL 	Gotoxy 
 0000D869  61		     4			POPAD
 0000D86F  60		     4			PUSHAD
 0000D870  8A 15 00000002 R  5			MOV  	dl, CurrentPointX
 0000D876  8A 35 00000003 R  5			MOV  	dh, CurrentPointY
 0000D87C  88 15 00000000 R  5			MOV		LastPointX,	dl
 0000D882  88 35 00000001 R  5			MOV 	LastPointY,	dh
 0000D888  8A 15 00000DD1 R  5			MOV  	dl, BYTE PTR HPLineX
 0000D88E  8A 35 00000DD5 R  5			MOV  	dh, BYTE PTR HPLineY
 0000D894  88 15 00000002 R  5			MOV 	CurrentPointX,	dl
 0000D89A  88 35 00000003 R  5			MOV 	CurrentPointY,	dh
 0000D8A0  E8 00000000 E     5			CALL 	Gotoxy  
 0000D8A5  50		     5			PUSH 	EAX
 0000D8A6  8B C3	     5				MOV 	EAX,	EBX
 0000D8A8  E8 00000000 E     5				CALL 	WriteDec
 0000D8AD  58		     5			POP 	EAX
 0000D8AE  50		     5			PUSH 	EAX
 0000D8AF  B8 0000005B	     5				MOV 	EAX,	'['
 0000D8B4  E8 00000000 E     5				CALL 	WriteChar
 0000D8B9  58		     5			POP 	EAX
 0000D8BA  B9 00000001	     4				MOV ECX, 1
 0000D8CD  50		     5				PUSH 	EAX
 0000D8CE  B8 00000004	     5					MOV 	EAX, Red
 0000D8D3  E8 00000000 E     5					CALL	SetTextColor
 0000D8D8  58		     5				POP 	EAX
 0000D8D9  50		     5			PUSH 	EAX
 0000D8DA  B8 00000049	     5				MOV 	EAX,	'I'
 0000D8DF  E8 00000000 E     5				CALL 	WriteChar
 0000D8E4  58		     5			POP 	EAX
 0000D8E5  50		     5			PUSH 	EAX
 0000D8E6  B8 00000020	     5				MOV 	EAX,	' '
 0000D8EB  E8 00000000 E     5				CALL 	WriteChar
 0000D8F0  58		     5			POP 	EAX
 0000D8F1  50		     5			PUSH 	EAX
 0000D8F2  B8 00000020	     5				MOV 	EAX,	' '
 0000D8F7  E8 00000000 E     5				CALL 	WriteChar
 0000D8FC  58		     5			POP 	EAX
 0000D8FD  50		     5			PUSH 	EAX
 0000D8FE  B8 00000020	     5				MOV 	EAX,	' '
 0000D903  E8 00000000 E     5				CALL 	WriteChar
 0000D908  58		     5			POP 	EAX
 0000D91C  50		     5				PUSH 	EAX
 0000D91D  B8 0000000C	     5					MOV 	EAX, LightRed
 0000D922  E8 00000000 E     5					CALL	SetTextColor
 0000D927  58		     5				POP 	EAX
 0000D928  50		     5			PUSH 	EAX
 0000D929  B8 00000049	     5				MOV 	EAX,	'I'
 0000D92E  E8 00000000 E     5				CALL 	WriteChar
 0000D933  58		     5			POP 	EAX
 0000D934  50		     5			PUSH 	EAX
 0000D935  B8 00000049	     5				MOV 	EAX,	'I'
 0000D93A  E8 00000000 E     5				CALL 	WriteChar
 0000D93F  58		     5			POP 	EAX
 0000D940  50		     5			PUSH 	EAX
 0000D941  B8 00000020	     5				MOV 	EAX,	' '
 0000D946  E8 00000000 E     5				CALL 	WriteChar
 0000D94B  58		     5			POP 	EAX
 0000D94C  50		     5			PUSH 	EAX
 0000D94D  B8 00000020	     5				MOV 	EAX,	' '
 0000D952  E8 00000000 E     5				CALL 	WriteChar
 0000D957  58		     5			POP 	EAX
 0000D96B  50		     5				PUSH 	EAX
 0000D96C  B8 00000002	     5					MOV 	EAX, Green
 0000D971  E8 00000000 E     5					CALL	SetTextColor
 0000D976  58		     5				POP 	EAX
 0000D977  50		     5			PUSH 	EAX
 0000D978  B8 00000049	     5				MOV 	EAX,	'I'
 0000D97D  E8 00000000 E     5				CALL 	WriteChar
 0000D982  58		     5			POP 	EAX
 0000D983  50		     5			PUSH 	EAX
 0000D984  B8 00000049	     5				MOV 	EAX,	'I'
 0000D989  E8 00000000 E     5				CALL 	WriteChar
 0000D98E  58		     5			POP 	EAX
 0000D98F  50		     5			PUSH 	EAX
 0000D990  B8 00000049	     5				MOV 	EAX,	'I'
 0000D995  E8 00000000 E     5				CALL 	WriteChar
 0000D99A  58		     5			POP 	EAX
 0000D99B  50		     5			PUSH 	EAX
 0000D99C  B8 00000020	     5				MOV 	EAX,	' '
 0000D9A1  E8 00000000 E     5				CALL 	WriteChar
 0000D9A6  58		     5			POP 	EAX
 0000D9B7  50		     5				PUSH 	EAX
 0000D9B8  B8 0000000A	     5					MOV 	EAX, LightGreen
 0000D9BD  E8 00000000 E     5					CALL	SetTextColor
 0000D9C2  58		     5				POP 	EAX
 0000D9C3  50		     5			PUSH 	EAX
 0000D9C4  B8 00000049	     5				MOV 	EAX,	'I'
 0000D9C9  E8 00000000 E     5				CALL 	WriteChar
 0000D9CE  58		     5			POP 	EAX
 0000D9CF  50		     5			PUSH 	EAX
 0000D9D0  B8 00000049	     5				MOV 	EAX,	'I'
 0000D9D5  E8 00000000 E     5				CALL 	WriteChar
 0000D9DA  58		     5			POP 	EAX
 0000D9DB  50		     5			PUSH 	EAX
 0000D9DC  B8 00000049	     5				MOV 	EAX,	'I'
 0000D9E1  E8 00000000 E     5				CALL 	WriteChar
 0000D9E6  58		     5			POP 	EAX
 0000D9E7  50		     5			PUSH 	EAX
 0000D9E8  B8 00000049	     5				MOV 	EAX,	'I'
 0000D9ED  E8 00000000 E     5				CALL 	WriteChar
 0000D9F2  58		     5			POP 	EAX
 0000D9FC  50		     5				PUSH 	EAX
 0000D9FD  B8 00000007	     5					MOV 	EAX, 00000111b
 0000DA02  E8 00000000 E     5					CALL	SetTextColor
 0000DA07  58		     5				POP 	EAX
 0000DA08  50		     5			PUSH 	EAX
 0000DA09  B8 0000005D	     5				MOV 	EAX,	']'
 0000DA0E  E8 00000000 E     5				CALL 	WriteChar
 0000DA13  58		     5			POP 	EAX
 0000DA14  8A 15 00000000 R  5			MOV  	dl, LastPointX
 0000DA1A  8A 35 00000001 R  5			MOV  	dh, LastPointY
 0000DA20  88 15 00000002 R  5			MOV 	CurrentPointX,	dl
 0000DA26  88 35 00000003 R  5			MOV 	CurrentPointY,	dh
 0000DA2C  E8 00000000 E     5			CALL 	Gotoxy 
 0000DA31  61		     4			POPAD
 0000DA32  61		     3			POPAD
 0000DA33  B8 00000001	     2			MOV EAX,	1
 0000DA49  50		     3				PUSH 	EAX
 0000DA4A  B8 0000000E	     3					MOV 	EAX, Yellow
 0000DA4F  E8 00000000 E     3					CALL	SetTextColor
 0000DA54  58		     3				POP 	EAX
 0000DA62  8A 15 00000002 R  4			MOV  	dl, CurrentPointX
 0000DA68  8A 35 00000003 R  4			MOV  	dh, CurrentPointY
 0000DA6E  88 15 00000000 R  4			MOV		LastPointX,	dl
 0000DA74  88 35 00000001 R  4			MOV 	LastPointY,	dh
 0000DA7A  B2 67	     4			MOV  	dl, BYTE PTR 103
 0000DA7C  B6 0D	     4			MOV  	dh, BYTE PTR 13
 0000DA7E  88 15 00000002 R  4			MOV 	CurrentPointX,	dl
 0000DA84  88 35 00000003 R  4			MOV 	CurrentPointY,	dh
 0000DA8A  E8 00000000 E     4			CALL 	Gotoxy  
 0000DA8F  52		     4				PUSH EDX
 0000DA90  52		     5			PUSH EDX
 0000DA91  51		     5			PUSH ECX
 0000DA92  56		     5			PUSH ESI
 0000DA93  BA 00000004 R     5				MOV EDX, OFFSET UserCastle_1_1
 0000DA98  E8 00000000 E     5				CALL WriteString
 0000DA9D  59		     5			POP ECX
 0000DA9E  59		     5			POP ECX
 0000DA9F  5E		     5			POP ESI
 0000DAA0  5A		     4				POP  EDX
 0000DAA1  FE C6	     4				INC  DH
 0000DAA3  E8 00000000 E     4				Call GoToXY
 0000DAA8  52		     4				PUSH EDX
 0000DAA9  52		     5			PUSH EDX
 0000DAAA  51		     5			PUSH ECX
 0000DAAB  56		     5			PUSH ESI
 0000DAAC  BA 00000019 R     5				MOV EDX, OFFSET UserCastle_1_2
 0000DAB1  E8 00000000 E     5				CALL WriteString
 0000DAB6  59		     5			POP ECX
 0000DAB7  59		     5			POP ECX
 0000DAB8  5E		     5			POP ESI
 0000DAB9  5A		     4				POP  EDX
 0000DABA  FE C6	     4				INC  DH
 0000DABC  E8 00000000 E     4				Call GoToXY
 0000DAC1  52		     4				PUSH EDX
 0000DAC2  52		     5			PUSH EDX
 0000DAC3  51		     5			PUSH ECX
 0000DAC4  56		     5			PUSH ESI
 0000DAC5  BA 00000031 R     5				MOV EDX, OFFSET UserCastle_1_3
 0000DACA  E8 00000000 E     5				CALL WriteString
 0000DACF  59		     5			POP ECX
 0000DAD0  59		     5			POP ECX
 0000DAD1  5E		     5			POP ESI
 0000DAD2  5A		     4				POP  EDX
 0000DAD3  FE C6	     4				INC  DH
 0000DAD5  E8 00000000 E     4				Call GoToXY
 0000DADA  52		     4				PUSH EDX
 0000DADB  52		     5			PUSH EDX
 0000DADC  51		     5			PUSH ECX
 0000DADD  56		     5			PUSH ESI
 0000DADE  BA 00000046 R     5				MOV EDX, OFFSET UserCastle_1_4
 0000DAE3  E8 00000000 E     5				CALL WriteString
 0000DAE8  59		     5			POP ECX
 0000DAE9  59		     5			POP ECX
 0000DAEA  5E		     5			POP ESI
 0000DAEB  5A		     4				POP  EDX
 0000DAEC  FE C6	     4				INC  DH
 0000DAEE  E8 00000000 E     4				Call GoToXY
 0000DAF3  52		     4				PUSH EDX
 0000DAF4  52		     5			PUSH EDX
 0000DAF5  51		     5			PUSH ECX
 0000DAF6  56		     5			PUSH ESI
 0000DAF7  BA 0000005B R     5				MOV EDX, OFFSET UserCastle_1_5
 0000DAFC  E8 00000000 E     5				CALL WriteString
 0000DB01  59		     5			POP ECX
 0000DB02  59		     5			POP ECX
 0000DB03  5E		     5			POP ESI
 0000DB04  5A		     4				POP  EDX
 0000DB05  FE C6	     4				INC  DH
 0000DB07  E8 00000000 E     4				Call GoToXY
 0000DB1E  8A 15 00000002 R  4			MOV  	dl, CurrentPointX
 0000DB24  8A 35 00000003 R  4			MOV  	dh, CurrentPointY
 0000DB2A  88 15 00000000 R  4			MOV		LastPointX,	dl
 0000DB30  88 35 00000001 R  4			MOV 	LastPointY,	dh
 0000DB36  B2 67	     4			MOV  	dl, BYTE PTR 103
 0000DB38  B6 0A	     4			MOV  	dh, BYTE PTR 10
 0000DB3A  88 15 00000002 R  4			MOV 	CurrentPointX,	dl
 0000DB40  88 35 00000003 R  4			MOV 	CurrentPointY,	dh
 0000DB46  E8 00000000 E     4			CALL 	Gotoxy  
 0000DB4B  52		     4				PUSH EDX
 0000DB4C  52		     5			PUSH EDX
 0000DB4D  51		     5			PUSH ECX
 0000DB4E  56		     5			PUSH ESI
 0000DB4F  BA 00000070 R     5				MOV EDX, OFFSET UserCastle_2_1
 0000DB54  E8 00000000 E     5				CALL WriteString
 0000DB59  59		     5			POP ECX
 0000DB5A  59		     5			POP ECX
 0000DB5B  5E		     5			POP ESI
 0000DB5C  5A		     4				POP  EDX
 0000DB5D  FE C6	     4				INC  DH
 0000DB5F  E8 00000000 E     4				Call GoToXY
 0000DB64  52		     4				PUSH EDX
 0000DB65  52		     5			PUSH EDX
 0000DB66  51		     5			PUSH ECX
 0000DB67  56		     5			PUSH ESI
 0000DB68  BA 00000083 R     5				MOV EDX, OFFSET UserCastle_2_2
 0000DB6D  E8 00000000 E     5				CALL WriteString
 0000DB72  59		     5			POP ECX
 0000DB73  59		     5			POP ECX
 0000DB74  5E		     5			POP ESI
 0000DB75  5A		     4				POP  EDX
 0000DB76  FE C6	     4				INC  DH
 0000DB78  E8 00000000 E     4				Call GoToXY
 0000DB7D  52		     4				PUSH EDX
 0000DB7E  52		     5			PUSH EDX
 0000DB7F  51		     5			PUSH ECX
 0000DB80  56		     5			PUSH ESI
 0000DB81  BA 00000096 R     5				MOV EDX, OFFSET UserCastle_2_3
 0000DB86  E8 00000000 E     5				CALL WriteString
 0000DB8B  59		     5			POP ECX
 0000DB8C  59		     5			POP ECX
 0000DB8D  5E		     5			POP ESI
 0000DB8E  5A		     4				POP  EDX
 0000DB8F  FE C6	     4				INC  DH
 0000DB91  E8 00000000 E     4				Call GoToXY
 0000DB96  52		     4				PUSH EDX
 0000DB97  52		     5			PUSH EDX
 0000DB98  51		     5			PUSH ECX
 0000DB99  56		     5			PUSH ESI
 0000DB9A  BA 000000AA R     5				MOV EDX, OFFSET UserCastle_2_4
 0000DB9F  E8 00000000 E     5				CALL WriteString
 0000DBA4  59		     5			POP ECX
 0000DBA5  59		     5			POP ECX
 0000DBA6  5E		     5			POP ESI
 0000DBA7  5A		     4				POP  EDX
 0000DBA8  FE C6	     4				INC  DH
 0000DBAA  E8 00000000 E     4				Call GoToXY
 0000DBAF  52		     4				PUSH EDX
 0000DBB0  52		     5			PUSH EDX
 0000DBB1  51		     5			PUSH ECX
 0000DBB2  56		     5			PUSH ESI
 0000DBB3  BA 000000C0 R     5				MOV EDX, OFFSET UserCastle_2_5
 0000DBB8  E8 00000000 E     5				CALL WriteString
 0000DBBD  59		     5			POP ECX
 0000DBBE  59		     5			POP ECX
 0000DBBF  5E		     5			POP ESI
 0000DBC0  5A		     4				POP  EDX
 0000DBC1  FE C6	     4				INC  DH
 0000DBC3  E8 00000000 E     4				Call GoToXY
 0000DBC8  52		     4				PUSH EDX
 0000DBC9  52		     5			PUSH EDX
 0000DBCA  51		     5			PUSH ECX
 0000DBCB  56		     5			PUSH ESI
 0000DBCC  BA 000000D8 R     5				MOV EDX, OFFSET UserCastle_2_6
 0000DBD1  E8 00000000 E     5				CALL WriteString
 0000DBD6  59		     5			POP ECX
 0000DBD7  59		     5			POP ECX
 0000DBD8  5E		     5			POP ESI
 0000DBD9  5A		     4				POP  EDX
 0000DBDA  FE C6	     4				INC  DH
 0000DBDC  E8 00000000 E     4				Call GoToXY
 0000DBE1  52		     4				PUSH EDX
 0000DBE2  52		     5			PUSH EDX
 0000DBE3  51		     5			PUSH ECX
 0000DBE4  56		     5			PUSH ESI
 0000DBE5  BA 000000ED R     5				MOV EDX, OFFSET UserCastle_2_7
 0000DBEA  E8 00000000 E     5				CALL WriteString
 0000DBEF  59		     5			POP ECX
 0000DBF0  59		     5			POP ECX
 0000DBF1  5E		     5			POP ESI
 0000DBF2  5A		     4				POP  EDX
 0000DBF3  FE C6	     4				INC  DH
 0000DBF5  E8 00000000 E     4				Call GoToXY
 0000DBFA  52		     4				PUSH EDX
 0000DBFB  52		     5			PUSH EDX
 0000DBFC  51		     5			PUSH ECX
 0000DBFD  56		     5			PUSH ESI
 0000DBFE  BA 00000104 R     5				MOV EDX, OFFSET UserCastle_2_8
 0000DC03  E8 00000000 E     5				CALL WriteString
 0000DC08  59		     5			POP ECX
 0000DC09  59		     5			POP ECX
 0000DC0A  5E		     5			POP ESI
 0000DC0B  5A		     4				POP  EDX
 0000DC0C  FE C6	     4				INC  DH
 0000DC0E  E8 00000000 E     4				Call GoToXY
 0000DC25  8A 15 00000002 R  4			MOV  	dl, CurrentPointX
 0000DC2B  8A 35 00000003 R  4			MOV  	dh, CurrentPointY
 0000DC31  88 15 00000000 R  4			MOV		LastPointX,	dl
 0000DC37  88 35 00000001 R  4			MOV 	LastPointY,	dh
 0000DC3D  B2 67	     4			MOV  	dl, BYTE PTR 103
 0000DC3F  B6 09	     4			MOV  	dh, BYTE PTR 9
 0000DC41  88 15 00000002 R  4			MOV 	CurrentPointX,	dl
 0000DC47  88 35 00000003 R  4			MOV 	CurrentPointY,	dh
 0000DC4D  E8 00000000 E     4			CALL 	Gotoxy  
 0000DC52  52		     4				PUSH EDX
 0000DC53  52		     5			PUSH EDX
 0000DC54  51		     5			PUSH ECX
 0000DC55  56		     5			PUSH ESI
 0000DC56  BA 0000011B R     5				MOV EDX, OFFSET UserCastle_3_1
 0000DC5B  E8 00000000 E     5				CALL WriteString
 0000DC60  59		     5			POP ECX
 0000DC61  59		     5			POP ECX
 0000DC62  5E		     5			POP ESI
 0000DC63  5A		     4				POP  EDX
 0000DC64  FE C6	     4				INC  DH
 0000DC66  E8 00000000 E     4				Call GoToXY
 0000DC6B  52		     4				PUSH EDX
 0000DC6C  52		     5			PUSH EDX
 0000DC6D  51		     5			PUSH ECX
 0000DC6E  56		     5			PUSH ESI
 0000DC6F  BA 0000012D R     5				MOV EDX, OFFSET UserCastle_3_2
 0000DC74  E8 00000000 E     5				CALL WriteString
 0000DC79  59		     5			POP ECX
 0000DC7A  59		     5			POP ECX
 0000DC7B  5E		     5			POP ESI
 0000DC7C  5A		     4				POP  EDX
 0000DC7D  FE C6	     4				INC  DH
 0000DC7F  E8 00000000 E     4				Call GoToXY
 0000DC84  52		     4				PUSH EDX
 0000DC85  52		     5			PUSH EDX
 0000DC86  51		     5			PUSH ECX
 0000DC87  56		     5			PUSH ESI
 0000DC88  BA 0000013F R     5				MOV EDX, OFFSET UserCastle_3_3
 0000DC8D  E8 00000000 E     5				CALL WriteString
 0000DC92  59		     5			POP ECX
 0000DC93  59		     5			POP ECX
 0000DC94  5E		     5			POP ESI
 0000DC95  5A		     4				POP  EDX
 0000DC96  FE C6	     4				INC  DH
 0000DC98  E8 00000000 E     4				Call GoToXY
 0000DC9D  52		     4				PUSH EDX
 0000DC9E  52		     5			PUSH EDX
 0000DC9F  51		     5			PUSH ECX
 0000DCA0  56		     5			PUSH ESI
 0000DCA1  BA 00000154 R     5				MOV EDX, OFFSET UserCastle_3_4
 0000DCA6  E8 00000000 E     5				CALL WriteString
 0000DCAB  59		     5			POP ECX
 0000DCAC  59		     5			POP ECX
 0000DCAD  5E		     5			POP ESI
 0000DCAE  5A		     4				POP  EDX
 0000DCAF  FE C6	     4				INC  DH
 0000DCB1  E8 00000000 E     4				Call GoToXY
 0000DCB6  52		     4				PUSH EDX
 0000DCB7  52		     5			PUSH EDX
 0000DCB8  51		     5			PUSH ECX
 0000DCB9  56		     5			PUSH ESI
 0000DCBA  BA 00000169 R     5				MOV EDX, OFFSET UserCastle_3_5
 0000DCBF  E8 00000000 E     5				CALL WriteString
 0000DCC4  59		     5			POP ECX
 0000DCC5  59		     5			POP ECX
 0000DCC6  5E		     5			POP ESI
 0000DCC7  5A		     4				POP  EDX
 0000DCC8  FE C6	     4				INC  DH
 0000DCCA  E8 00000000 E     4				Call GoToXY
 0000DCCF  52		     4				PUSH EDX
 0000DCD0  52		     5			PUSH EDX
 0000DCD1  51		     5			PUSH ECX
 0000DCD2  56		     5			PUSH ESI
 0000DCD3  BA 00000180 R     5				MOV EDX, OFFSET UserCastle_3_6
 0000DCD8  E8 00000000 E     5				CALL WriteString
 0000DCDD  59		     5			POP ECX
 0000DCDE  59		     5			POP ECX
 0000DCDF  5E		     5			POP ESI
 0000DCE0  5A		     4				POP  EDX
 0000DCE1  FE C6	     4				INC  DH
 0000DCE3  E8 00000000 E     4				Call GoToXY
 0000DCE8  52		     4				PUSH EDX
 0000DCE9  52		     5			PUSH EDX
 0000DCEA  51		     5			PUSH ECX
 0000DCEB  56		     5			PUSH ESI
 0000DCEC  BA 00000197 R     5				MOV EDX, OFFSET UserCastle_3_7
 0000DCF1  E8 00000000 E     5				CALL WriteString
 0000DCF6  59		     5			POP ECX
 0000DCF7  59		     5			POP ECX
 0000DCF8  5E		     5			POP ESI
 0000DCF9  5A		     4				POP  EDX
 0000DCFA  FE C6	     4				INC  DH
 0000DCFC  E8 00000000 E     4				Call GoToXY
 0000DD01  52		     4				PUSH EDX
 0000DD02  52		     5			PUSH EDX
 0000DD03  51		     5			PUSH ECX
 0000DD04  56		     5			PUSH ESI
 0000DD05  BA 000001AF R     5				MOV EDX, OFFSET UserCastle_3_8
 0000DD0A  E8 00000000 E     5				CALL WriteString
 0000DD0F  59		     5			POP ECX
 0000DD10  59		     5			POP ECX
 0000DD11  5E		     5			POP ESI
 0000DD12  5A		     4				POP  EDX
 0000DD13  FE C6	     4				INC  DH
 0000DD15  E8 00000000 E     4				Call GoToXY
 0000DD1A  52		     4				PUSH EDX
 0000DD1B  52		     5			PUSH EDX
 0000DD1C  51		     5			PUSH ECX
 0000DD1D  56		     5			PUSH ESI
 0000DD1E  BA 000001C7 R     5				MOV EDX, OFFSET UserCastle_3_9
 0000DD23  E8 00000000 E     5				CALL WriteString
 0000DD28  59		     5			POP ECX
 0000DD29  59		     5			POP ECX
 0000DD2A  5E		     5			POP ESI
 0000DD2B  5A		     4				POP  EDX
 0000DD2C  FE C6	     4				INC  DH
 0000DD2E  E8 00000000 E     4				Call GoToXY
 0000DD40  50		     3				PUSH 	EAX
 0000DD41  B8 00000007	     3					MOV 	EAX, 00000111b
 0000DD46  E8 00000000 E     3					CALL	SetTextColor
 0000DD4B  58		     3				POP 	EAX
 0000DD5A  50		     3				PUSH 	EAX
 0000DD5B  B8 0000000C	     3					MOV 	EAX, LightRed
 0000DD60  E8 00000000 E     3					CALL	SetTextColor
 0000DD65  58		     3				POP 	EAX
 0000DD73  8A 15 00000002 R  4			MOV  	dl, CurrentPointX
 0000DD79  8A 35 00000003 R  4			MOV  	dh, CurrentPointY
 0000DD7F  88 15 00000000 R  4			MOV		LastPointX,	dl
 0000DD85  88 35 00000001 R  4			MOV 	LastPointY,	dh
 0000DD8B  B2 67	     4			MOV  	dl, BYTE PTR 103
 0000DD8D  B6 0C	     4			MOV  	dh, BYTE PTR 12
 0000DD8F  88 15 00000002 R  4			MOV 	CurrentPointX,	dl
 0000DD95  88 35 00000003 R  4			MOV 	CurrentPointY,	dh
 0000DD9B  E8 00000000 E     4			CALL 	Gotoxy  
 0000DDA0  52		     4				PUSH EDX
 0000DDA1  52		     5			PUSH EDX
 0000DDA2  51		     5			PUSH ECX
 0000DDA3  56		     5			PUSH ESI
 0000DDA4  BA 000001DF R     5				MOV EDX, OFFSET CompCastle_1_1
 0000DDA9  E8 00000000 E     5				CALL WriteString
 0000DDAE  59		     5			POP ECX
 0000DDAF  59		     5			POP ECX
 0000DDB0  5E		     5			POP ESI
 0000DDB1  5A		     4				POP  EDX
 0000DDB2  FE C6	     4				INC  DH
 0000DDB4  E8 00000000 E     4				Call GoToXY
 0000DDB9  52		     4				PUSH EDX
 0000DDBA  52		     5			PUSH EDX
 0000DDBB  51		     5			PUSH ECX
 0000DDBC  56		     5			PUSH ESI
 0000DDBD  BA 000001EF R     5				MOV EDX, OFFSET CompCastle_1_2
 0000DDC2  E8 00000000 E     5				CALL WriteString
 0000DDC7  59		     5			POP ECX
 0000DDC8  59		     5			POP ECX
 0000DDC9  5E		     5			POP ESI
 0000DDCA  5A		     4				POP  EDX
 0000DDCB  FE C6	     4				INC  DH
 0000DDCD  E8 00000000 E     4				Call GoToXY
 0000DDD2  52		     4				PUSH EDX
 0000DDD3  52		     5			PUSH EDX
 0000DDD4  51		     5			PUSH ECX
 0000DDD5  56		     5			PUSH ESI
 0000DDD6  BA 000001FC R     5				MOV EDX, OFFSET CompCastle_1_3
 0000DDDB  E8 00000000 E     5				CALL WriteString
 0000DDE0  59		     5			POP ECX
 0000DDE1  59		     5			POP ECX
 0000DDE2  5E		     5			POP ESI
 0000DDE3  5A		     4				POP  EDX
 0000DDE4  FE C6	     4				INC  DH
 0000DDE6  E8 00000000 E     4				Call GoToXY
 0000DDEB  52		     4				PUSH EDX
 0000DDEC  52		     5			PUSH EDX
 0000DDED  51		     5			PUSH ECX
 0000DDEE  56		     5			PUSH ESI
 0000DDEF  BA 00000209 R     5				MOV EDX, OFFSET CompCastle_1_4
 0000DDF4  E8 00000000 E     5				CALL WriteString
 0000DDF9  59		     5			POP ECX
 0000DDFA  59		     5			POP ECX
 0000DDFB  5E		     5			POP ESI
 0000DDFC  5A		     4				POP  EDX
 0000DDFD  FE C6	     4				INC  DH
 0000DDFF  E8 00000000 E     4				Call GoToXY
 0000DE04  52		     4				PUSH EDX
 0000DE05  52		     5			PUSH EDX
 0000DE06  51		     5			PUSH ECX
 0000DE07  56		     5			PUSH ESI
 0000DE08  BA 00000216 R     5				MOV EDX, OFFSET CompCastle_1_5
 0000DE0D  E8 00000000 E     5				CALL WriteString
 0000DE12  59		     5			POP ECX
 0000DE13  59		     5			POP ECX
 0000DE14  5E		     5			POP ESI
 0000DE15  5A		     4				POP  EDX
 0000DE16  FE C6	     4				INC  DH
 0000DE18  E8 00000000 E     4				Call GoToXY
 0000DE1D  52		     4				PUSH EDX
 0000DE1E  52		     5			PUSH EDX
 0000DE1F  51		     5			PUSH ECX
 0000DE20  56		     5			PUSH ESI
 0000DE21  BA 00000223 R     5				MOV EDX, OFFSET CompCastle_1_6
 0000DE26  E8 00000000 E     5				CALL WriteString
 0000DE2B  59		     5			POP ECX
 0000DE2C  59		     5			POP ECX
 0000DE2D  5E		     5			POP ESI
 0000DE2E  5A		     4				POP  EDX
 0000DE2F  FE C6	     4				INC  DH
 0000DE31  E8 00000000 E     4				Call GoToXY
 0000DE48  8A 15 00000002 R  4			MOV  	dl, CurrentPointX
 0000DE4E  8A 35 00000003 R  4			MOV  	dh, CurrentPointY
 0000DE54  88 15 00000000 R  4			MOV		LastPointX,	dl
 0000DE5A  88 35 00000001 R  4			MOV 	LastPointY,	dh
 0000DE60  B2 67	     4			MOV  	dl, BYTE PTR 103
 0000DE62  B6 0A	     4			MOV  	dh, BYTE PTR 10
 0000DE64  88 15 00000002 R  4			MOV 	CurrentPointX,	dl
 0000DE6A  88 35 00000003 R  4			MOV 	CurrentPointY,	dh
 0000DE70  E8 00000000 E     4			CALL 	Gotoxy  
 0000DE75  52		     4				PUSH EDX
 0000DE76  52		     5			PUSH EDX
 0000DE77  51		     5			PUSH ECX
 0000DE78  56		     5			PUSH ESI
 0000DE79  BA 00000230 R     5				MOV EDX, OFFSET CompCastle_2_1
 0000DE7E  E8 00000000 E     5				CALL WriteString
 0000DE83  59		     5			POP ECX
 0000DE84  59		     5			POP ECX
 0000DE85  5E		     5			POP ESI
 0000DE86  5A		     4				POP  EDX
 0000DE87  FE C6	     4				INC  DH
 0000DE89  E8 00000000 E     4				Call GoToXY
 0000DE8E  52		     4				PUSH EDX
 0000DE8F  52		     5			PUSH EDX
 0000DE90  51		     5			PUSH ECX
 0000DE91  56		     5			PUSH ESI
 0000DE92  BA 0000023B R     5				MOV EDX, OFFSET CompCastle_2_2
 0000DE97  E8 00000000 E     5				CALL WriteString
 0000DE9C  59		     5			POP ECX
 0000DE9D  59		     5			POP ECX
 0000DE9E  5E		     5			POP ESI
 0000DE9F  5A		     4				POP  EDX
 0000DEA0  FE C6	     4				INC  DH
 0000DEA2  E8 00000000 E     4				Call GoToXY
 0000DEA7  52		     4				PUSH EDX
 0000DEA8  52		     5			PUSH EDX
 0000DEA9  51		     5			PUSH ECX
 0000DEAA  56		     5			PUSH ESI
 0000DEAB  BA 00000246 R     5				MOV EDX, OFFSET CompCastle_2_3
 0000DEB0  E8 00000000 E     5				CALL WriteString
 0000DEB5  59		     5			POP ECX
 0000DEB6  59		     5			POP ECX
 0000DEB7  5E		     5			POP ESI
 0000DEB8  5A		     4				POP  EDX
 0000DEB9  FE C6	     4				INC  DH
 0000DEBB  E8 00000000 E     4				Call GoToXY
 0000DEC0  52		     4				PUSH EDX
 0000DEC1  52		     5			PUSH EDX
 0000DEC2  51		     5			PUSH ECX
 0000DEC3  56		     5			PUSH ESI
 0000DEC4  BA 00000255 R     5				MOV EDX, OFFSET CompCastle_2_4
 0000DEC9  E8 00000000 E     5				CALL WriteString
 0000DECE  59		     5			POP ECX
 0000DECF  59		     5			POP ECX
 0000DED0  5E		     5			POP ESI
 0000DED1  5A		     4				POP  EDX
 0000DED2  FE C6	     4				INC  DH
 0000DED4  E8 00000000 E     4				Call GoToXY
 0000DED9  52		     4				PUSH EDX
 0000DEDA  52		     5			PUSH EDX
 0000DEDB  51		     5			PUSH ECX
 0000DEDC  56		     5			PUSH ESI
 0000DEDD  BA 00000264 R     5				MOV EDX, OFFSET CompCastle_2_5
 0000DEE2  E8 00000000 E     5				CALL WriteString
 0000DEE7  59		     5			POP ECX
 0000DEE8  59		     5			POP ECX
 0000DEE9  5E		     5			POP ESI
 0000DEEA  5A		     4				POP  EDX
 0000DEEB  FE C6	     4				INC  DH
 0000DEED  E8 00000000 E     4				Call GoToXY
 0000DEF2  52		     4				PUSH EDX
 0000DEF3  52		     5			PUSH EDX
 0000DEF4  51		     5			PUSH ECX
 0000DEF5  56		     5			PUSH ESI
 0000DEF6  BA 00000275 R     5				MOV EDX, OFFSET CompCastle_2_6
 0000DEFB  E8 00000000 E     5				CALL WriteString
 0000DF00  59		     5			POP ECX
 0000DF01  59		     5			POP ECX
 0000DF02  5E		     5			POP ESI
 0000DF03  5A		     4				POP  EDX
 0000DF04  FE C6	     4				INC  DH
 0000DF06  E8 00000000 E     4				Call GoToXY
 0000DF0B  52		     4				PUSH EDX
 0000DF0C  52		     5			PUSH EDX
 0000DF0D  51		     5			PUSH ECX
 0000DF0E  56		     5			PUSH ESI
 0000DF0F  BA 00000286 R     5				MOV EDX, OFFSET CompCastle_2_7
 0000DF14  E8 00000000 E     5				CALL WriteString
 0000DF19  59		     5			POP ECX
 0000DF1A  59		     5			POP ECX
 0000DF1B  5E		     5			POP ESI
 0000DF1C  5A		     4				POP  EDX
 0000DF1D  FE C6	     4				INC  DH
 0000DF1F  E8 00000000 E     4				Call GoToXY
 0000DF24  52		     4				PUSH EDX
 0000DF25  52		     5			PUSH EDX
 0000DF26  51		     5			PUSH ECX
 0000DF27  56		     5			PUSH ESI
 0000DF28  BA 00000295 R     5				MOV EDX, OFFSET CompCastle_2_8
 0000DF2D  E8 00000000 E     5				CALL WriteString
 0000DF32  59		     5			POP ECX
 0000DF33  59		     5			POP ECX
 0000DF34  5E		     5			POP ESI
 0000DF35  5A		     4				POP  EDX
 0000DF36  FE C6	     4				INC  DH
 0000DF38  E8 00000000 E     4				Call GoToXY
 0000DF4F  8A 15 00000002 R  4			MOV  	dl, CurrentPointX
 0000DF55  8A 35 00000003 R  4			MOV  	dh, CurrentPointY
 0000DF5B  88 15 00000000 R  4			MOV		LastPointX,	dl
 0000DF61  88 35 00000001 R  4			MOV 	LastPointY,	dh
 0000DF67  B2 67	     4			MOV  	dl, BYTE PTR 103
 0000DF69  B6 09	     4			MOV  	dh, BYTE PTR 9
 0000DF6B  88 15 00000002 R  4			MOV 	CurrentPointX,	dl
 0000DF71  88 35 00000003 R  4			MOV 	CurrentPointY,	dh
 0000DF77  E8 00000000 E     4			CALL 	Gotoxy  
 0000DF7C  52		     4				PUSH EDX
 0000DF7D  52		     5			PUSH EDX
 0000DF7E  51		     5			PUSH ECX
 0000DF7F  56		     5			PUSH ESI
 0000DF80  BA 000002A4 R     5				MOV EDX, OFFSET CompCastle_3_1
 0000DF85  E8 00000000 E     5				CALL WriteString
 0000DF8A  59		     5			POP ECX
 0000DF8B  59		     5			POP ECX
 0000DF8C  5E		     5			POP ESI
 0000DF8D  5A		     4				POP  EDX
 0000DF8E  FE C6	     4				INC  DH
 0000DF90  E8 00000000 E     4				Call GoToXY
 0000DF95  52		     4				PUSH EDX
 0000DF96  52		     5			PUSH EDX
 0000DF97  51		     5			PUSH ECX
 0000DF98  56		     5			PUSH ESI
 0000DF99  BA 000002B7 R     5				MOV EDX, OFFSET CompCastle_3_2
 0000DF9E  E8 00000000 E     5				CALL WriteString
 0000DFA3  59		     5			POP ECX
 0000DFA4  59		     5			POP ECX
 0000DFA5  5E		     5			POP ESI
 0000DFA6  5A		     4				POP  EDX
 0000DFA7  FE C6	     4				INC  DH
 0000DFA9  E8 00000000 E     4				Call GoToXY
 0000DFAE  52		     4				PUSH EDX
 0000DFAF  52		     5			PUSH EDX
 0000DFB0  51		     5			PUSH ECX
 0000DFB1  56		     5			PUSH ESI
 0000DFB2  BA 000002CC R     5				MOV EDX, OFFSET CompCastle_3_3
 0000DFB7  E8 00000000 E     5				CALL WriteString
 0000DFBC  59		     5			POP ECX
 0000DFBD  59		     5			POP ECX
 0000DFBE  5E		     5			POP ESI
 0000DFBF  5A		     4				POP  EDX
 0000DFC0  FE C6	     4				INC  DH
 0000DFC2  E8 00000000 E     4				Call GoToXY
 0000DFC7  52		     4				PUSH EDX
 0000DFC8  52		     5			PUSH EDX
 0000DFC9  51		     5			PUSH ECX
 0000DFCA  56		     5			PUSH ESI
 0000DFCB  BA 000002DD R     5				MOV EDX, OFFSET CompCastle_3_4
 0000DFD0  E8 00000000 E     5				CALL WriteString
 0000DFD5  59		     5			POP ECX
 0000DFD6  59		     5			POP ECX
 0000DFD7  5E		     5			POP ESI
 0000DFD8  5A		     4				POP  EDX
 0000DFD9  FE C6	     4				INC  DH
 0000DFDB  E8 00000000 E     4				Call GoToXY
 0000DFE0  52		     4				PUSH EDX
 0000DFE1  52		     5			PUSH EDX
 0000DFE2  51		     5			PUSH ECX
 0000DFE3  56		     5			PUSH ESI
 0000DFE4  BA 000002F3 R     5				MOV EDX, OFFSET CompCastle_3_5
 0000DFE9  E8 00000000 E     5				CALL WriteString
 0000DFEE  59		     5			POP ECX
 0000DFEF  59		     5			POP ECX
 0000DFF0  5E		     5			POP ESI
 0000DFF1  5A		     4				POP  EDX
 0000DFF2  FE C6	     4				INC  DH
 0000DFF4  E8 00000000 E     4				Call GoToXY
 0000DFF9  52		     4				PUSH EDX
 0000DFFA  52		     5			PUSH EDX
 0000DFFB  51		     5			PUSH ECX
 0000DFFC  56		     5			PUSH ESI
 0000DFFD  BA 00000309 R     5				MOV EDX, OFFSET CompCastle_3_6
 0000E002  E8 00000000 E     5				CALL WriteString
 0000E007  59		     5			POP ECX
 0000E008  59		     5			POP ECX
 0000E009  5E		     5			POP ESI
 0000E00A  5A		     4				POP  EDX
 0000E00B  FE C6	     4				INC  DH
 0000E00D  E8 00000000 E     4				Call GoToXY
 0000E012  52		     4				PUSH EDX
 0000E013  52		     5			PUSH EDX
 0000E014  51		     5			PUSH ECX
 0000E015  56		     5			PUSH ESI
 0000E016  BA 0000031F R     5				MOV EDX, OFFSET CompCastle_3_7
 0000E01B  E8 00000000 E     5				CALL WriteString
 0000E020  59		     5			POP ECX
 0000E021  59		     5			POP ECX
 0000E022  5E		     5			POP ESI
 0000E023  5A		     4				POP  EDX
 0000E024  FE C6	     4				INC  DH
 0000E026  E8 00000000 E     4				Call GoToXY
 0000E02B  52		     4				PUSH EDX
 0000E02C  52		     5			PUSH EDX
 0000E02D  51		     5			PUSH ECX
 0000E02E  56		     5			PUSH ESI
 0000E02F  BA 00000336 R     5				MOV EDX, OFFSET CompCastle_3_8
 0000E034  E8 00000000 E     5				CALL WriteString
 0000E039  59		     5			POP ECX
 0000E03A  59		     5			POP ECX
 0000E03B  5E		     5			POP ESI
 0000E03C  5A		     4				POP  EDX
 0000E03D  FE C6	     4				INC  DH
 0000E03F  E8 00000000 E     4				Call GoToXY
 0000E044  52		     4				PUSH EDX
 0000E045  52		     5			PUSH EDX
 0000E046  51		     5			PUSH ECX
 0000E047  56		     5			PUSH ESI
 0000E048  BA 00000347 R     5				MOV EDX, OFFSET CompCastle_3_9
 0000E04D  E8 00000000 E     5				CALL WriteString
 0000E052  59		     5			POP ECX
 0000E053  59		     5			POP ECX
 0000E054  5E		     5			POP ESI
 0000E055  5A		     4				POP  EDX
 0000E056  FE C6	     4				INC  DH
 0000E058  E8 00000000 E     4				Call GoToXY
 0000E066  50		     3				PUSH 	EAX
 0000E067  B8 00000007	     3					MOV 	EAX, 00000111b
 0000E06C  E8 00000000 E     3					CALL	SetTextColor
 0000E071  58		     3				POP 	EAX
 0000E072  8A 15 00000002 R  3			MOV  	dl, CurrentPointX
 0000E078  8A 35 00000003 R  3			MOV  	dh, CurrentPointY
 0000E07E  88 15 00000000 R  3			MOV		LastPointX,	dl
 0000E084  88 35 00000001 R  3			MOV 	LastPointY,	dh
 0000E08A  B2 3C	     3			MOV  	dl, BYTE PTR 60
 0000E08C  B6 02	     3			MOV  	dh, BYTE PTR 2
 0000E08E  88 15 00000002 R  3			MOV 	CurrentPointX,	dl
 0000E094  88 35 00000003 R  3			MOV 	CurrentPointY,	dh
 0000E09A  E8 00000000 E     3			CALL 	Gotoxy  
 0000E0A8  50		     3				PUSH 	EAX
 0000E0A9  B8 0000000E	     3					MOV 	EAX, Yellow
 0000E0AE  E8 00000000 E     3					CALL	SetTextColor
 0000E0B3  58		     3				POP 	EAX
 0000E0B4  50		     3			PUSH 	EAX
 0000E0B5  B8 00000024	     3				MOV 	EAX,	'$'
 0000E0BA  E8 00000000 E     3				CALL 	WriteChar
 0000E0BF  58		     3			POP 	EAX
 0000E0C0  50		     3			PUSH 	EAX
 0000E0C1  A1 00000C47 R     3				MOV 	EAX,	UserMoney
 0000E0C6  E8 00000000 E     3				CALL 	WriteDec
 0000E0CB  58		     3			POP 	EAX
 0000E0D5  50		     3				PUSH 	EAX
 0000E0D6  B8 00000007	     3					MOV 	EAX, 00000111b
 0000E0DB  E8 00000000 E     3					CALL	SetTextColor
 0000E0E0  58		     3				POP 	EAX
 0000E0E1  8A 15 00000000 R  3			MOV  	dl, LastPointX
 0000E0E7  8A 35 00000001 R  3			MOV  	dh, LastPointY
 0000E0ED  88 15 00000002 R  3			MOV 	CurrentPointX,	dl
 0000E0F3  88 35 00000003 R  3			MOV 	CurrentPointY,	dh
 0000E0F9  E8 00000000 E     3			CALL 	Gotoxy 
 0000E0FE  E8 FFFF3942	     1			DrawSoldiers
 0000E126  50		     4				PUSH 	EAX
 0000E127  B8 0000008F	     4					MOV 	EAX, Gray*16+White
 0000E12C  E8 00000000 E     4					CALL	SetTextColor
 0000E131  58		     4				POP 	EAX
 0000E132  8A 15 00000002 R  5			MOV  	dl, CurrentPointX
 0000E138  8A 35 00000003 R  5			MOV  	dh, CurrentPointY
 0000E13E  88 15 00000000 R  5			MOV		LastPointX,	dl
 0000E144  88 35 00000001 R  5			MOV 	LastPointY,	dh
 0000E14A  B2 05	     5			MOV  	dl, BYTE PTR 5
 0000E14C  B6 16	     5			MOV  	dh, BYTE PTR 22
 0000E14E  88 15 00000002 R  5			MOV 	CurrentPointX,	dl
 0000E154  88 35 00000003 R  5			MOV 	CurrentPointY,	dh
 0000E15A  E8 00000000 E     5			CALL 	Gotoxy  
 0000E15F  52		     5				PUSH EDX
 0000E160  52		     6			PUSH EDX
 0000E161  51		     6			PUSH ECX
 0000E162  56		     6			PUSH ESI
 0000E163  BA 000002D7 R     6				MOV EDX, OFFSET KEY_A_1
 0000E168  E8 00000000 E     6				CALL WriteString
 0000E16D  59		     6			POP ECX
 0000E16E  59		     6			POP ECX
 0000E16F  5E		     6			POP ESI
 0000E170  5A		     5				POP  EDX
 0000E171  FE C6	     5				INC  DH
 0000E173  E8 00000000 E     5				Call GoToXY
 0000E178  52		     5				PUSH EDX
 0000E179  52		     6			PUSH EDX
 0000E17A  51		     6			PUSH ECX
 0000E17B  56		     6			PUSH ESI
 0000E17C  BA 000002DE R     6				MOV EDX, OFFSET KEY_A_2
 0000E181  E8 00000000 E     6				CALL WriteString
 0000E186  59		     6			POP ECX
 0000E187  59		     6			POP ECX
 0000E188  5E		     6			POP ESI
 0000E189  5A		     5				POP  EDX
 0000E18A  FE C6	     5				INC  DH
 0000E18C  E8 00000000 E     5				Call GoToXY
 0000E191  52		     5				PUSH EDX
 0000E192  52		     6			PUSH EDX
 0000E193  51		     6			PUSH ECX
 0000E194  56		     6			PUSH ESI
 0000E195  BA 000002E5 R     6				MOV EDX, OFFSET KEY_A_3
 0000E19A  E8 00000000 E     6				CALL WriteString
 0000E19F  59		     6			POP ECX
 0000E1A0  59		     6			POP ECX
 0000E1A1  5E		     6			POP ESI
 0000E1A2  5A		     5				POP  EDX
 0000E1A3  FE C6	     5				INC  DH
 0000E1A5  E8 00000000 E     5				Call GoToXY
 0000E1AA  52		     5				PUSH EDX
 0000E1AB  52		     6			PUSH EDX
 0000E1AC  51		     6			PUSH ECX
 0000E1AD  56		     6			PUSH ESI
 0000E1AE  BA 000002EC R     6				MOV EDX, OFFSET KEY_A_4
 0000E1B3  E8 00000000 E     6				CALL WriteString
 0000E1B8  59		     6			POP ECX
 0000E1B9  59		     6			POP ECX
 0000E1BA  5E		     6			POP ESI
 0000E1BB  5A		     5				POP  EDX
 0000E1BC  FE C6	     5				INC  DH
 0000E1BE  E8 00000000 E     5				Call GoToXY
 0000E1D0  50		     4				PUSH 	EAX
 0000E1D1  B8 00000007	     4					MOV 	EAX, 00000111b
 0000E1D6  E8 00000000 E     4					CALL	SetTextColor
 0000E1DB  58		     4				POP 	EAX
 0000E1EA  50		     4				PUSH 	EAX
 0000E1EB  B8 00000007	     4					MOV 	EAX, 00000111b
 0000E1F0  E8 00000000 E     4					CALL	SetTextColor
 0000E1F5  58		     4				POP 	EAX
 0000E1F6  8A 15 00000002 R  5			MOV  	dl, CurrentPointX
 0000E1FC  8A 35 00000003 R  5			MOV  	dh, CurrentPointY
 0000E202  88 15 00000000 R  5			MOV		LastPointX,	dl
 0000E208  88 35 00000001 R  5			MOV 	LastPointY,	dh
 0000E20E  B2 05	     5			MOV  	dl, BYTE PTR 5
 0000E210  B6 16	     5			MOV  	dh, BYTE PTR 22
 0000E212  88 15 00000002 R  5			MOV 	CurrentPointX,	dl
 0000E218  88 35 00000003 R  5			MOV 	CurrentPointY,	dh
 0000E21E  E8 00000000 E     5			CALL 	Gotoxy  
 0000E223  52		     5				PUSH EDX
 0000E224  52		     6			PUSH EDX
 0000E225  51		     6			PUSH ECX
 0000E226  56		     6			PUSH ESI
 0000E227  BA 000002D7 R     6				MOV EDX, OFFSET KEY_A_1
 0000E22C  E8 00000000 E     6				CALL WriteString
 0000E231  59		     6			POP ECX
 0000E232  59		     6			POP ECX
 0000E233  5E		     6			POP ESI
 0000E234  5A		     5				POP  EDX
 0000E235  FE C6	     5				INC  DH
 0000E237  E8 00000000 E     5				Call GoToXY
 0000E23C  52		     5				PUSH EDX
 0000E23D  52		     6			PUSH EDX
 0000E23E  51		     6			PUSH ECX
 0000E23F  56		     6			PUSH ESI
 0000E240  BA 000002DE R     6				MOV EDX, OFFSET KEY_A_2
 0000E245  E8 00000000 E     6				CALL WriteString
 0000E24A  59		     6			POP ECX
 0000E24B  59		     6			POP ECX
 0000E24C  5E		     6			POP ESI
 0000E24D  5A		     5				POP  EDX
 0000E24E  FE C6	     5				INC  DH
 0000E250  E8 00000000 E     5				Call GoToXY
 0000E255  52		     5				PUSH EDX
 0000E256  52		     6			PUSH EDX
 0000E257  51		     6			PUSH ECX
 0000E258  56		     6			PUSH ESI
 0000E259  BA 000002E5 R     6				MOV EDX, OFFSET KEY_A_3
 0000E25E  E8 00000000 E     6				CALL WriteString
 0000E263  59		     6			POP ECX
 0000E264  59		     6			POP ECX
 0000E265  5E		     6			POP ESI
 0000E266  5A		     5				POP  EDX
 0000E267  FE C6	     5				INC  DH
 0000E269  E8 00000000 E     5				Call GoToXY
 0000E26E  52		     5				PUSH EDX
 0000E26F  52		     6			PUSH EDX
 0000E270  51		     6			PUSH ECX
 0000E271  56		     6			PUSH ESI
 0000E272  BA 000002EC R     6				MOV EDX, OFFSET KEY_A_4
 0000E277  E8 00000000 E     6				CALL WriteString
 0000E27C  59		     6			POP ECX
 0000E27D  59		     6			POP ECX
 0000E27E  5E		     6			POP ESI
 0000E27F  5A		     5				POP  EDX
 0000E280  FE C6	     5				INC  DH
 0000E282  E8 00000000 E     5				Call GoToXY
 0000E29D  50		     4				PUSH 	EAX
 0000E29E  B8 0000008F	     4					MOV 	EAX, Gray*16+White
 0000E2A3  E8 00000000 E     4					CALL	SetTextColor
 0000E2A8  58		     4				POP 	EAX
 0000E2A9  8A 15 00000002 R  5			MOV  	dl, CurrentPointX
 0000E2AF  8A 35 00000003 R  5			MOV  	dh, CurrentPointY
 0000E2B5  88 15 00000000 R  5			MOV		LastPointX,	dl
 0000E2BB  88 35 00000001 R  5			MOV 	LastPointY,	dh
 0000E2C1  B2 0C	     5			MOV  	dl, BYTE PTR 12
 0000E2C3  B6 16	     5			MOV  	dh, BYTE PTR 22
 0000E2C5  88 15 00000002 R  5			MOV 	CurrentPointX,	dl
 0000E2CB  88 35 00000003 R  5			MOV 	CurrentPointY,	dh
 0000E2D1  E8 00000000 E     5			CALL 	Gotoxy  
 0000E2D6  52		     5				PUSH EDX
 0000E2D7  52		     6			PUSH EDX
 0000E2D8  51		     6			PUSH ECX
 0000E2D9  56		     6			PUSH ESI
 0000E2DA  BA 000002F3 R     6				MOV EDX, OFFSET KEY_B_1
 0000E2DF  E8 00000000 E     6				CALL WriteString
 0000E2E4  59		     6			POP ECX
 0000E2E5  59		     6			POP ECX
 0000E2E6  5E		     6			POP ESI
 0000E2E7  5A		     5				POP  EDX
 0000E2E8  FE C6	     5				INC  DH
 0000E2EA  E8 00000000 E     5				Call GoToXY
 0000E2EF  52		     5				PUSH EDX
 0000E2F0  52		     6			PUSH EDX
 0000E2F1  51		     6			PUSH ECX
 0000E2F2  56		     6			PUSH ESI
 0000E2F3  BA 000002FA R     6				MOV EDX, OFFSET KEY_B_2
 0000E2F8  E8 00000000 E     6				CALL WriteString
 0000E2FD  59		     6			POP ECX
 0000E2FE  59		     6			POP ECX
 0000E2FF  5E		     6			POP ESI
 0000E300  5A		     5				POP  EDX
 0000E301  FE C6	     5				INC  DH
 0000E303  E8 00000000 E     5				Call GoToXY
 0000E308  52		     5				PUSH EDX
 0000E309  52		     6			PUSH EDX
 0000E30A  51		     6			PUSH ECX
 0000E30B  56		     6			PUSH ESI
 0000E30C  BA 00000301 R     6				MOV EDX, OFFSET KEY_B_3
 0000E311  E8 00000000 E     6				CALL WriteString
 0000E316  59		     6			POP ECX
 0000E317  59		     6			POP ECX
 0000E318  5E		     6			POP ESI
 0000E319  5A		     5				POP  EDX
 0000E31A  FE C6	     5				INC  DH
 0000E31C  E8 00000000 E     5				Call GoToXY
 0000E321  52		     5				PUSH EDX
 0000E322  52		     6			PUSH EDX
 0000E323  51		     6			PUSH ECX
 0000E324  56		     6			PUSH ESI
 0000E325  BA 00000308 R     6				MOV EDX, OFFSET KEY_B_4
 0000E32A  E8 00000000 E     6				CALL WriteString
 0000E32F  59		     6			POP ECX
 0000E330  59		     6			POP ECX
 0000E331  5E		     6			POP ESI
 0000E332  5A		     5				POP  EDX
 0000E333  FE C6	     5				INC  DH
 0000E335  E8 00000000 E     5				Call GoToXY
 0000E347  50		     4				PUSH 	EAX
 0000E348  B8 00000007	     4					MOV 	EAX, 00000111b
 0000E34D  E8 00000000 E     4					CALL	SetTextColor
 0000E352  58		     4				POP 	EAX
 0000E361  50		     4				PUSH 	EAX
 0000E362  B8 00000007	     4					MOV 	EAX, 00000111b
 0000E367  E8 00000000 E     4					CALL	SetTextColor
 0000E36C  58		     4				POP 	EAX
 0000E36D  8A 15 00000002 R  5			MOV  	dl, CurrentPointX
 0000E373  8A 35 00000003 R  5			MOV  	dh, CurrentPointY
 0000E379  88 15 00000000 R  5			MOV		LastPointX,	dl
 0000E37F  88 35 00000001 R  5			MOV 	LastPointY,	dh
 0000E385  B2 0C	     5			MOV  	dl, BYTE PTR 12
 0000E387  B6 16	     5			MOV  	dh, BYTE PTR 22
 0000E389  88 15 00000002 R  5			MOV 	CurrentPointX,	dl
 0000E38F  88 35 00000003 R  5			MOV 	CurrentPointY,	dh
 0000E395  E8 00000000 E     5			CALL 	Gotoxy  
 0000E39A  52		     5				PUSH EDX
 0000E39B  52		     6			PUSH EDX
 0000E39C  51		     6			PUSH ECX
 0000E39D  56		     6			PUSH ESI
 0000E39E  BA 000002F3 R     6				MOV EDX, OFFSET KEY_B_1
 0000E3A3  E8 00000000 E     6				CALL WriteString
 0000E3A8  59		     6			POP ECX
 0000E3A9  59		     6			POP ECX
 0000E3AA  5E		     6			POP ESI
 0000E3AB  5A		     5				POP  EDX
 0000E3AC  FE C6	     5				INC  DH
 0000E3AE  E8 00000000 E     5				Call GoToXY
 0000E3B3  52		     5				PUSH EDX
 0000E3B4  52		     6			PUSH EDX
 0000E3B5  51		     6			PUSH ECX
 0000E3B6  56		     6			PUSH ESI
 0000E3B7  BA 000002FA R     6				MOV EDX, OFFSET KEY_B_2
 0000E3BC  E8 00000000 E     6				CALL WriteString
 0000E3C1  59		     6			POP ECX
 0000E3C2  59		     6			POP ECX
 0000E3C3  5E		     6			POP ESI
 0000E3C4  5A		     5				POP  EDX
 0000E3C5  FE C6	     5				INC  DH
 0000E3C7  E8 00000000 E     5				Call GoToXY
 0000E3CC  52		     5				PUSH EDX
 0000E3CD  52		     6			PUSH EDX
 0000E3CE  51		     6			PUSH ECX
 0000E3CF  56		     6			PUSH ESI
 0000E3D0  BA 00000301 R     6				MOV EDX, OFFSET KEY_B_3
 0000E3D5  E8 00000000 E     6				CALL WriteString
 0000E3DA  59		     6			POP ECX
 0000E3DB  59		     6			POP ECX
 0000E3DC  5E		     6			POP ESI
 0000E3DD  5A		     5				POP  EDX
 0000E3DE  FE C6	     5				INC  DH
 0000E3E0  E8 00000000 E     5				Call GoToXY
 0000E3E5  52		     5				PUSH EDX
 0000E3E6  52		     6			PUSH EDX
 0000E3E7  51		     6			PUSH ECX
 0000E3E8  56		     6			PUSH ESI
 0000E3E9  BA 00000308 R     6				MOV EDX, OFFSET KEY_B_4
 0000E3EE  E8 00000000 E     6				CALL WriteString
 0000E3F3  59		     6			POP ECX
 0000E3F4  59		     6			POP ECX
 0000E3F5  5E		     6			POP ESI
 0000E3F6  5A		     5				POP  EDX
 0000E3F7  FE C6	     5				INC  DH
 0000E3F9  E8 00000000 E     5				Call GoToXY
 0000E414  50		     4				PUSH 	EAX
 0000E415  B8 0000008F	     4					MOV 	EAX, Gray*16+White
 0000E41A  E8 00000000 E     4					CALL	SetTextColor
 0000E41F  58		     4				POP 	EAX
 0000E420  8A 15 00000002 R  5			MOV  	dl, CurrentPointX
 0000E426  8A 35 00000003 R  5			MOV  	dh, CurrentPointY
 0000E42C  88 15 00000000 R  5			MOV		LastPointX,	dl
 0000E432  88 35 00000001 R  5			MOV 	LastPointY,	dh
 0000E438  B2 13	     5			MOV  	dl, BYTE PTR 19
 0000E43A  B6 16	     5			MOV  	dh, BYTE PTR 22
 0000E43C  88 15 00000002 R  5			MOV 	CurrentPointX,	dl
 0000E442  88 35 00000003 R  5			MOV 	CurrentPointY,	dh
 0000E448  E8 00000000 E     5			CALL 	Gotoxy  
 0000E44D  52		     5				PUSH EDX
 0000E44E  52		     6			PUSH EDX
 0000E44F  51		     6			PUSH ECX
 0000E450  56		     6			PUSH ESI
 0000E451  BA 0000030F R     6				MOV EDX, OFFSET KEY_C_1
 0000E456  E8 00000000 E     6				CALL WriteString
 0000E45B  59		     6			POP ECX
 0000E45C  59		     6			POP ECX
 0000E45D  5E		     6			POP ESI
 0000E45E  5A		     5				POP  EDX
 0000E45F  FE C6	     5				INC  DH
 0000E461  E8 00000000 E     5				Call GoToXY
 0000E466  52		     5				PUSH EDX
 0000E467  52		     6			PUSH EDX
 0000E468  51		     6			PUSH ECX
 0000E469  56		     6			PUSH ESI
 0000E46A  BA 00000316 R     6				MOV EDX, OFFSET KEY_C_2
 0000E46F  E8 00000000 E     6				CALL WriteString
 0000E474  59		     6			POP ECX
 0000E475  59		     6			POP ECX
 0000E476  5E		     6			POP ESI
 0000E477  5A		     5				POP  EDX
 0000E478  FE C6	     5				INC  DH
 0000E47A  E8 00000000 E     5				Call GoToXY
 0000E47F  52		     5				PUSH EDX
 0000E480  52		     6			PUSH EDX
 0000E481  51		     6			PUSH ECX
 0000E482  56		     6			PUSH ESI
 0000E483  BA 0000031D R     6				MOV EDX, OFFSET KEY_C_3
 0000E488  E8 00000000 E     6				CALL WriteString
 0000E48D  59		     6			POP ECX
 0000E48E  59		     6			POP ECX
 0000E48F  5E		     6			POP ESI
 0000E490  5A		     5				POP  EDX
 0000E491  FE C6	     5				INC  DH
 0000E493  E8 00000000 E     5				Call GoToXY
 0000E498  52		     5				PUSH EDX
 0000E499  52		     6			PUSH EDX
 0000E49A  51		     6			PUSH ECX
 0000E49B  56		     6			PUSH ESI
 0000E49C  BA 00000324 R     6				MOV EDX, OFFSET KEY_C_4
 0000E4A1  E8 00000000 E     6				CALL WriteString
 0000E4A6  59		     6			POP ECX
 0000E4A7  59		     6			POP ECX
 0000E4A8  5E		     6			POP ESI
 0000E4A9  5A		     5				POP  EDX
 0000E4AA  FE C6	     5				INC  DH
 0000E4AC  E8 00000000 E     5				Call GoToXY
 0000E4BE  50		     4				PUSH 	EAX
 0000E4BF  B8 00000007	     4					MOV 	EAX, 00000111b
 0000E4C4  E8 00000000 E     4					CALL	SetTextColor
 0000E4C9  58		     4				POP 	EAX
 0000E4D8  50		     4				PUSH 	EAX
 0000E4D9  B8 00000007	     4					MOV 	EAX, 00000111b
 0000E4DE  E8 00000000 E     4					CALL	SetTextColor
 0000E4E3  58		     4				POP 	EAX
 0000E4E4  8A 15 00000002 R  5			MOV  	dl, CurrentPointX
 0000E4EA  8A 35 00000003 R  5			MOV  	dh, CurrentPointY
 0000E4F0  88 15 00000000 R  5			MOV		LastPointX,	dl
 0000E4F6  88 35 00000001 R  5			MOV 	LastPointY,	dh
 0000E4FC  B2 13	     5			MOV  	dl, BYTE PTR 19
 0000E4FE  B6 16	     5			MOV  	dh, BYTE PTR 22
 0000E500  88 15 00000002 R  5			MOV 	CurrentPointX,	dl
 0000E506  88 35 00000003 R  5			MOV 	CurrentPointY,	dh
 0000E50C  E8 00000000 E     5			CALL 	Gotoxy  
 0000E511  52		     5				PUSH EDX
 0000E512  52		     6			PUSH EDX
 0000E513  51		     6			PUSH ECX
 0000E514  56		     6			PUSH ESI
 0000E515  BA 0000030F R     6				MOV EDX, OFFSET KEY_C_1
 0000E51A  E8 00000000 E     6				CALL WriteString
 0000E51F  59		     6			POP ECX
 0000E520  59		     6			POP ECX
 0000E521  5E		     6			POP ESI
 0000E522  5A		     5				POP  EDX
 0000E523  FE C6	     5				INC  DH
 0000E525  E8 00000000 E     5				Call GoToXY
 0000E52A  52		     5				PUSH EDX
 0000E52B  52		     6			PUSH EDX
 0000E52C  51		     6			PUSH ECX
 0000E52D  56		     6			PUSH ESI
 0000E52E  BA 00000316 R     6				MOV EDX, OFFSET KEY_C_2
 0000E533  E8 00000000 E     6				CALL WriteString
 0000E538  59		     6			POP ECX
 0000E539  59		     6			POP ECX
 0000E53A  5E		     6			POP ESI
 0000E53B  5A		     5				POP  EDX
 0000E53C  FE C6	     5				INC  DH
 0000E53E  E8 00000000 E     5				Call GoToXY
 0000E543  52		     5				PUSH EDX
 0000E544  52		     6			PUSH EDX
 0000E545  51		     6			PUSH ECX
 0000E546  56		     6			PUSH ESI
 0000E547  BA 0000031D R     6				MOV EDX, OFFSET KEY_C_3
 0000E54C  E8 00000000 E     6				CALL WriteString
 0000E551  59		     6			POP ECX
 0000E552  59		     6			POP ECX
 0000E553  5E		     6			POP ESI
 0000E554  5A		     5				POP  EDX
 0000E555  FE C6	     5				INC  DH
 0000E557  E8 00000000 E     5				Call GoToXY
 0000E55C  52		     5				PUSH EDX
 0000E55D  52		     6			PUSH EDX
 0000E55E  51		     6			PUSH ECX
 0000E55F  56		     6			PUSH ESI
 0000E560  BA 00000324 R     6				MOV EDX, OFFSET KEY_C_4
 0000E565  E8 00000000 E     6				CALL WriteString
 0000E56A  59		     6			POP ECX
 0000E56B  59		     6			POP ECX
 0000E56C  5E		     6			POP ESI
 0000E56D  5A		     5				POP  EDX
 0000E56E  FE C6	     5				INC  DH
 0000E570  E8 00000000 E     5				Call GoToXY
 0000E59B  50		     4				PUSH 	EAX
 0000E59C  B8 00000007	     4					MOV 	EAX, 00000111b
 0000E5A1  E8 00000000 E     4					CALL	SetTextColor
 0000E5A6  58		     4				POP 	EAX
 0000E5A7  8A 15 00000002 R  5			MOV  	dl, CurrentPointX
 0000E5AD  8A 35 00000003 R  5			MOV  	dh, CurrentPointY
 0000E5B3  88 15 00000000 R  5			MOV		LastPointX,	dl
 0000E5B9  88 35 00000001 R  5			MOV 	LastPointY,	dh
 0000E5BF  B2 1D	     5			MOV  	dl, BYTE PTR 29
 0000E5C1  B6 18	     5			MOV  	dh, BYTE PTR 24
 0000E5C3  88 15 00000002 R  5			MOV 	CurrentPointX,	dl
 0000E5C9  88 35 00000003 R  5			MOV 	CurrentPointY,	dh
 0000E5CF  E8 00000000 E     5			CALL 	Gotoxy  
 0000E5D4  52		     5				PUSH EDX
 0000E5D5  52		     6			PUSH EDX
 0000E5D6  51		     6			PUSH ECX
 0000E5D7  56		     6			PUSH ESI
 0000E5D8  BA 0000032B R     6				MOV EDX, OFFSET KEY_Z_1
 0000E5DD  E8 00000000 E     6				CALL WriteString
 0000E5E2  59		     6			POP ECX
 0000E5E3  59		     6			POP ECX
 0000E5E4  5E		     6			POP ESI
 0000E5E5  5A		     5				POP  EDX
 0000E5E6  FE C6	     5				INC  DH
 0000E5E8  E8 00000000 E     5				Call GoToXY
 0000E5ED  52		     5				PUSH EDX
 0000E5EE  52		     6			PUSH EDX
 0000E5EF  51		     6			PUSH ECX
 0000E5F0  56		     6			PUSH ESI
 0000E5F1  BA 00000332 R     6				MOV EDX, OFFSET KEY_Z_2
 0000E5F6  E8 00000000 E     6				CALL WriteString
 0000E5FB  59		     6			POP ECX
 0000E5FC  59		     6			POP ECX
 0000E5FD  5E		     6			POP ESI
 0000E5FE  5A		     5				POP  EDX
 0000E5FF  FE C6	     5				INC  DH
 0000E601  E8 00000000 E     5				Call GoToXY
 0000E606  52		     5				PUSH EDX
 0000E607  52		     6			PUSH EDX
 0000E608  51		     6			PUSH ECX
 0000E609  56		     6			PUSH ESI
 0000E60A  BA 00000341 R     6				MOV EDX, OFFSET KEY_Z_3
 0000E60F  E8 00000000 E     6				CALL WriteString
 0000E614  59		     6			POP ECX
 0000E615  59		     6			POP ECX
 0000E616  5E		     6			POP ESI
 0000E617  5A		     5				POP  EDX
 0000E618  FE C6	     5				INC  DH
 0000E61A  E8 00000000 E     5				Call GoToXY
 0000E628  52		     5				PUSH EDX
 0000E629  52		     6			PUSH EDX
 0000E62A  51		     6			PUSH ECX
 0000E62B  56		     6			PUSH ESI
 0000E62C  BA 00000348 R     6				MOV EDX, OFFSET KEY_Z_M_1
 0000E631  E8 00000000 E     6				CALL WriteString
 0000E636  59		     6			POP ECX
 0000E637  59		     6			POP ECX
 0000E638  5E		     6			POP ESI
 0000E639  5A		     5				POP  EDX
 0000E63A  FE C6	     5				INC  DH
 0000E63C  E8 00000000 E     5				Call GoToXY
 0000E64F  52		     5				PUSH EDX
 0000E650  52		     6			PUSH EDX
 0000E651  51		     6			PUSH ECX
 0000E652  56		     6			PUSH ESI
 0000E653  BA 0000034E R     6				MOV EDX, OFFSET KEY_Z_M_2
 0000E658  E8 00000000 E     6				CALL WriteString
 0000E65D  59		     6			POP ECX
 0000E65E  59		     6			POP ECX
 0000E65F  5E		     6			POP ESI
 0000E660  5A		     5				POP  EDX
 0000E661  FE C6	     5				INC  DH
 0000E663  E8 00000000 E     5				Call GoToXY
 0000E67A  52		     5				PUSH EDX
 0000E67B  52		     6			PUSH EDX
 0000E67C  51		     6			PUSH ECX
 0000E67D  56		     6			PUSH ESI
 0000E67E  BA 00000354 R     6				MOV EDX, OFFSET KEY_Z_M_3
 0000E683  E8 00000000 E     6				CALL WriteString
 0000E688  59		     6			POP ECX
 0000E689  59		     6			POP ECX
 0000E68A  5E		     6			POP ESI
 0000E68B  5A		     5				POP  EDX
 0000E68C  FE C6	     5				INC  DH
 0000E68E  E8 00000000 E     5				Call GoToXY
 0000E6A1  50		     4				PUSH 	EAX
 0000E6A2  B8 00000008	     4					MOV 	EAX, Gray
 0000E6A7  E8 00000000 E     4					CALL	SetTextColor
 0000E6AC  58		     4				POP 	EAX
 0000E6AD  8A 15 00000002 R  5			MOV  	dl, CurrentPointX
 0000E6B3  8A 35 00000003 R  5			MOV  	dh, CurrentPointY
 0000E6B9  88 15 00000000 R  5			MOV		LastPointX,	dl
 0000E6BF  88 35 00000001 R  5			MOV 	LastPointY,	dh
 0000E6C5  B2 1D	     5			MOV  	dl, BYTE PTR 29
 0000E6C7  B6 18	     5			MOV  	dh, BYTE PTR 24
 0000E6C9  88 15 00000002 R  5			MOV 	CurrentPointX,	dl
 0000E6CF  88 35 00000003 R  5			MOV 	CurrentPointY,	dh
 0000E6D5  E8 00000000 E     5			CALL 	Gotoxy  
 0000E6DA  52		     5				PUSH EDX
 0000E6DB  52		     6			PUSH EDX
 0000E6DC  51		     6			PUSH ECX
 0000E6DD  56		     6			PUSH ESI
 0000E6DE  BA 0000032B R     6				MOV EDX, OFFSET KEY_Z_1
 0000E6E3  E8 00000000 E     6				CALL WriteString
 0000E6E8  59		     6			POP ECX
 0000E6E9  59		     6			POP ECX
 0000E6EA  5E		     6			POP ESI
 0000E6EB  5A		     5				POP  EDX
 0000E6EC  FE C6	     5				INC  DH
 0000E6EE  E8 00000000 E     5				Call GoToXY
 0000E6F3  52		     5				PUSH EDX
 0000E6F4  52		     6			PUSH EDX
 0000E6F5  51		     6			PUSH ECX
 0000E6F6  56		     6			PUSH ESI
 0000E6F7  BA 00000332 R     6				MOV EDX, OFFSET KEY_Z_2
 0000E6FC  E8 00000000 E     6				CALL WriteString
 0000E701  59		     6			POP ECX
 0000E702  59		     6			POP ECX
 0000E703  5E		     6			POP ESI
 0000E704  5A		     5				POP  EDX
 0000E705  FE C6	     5				INC  DH
 0000E707  E8 00000000 E     5				Call GoToXY
 0000E70C  52		     5				PUSH EDX
 0000E70D  52		     6			PUSH EDX
 0000E70E  51		     6			PUSH ECX
 0000E70F  56		     6			PUSH ESI
 0000E710  BA 00000341 R     6				MOV EDX, OFFSET KEY_Z_3
 0000E715  E8 00000000 E     6				CALL WriteString
 0000E71A  59		     6			POP ECX
 0000E71B  59		     6			POP ECX
 0000E71C  5E		     6			POP ESI
 0000E71D  5A		     5				POP  EDX
 0000E71E  FE C6	     5				INC  DH
 0000E720  E8 00000000 E     5				Call GoToXY
 0000E72E  52		     5				PUSH EDX
 0000E72F  52		     6			PUSH EDX
 0000E730  51		     6			PUSH ECX
 0000E731  56		     6			PUSH ESI
 0000E732  BA 00000348 R     6				MOV EDX, OFFSET KEY_Z_M_1
 0000E737  E8 00000000 E     6				CALL WriteString
 0000E73C  59		     6			POP ECX
 0000E73D  59		     6			POP ECX
 0000E73E  5E		     6			POP ESI
 0000E73F  5A		     5				POP  EDX
 0000E740  FE C6	     5				INC  DH
 0000E742  E8 00000000 E     5				Call GoToXY
 0000E752  52		     5				PUSH EDX
 0000E753  52		     6			PUSH EDX
 0000E754  51		     6			PUSH ECX
 0000E755  56		     6			PUSH ESI
 0000E756  BA 0000034E R     6				MOV EDX, OFFSET KEY_Z_M_2
 0000E75B  E8 00000000 E     6				CALL WriteString
 0000E760  59		     6			POP ECX
 0000E761  59		     6			POP ECX
 0000E762  5E		     6			POP ESI
 0000E763  5A		     5				POP  EDX
 0000E764  FE C6	     5				INC  DH
 0000E766  E8 00000000 E     5				Call GoToXY
 0000E776  52		     5				PUSH EDX
 0000E777  52		     6			PUSH EDX
 0000E778  51		     6			PUSH ECX
 0000E779  56		     6			PUSH ESI
 0000E77A  BA 00000354 R     6				MOV EDX, OFFSET KEY_Z_M_3
 0000E77F  E8 00000000 E     6				CALL WriteString
 0000E784  59		     6			POP ECX
 0000E785  59		     6			POP ECX
 0000E786  5E		     6			POP ESI
 0000E787  5A		     5				POP  EDX
 0000E788  FE C6	     5				INC  DH
 0000E78A  E8 00000000 E     5				Call GoToXY
 0000E798  50		     4				PUSH 	EAX
 0000E799  B8 00000007	     4					MOV 	EAX, 00000111b
 0000E79E  E8 00000000 E     4					CALL	SetTextColor
 0000E7A3  58		     4				POP 	EAX
 0000E7CF  50		     4				PUSH 	EAX
 0000E7D0  B8 00000007	     4					MOV 	EAX, 00000111b
 0000E7D5  E8 00000000 E     4					CALL	SetTextColor
 0000E7DA  58		     4				POP 	EAX
 0000E7DB  8A 15 00000002 R  5			MOV  	dl, CurrentPointX
 0000E7E1  8A 35 00000003 R  5			MOV  	dh, CurrentPointY
 0000E7E7  88 15 00000000 R  5			MOV		LastPointX,	dl
 0000E7ED  88 35 00000001 R  5			MOV 	LastPointY,	dh
 0000E7F3  B2 1D	     5			MOV  	dl, BYTE PTR 29
 0000E7F5  B6 18	     5			MOV  	dh, BYTE PTR 24
 0000E7F7  88 15 00000002 R  5			MOV 	CurrentPointX,	dl
 0000E7FD  88 35 00000003 R  5			MOV 	CurrentPointY,	dh
 0000E803  E8 00000000 E     5			CALL 	Gotoxy  
 0000E808  52		     5				PUSH EDX
 0000E809  52		     6			PUSH EDX
 0000E80A  51		     6			PUSH ECX
 0000E80B  56		     6			PUSH ESI
 0000E80C  BA 0000032B R     6				MOV EDX, OFFSET KEY_Z_1
 0000E811  E8 00000000 E     6				CALL WriteString
 0000E816  59		     6			POP ECX
 0000E817  59		     6			POP ECX
 0000E818  5E		     6			POP ESI
 0000E819  5A		     5				POP  EDX
 0000E81A  FE C6	     5				INC  DH
 0000E81C  E8 00000000 E     5				Call GoToXY
 0000E821  52		     5				PUSH EDX
 0000E822  52		     6			PUSH EDX
 0000E823  51		     6			PUSH ECX
 0000E824  56		     6			PUSH ESI
 0000E825  BA 00000332 R     6				MOV EDX, OFFSET KEY_Z_2
 0000E82A  E8 00000000 E     6				CALL WriteString
 0000E82F  59		     6			POP ECX
 0000E830  59		     6			POP ECX
 0000E831  5E		     6			POP ESI
 0000E832  5A		     5				POP  EDX
 0000E833  FE C6	     5				INC  DH
 0000E835  E8 00000000 E     5				Call GoToXY
 0000E83A  52		     5				PUSH EDX
 0000E83B  52		     6			PUSH EDX
 0000E83C  51		     6			PUSH ECX
 0000E83D  56		     6			PUSH ESI
 0000E83E  BA 00000341 R     6				MOV EDX, OFFSET KEY_Z_3
 0000E843  E8 00000000 E     6				CALL WriteString
 0000E848  59		     6			POP ECX
 0000E849  59		     6			POP ECX
 0000E84A  5E		     6			POP ESI
 0000E84B  5A		     5				POP  EDX
 0000E84C  FE C6	     5				INC  DH
 0000E84E  E8 00000000 E     5				Call GoToXY
 0000E85C  52		     5				PUSH EDX
 0000E85D  52		     6			PUSH EDX
 0000E85E  51		     6			PUSH ECX
 0000E85F  56		     6			PUSH ESI
 0000E860  BA 00000348 R     6				MOV EDX, OFFSET KEY_Z_M_1
 0000E865  E8 00000000 E     6				CALL WriteString
 0000E86A  59		     6			POP ECX
 0000E86B  59		     6			POP ECX
 0000E86C  5E		     6			POP ESI
 0000E86D  5A		     5				POP  EDX
 0000E86E  FE C6	     5				INC  DH
 0000E870  E8 00000000 E     5				Call GoToXY
 0000E883  52		     5				PUSH EDX
 0000E884  52		     6			PUSH EDX
 0000E885  51		     6			PUSH ECX
 0000E886  56		     6			PUSH ESI
 0000E887  BA 0000034E R     6				MOV EDX, OFFSET KEY_Z_M_2
 0000E88C  E8 00000000 E     6				CALL WriteString
 0000E891  59		     6			POP ECX
 0000E892  59		     6			POP ECX
 0000E893  5E		     6			POP ESI
 0000E894  5A		     5				POP  EDX
 0000E895  FE C6	     5				INC  DH
 0000E897  E8 00000000 E     5				Call GoToXY
 0000E8AE  52		     5				PUSH EDX
 0000E8AF  52		     6			PUSH EDX
 0000E8B0  51		     6			PUSH ECX
 0000E8B1  56		     6			PUSH ESI
 0000E8B2  BA 00000354 R     6				MOV EDX, OFFSET KEY_Z_M_3
 0000E8B7  E8 00000000 E     6				CALL WriteString
 0000E8BC  59		     6			POP ECX
 0000E8BD  59		     6			POP ECX
 0000E8BE  5E		     6			POP ESI
 0000E8BF  5A		     5				POP  EDX
 0000E8C0  FE C6	     5				INC  DH
 0000E8C2  E8 00000000 E     5				Call GoToXY
 0000E8D5  50		     4				PUSH 	EAX
 0000E8D6  B8 00000008	     4					MOV 	EAX, Gray
 0000E8DB  E8 00000000 E     4					CALL	SetTextColor
 0000E8E0  58		     4				POP 	EAX
 0000E8E1  8A 15 00000002 R  5			MOV  	dl, CurrentPointX
 0000E8E7  8A 35 00000003 R  5			MOV  	dh, CurrentPointY
 0000E8ED  88 15 00000000 R  5			MOV		LastPointX,	dl
 0000E8F3  88 35 00000001 R  5			MOV 	LastPointY,	dh
 0000E8F9  B2 1D	     5			MOV  	dl, BYTE PTR 29
 0000E8FB  B6 18	     5			MOV  	dh, BYTE PTR 24
 0000E8FD  88 15 00000002 R  5			MOV 	CurrentPointX,	dl
 0000E903  88 35 00000003 R  5			MOV 	CurrentPointY,	dh
 0000E909  E8 00000000 E     5			CALL 	Gotoxy  
 0000E90E  52		     5				PUSH EDX
 0000E90F  52		     6			PUSH EDX
 0000E910  51		     6			PUSH ECX
 0000E911  56		     6			PUSH ESI
 0000E912  BA 0000032B R     6				MOV EDX, OFFSET KEY_Z_1
 0000E917  E8 00000000 E     6				CALL WriteString
 0000E91C  59		     6			POP ECX
 0000E91D  59		     6			POP ECX
 0000E91E  5E		     6			POP ESI
 0000E91F  5A		     5				POP  EDX
 0000E920  FE C6	     5				INC  DH
 0000E922  E8 00000000 E     5				Call GoToXY
 0000E927  52		     5				PUSH EDX
 0000E928  52		     6			PUSH EDX
 0000E929  51		     6			PUSH ECX
 0000E92A  56		     6			PUSH ESI
 0000E92B  BA 00000332 R     6				MOV EDX, OFFSET KEY_Z_2
 0000E930  E8 00000000 E     6				CALL WriteString
 0000E935  59		     6			POP ECX
 0000E936  59		     6			POP ECX
 0000E937  5E		     6			POP ESI
 0000E938  5A		     5				POP  EDX
 0000E939  FE C6	     5				INC  DH
 0000E93B  E8 00000000 E     5				Call GoToXY
 0000E940  52		     5				PUSH EDX
 0000E941  52		     6			PUSH EDX
 0000E942  51		     6			PUSH ECX
 0000E943  56		     6			PUSH ESI
 0000E944  BA 00000341 R     6				MOV EDX, OFFSET KEY_Z_3
 0000E949  E8 00000000 E     6				CALL WriteString
 0000E94E  59		     6			POP ECX
 0000E94F  59		     6			POP ECX
 0000E950  5E		     6			POP ESI
 0000E951  5A		     5				POP  EDX
 0000E952  FE C6	     5				INC  DH
 0000E954  E8 00000000 E     5				Call GoToXY
 0000E962  52		     5				PUSH EDX
 0000E963  52		     6			PUSH EDX
 0000E964  51		     6			PUSH ECX
 0000E965  56		     6			PUSH ESI
 0000E966  BA 00000348 R     6				MOV EDX, OFFSET KEY_Z_M_1
 0000E96B  E8 00000000 E     6				CALL WriteString
 0000E970  59		     6			POP ECX
 0000E971  59		     6			POP ECX
 0000E972  5E		     6			POP ESI
 0000E973  5A		     5				POP  EDX
 0000E974  FE C6	     5				INC  DH
 0000E976  E8 00000000 E     5				Call GoToXY
 0000E986  52		     5				PUSH EDX
 0000E987  52		     6			PUSH EDX
 0000E988  51		     6			PUSH ECX
 0000E989  56		     6			PUSH ESI
 0000E98A  BA 0000034E R     6				MOV EDX, OFFSET KEY_Z_M_2
 0000E98F  E8 00000000 E     6				CALL WriteString
 0000E994  59		     6			POP ECX
 0000E995  59		     6			POP ECX
 0000E996  5E		     6			POP ESI
 0000E997  5A		     5				POP  EDX
 0000E998  FE C6	     5				INC  DH
 0000E99A  E8 00000000 E     5				Call GoToXY
 0000E9AA  52		     5				PUSH EDX
 0000E9AB  52		     6			PUSH EDX
 0000E9AC  51		     6			PUSH ECX
 0000E9AD  56		     6			PUSH ESI
 0000E9AE  BA 00000354 R     6				MOV EDX, OFFSET KEY_Z_M_3
 0000E9B3  E8 00000000 E     6				CALL WriteString
 0000E9B8  59		     6			POP ECX
 0000E9B9  59		     6			POP ECX
 0000E9BA  5E		     6			POP ESI
 0000E9BB  5A		     5				POP  EDX
 0000E9BC  FE C6	     5				INC  DH
 0000E9BE  E8 00000000 E     5				Call GoToXY
 0000E9CC  50		     4				PUSH 	EAX
 0000E9CD  B8 00000007	     4					MOV 	EAX, 00000111b
 0000E9D2  E8 00000000 E     4					CALL	SetTextColor
 0000E9D7  58		     4				POP 	EAX
 0000EA03  50		     4				PUSH 	EAX
 0000EA04  B8 00000007	     4					MOV 	EAX, 00000111b
 0000EA09  E8 00000000 E     4					CALL	SetTextColor
 0000EA0E  58		     4				POP 	EAX
 0000EA0F  8A 15 00000002 R  5			MOV  	dl, CurrentPointX
 0000EA15  8A 35 00000003 R  5			MOV  	dh, CurrentPointY
 0000EA1B  88 15 00000000 R  5			MOV		LastPointX,	dl
 0000EA21  88 35 00000001 R  5			MOV 	LastPointY,	dh
 0000EA27  B2 1D	     5			MOV  	dl, BYTE PTR 29
 0000EA29  B6 18	     5			MOV  	dh, BYTE PTR 24
 0000EA2B  88 15 00000002 R  5			MOV 	CurrentPointX,	dl
 0000EA31  88 35 00000003 R  5			MOV 	CurrentPointY,	dh
 0000EA37  E8 00000000 E     5			CALL 	Gotoxy  
 0000EA3C  52		     5				PUSH EDX
 0000EA3D  52		     6			PUSH EDX
 0000EA3E  51		     6			PUSH ECX
 0000EA3F  56		     6			PUSH ESI
 0000EA40  BA 0000032B R     6				MOV EDX, OFFSET KEY_Z_1
 0000EA45  E8 00000000 E     6				CALL WriteString
 0000EA4A  59		     6			POP ECX
 0000EA4B  59		     6			POP ECX
 0000EA4C  5E		     6			POP ESI
 0000EA4D  5A		     5				POP  EDX
 0000EA4E  FE C6	     5				INC  DH
 0000EA50  E8 00000000 E     5				Call GoToXY
 0000EA55  52		     5				PUSH EDX
 0000EA56  52		     6			PUSH EDX
 0000EA57  51		     6			PUSH ECX
 0000EA58  56		     6			PUSH ESI
 0000EA59  BA 00000332 R     6				MOV EDX, OFFSET KEY_Z_2
 0000EA5E  E8 00000000 E     6				CALL WriteString
 0000EA63  59		     6			POP ECX
 0000EA64  59		     6			POP ECX
 0000EA65  5E		     6			POP ESI
 0000EA66  5A		     5				POP  EDX
 0000EA67  FE C6	     5				INC  DH
 0000EA69  E8 00000000 E     5				Call GoToXY
 0000EA6E  52		     5				PUSH EDX
 0000EA6F  52		     6			PUSH EDX
 0000EA70  51		     6			PUSH ECX
 0000EA71  56		     6			PUSH ESI
 0000EA72  BA 00000341 R     6				MOV EDX, OFFSET KEY_Z_3
 0000EA77  E8 00000000 E     6				CALL WriteString
 0000EA7C  59		     6			POP ECX
 0000EA7D  59		     6			POP ECX
 0000EA7E  5E		     6			POP ESI
 0000EA7F  5A		     5				POP  EDX
 0000EA80  FE C6	     5				INC  DH
 0000EA82  E8 00000000 E     5				Call GoToXY
 0000EA90  52		     5				PUSH EDX
 0000EA91  52		     6			PUSH EDX
 0000EA92  51		     6			PUSH ECX
 0000EA93  56		     6			PUSH ESI
 0000EA94  BA 00000348 R     6				MOV EDX, OFFSET KEY_Z_M_1
 0000EA99  E8 00000000 E     6				CALL WriteString
 0000EA9E  59		     6			POP ECX
 0000EA9F  59		     6			POP ECX
 0000EAA0  5E		     6			POP ESI
 0000EAA1  5A		     5				POP  EDX
 0000EAA2  FE C6	     5				INC  DH
 0000EAA4  E8 00000000 E     5				Call GoToXY
 0000EAB7  52		     5				PUSH EDX
 0000EAB8  52		     6			PUSH EDX
 0000EAB9  51		     6			PUSH ECX
 0000EABA  56		     6			PUSH ESI
 0000EABB  BA 0000034E R     6				MOV EDX, OFFSET KEY_Z_M_2
 0000EAC0  E8 00000000 E     6				CALL WriteString
 0000EAC5  59		     6			POP ECX
 0000EAC6  59		     6			POP ECX
 0000EAC7  5E		     6			POP ESI
 0000EAC8  5A		     5				POP  EDX
 0000EAC9  FE C6	     5				INC  DH
 0000EACB  E8 00000000 E     5				Call GoToXY
 0000EAE2  52		     5				PUSH EDX
 0000EAE3  52		     6			PUSH EDX
 0000EAE4  51		     6			PUSH ECX
 0000EAE5  56		     6			PUSH ESI
 0000EAE6  BA 00000354 R     6				MOV EDX, OFFSET KEY_Z_M_3
 0000EAEB  E8 00000000 E     6				CALL WriteString
 0000EAF0  59		     6			POP ECX
 0000EAF1  59		     6			POP ECX
 0000EAF2  5E		     6			POP ESI
 0000EAF3  5A		     5				POP  EDX
 0000EAF4  FE C6	     5				INC  DH
 0000EAF6  E8 00000000 E     5				Call GoToXY
 0000EB09  50		     4				PUSH 	EAX
 0000EB0A  B8 00000008	     4					MOV 	EAX, Gray
 0000EB0F  E8 00000000 E     4					CALL	SetTextColor
 0000EB14  58		     4				POP 	EAX
 0000EB15  8A 15 00000002 R  5			MOV  	dl, CurrentPointX
 0000EB1B  8A 35 00000003 R  5			MOV  	dh, CurrentPointY
 0000EB21  88 15 00000000 R  5			MOV		LastPointX,	dl
 0000EB27  88 35 00000001 R  5			MOV 	LastPointY,	dh
 0000EB2D  B2 1D	     5			MOV  	dl, BYTE PTR 29
 0000EB2F  B6 18	     5			MOV  	dh, BYTE PTR 24
 0000EB31  88 15 00000002 R  5			MOV 	CurrentPointX,	dl
 0000EB37  88 35 00000003 R  5			MOV 	CurrentPointY,	dh
 0000EB3D  E8 00000000 E     5			CALL 	Gotoxy  
 0000EB42  52		     5				PUSH EDX
 0000EB43  52		     6			PUSH EDX
 0000EB44  51		     6			PUSH ECX
 0000EB45  56		     6			PUSH ESI
 0000EB46  BA 0000032B R     6				MOV EDX, OFFSET KEY_Z_1
 0000EB4B  E8 00000000 E     6				CALL WriteString
 0000EB50  59		     6			POP ECX
 0000EB51  59		     6			POP ECX
 0000EB52  5E		     6			POP ESI
 0000EB53  5A		     5				POP  EDX
 0000EB54  FE C6	     5				INC  DH
 0000EB56  E8 00000000 E     5				Call GoToXY
 0000EB5B  52		     5				PUSH EDX
 0000EB5C  52		     6			PUSH EDX
 0000EB5D  51		     6			PUSH ECX
 0000EB5E  56		     6			PUSH ESI
 0000EB5F  BA 00000332 R     6				MOV EDX, OFFSET KEY_Z_2
 0000EB64  E8 00000000 E     6				CALL WriteString
 0000EB69  59		     6			POP ECX
 0000EB6A  59		     6			POP ECX
 0000EB6B  5E		     6			POP ESI
 0000EB6C  5A		     5				POP  EDX
 0000EB6D  FE C6	     5				INC  DH
 0000EB6F  E8 00000000 E     5				Call GoToXY
 0000EB74  52		     5				PUSH EDX
 0000EB75  52		     6			PUSH EDX
 0000EB76  51		     6			PUSH ECX
 0000EB77  56		     6			PUSH ESI
 0000EB78  BA 00000341 R     6				MOV EDX, OFFSET KEY_Z_3
 0000EB7D  E8 00000000 E     6				CALL WriteString
 0000EB82  59		     6			POP ECX
 0000EB83  59		     6			POP ECX
 0000EB84  5E		     6			POP ESI
 0000EB85  5A		     5				POP  EDX
 0000EB86  FE C6	     5				INC  DH
 0000EB88  E8 00000000 E     5				Call GoToXY
 0000EB96  52		     5				PUSH EDX
 0000EB97  52		     6			PUSH EDX
 0000EB98  51		     6			PUSH ECX
 0000EB99  56		     6			PUSH ESI
 0000EB9A  BA 00000348 R     6				MOV EDX, OFFSET KEY_Z_M_1
 0000EB9F  E8 00000000 E     6				CALL WriteString
 0000EBA4  59		     6			POP ECX
 0000EBA5  59		     6			POP ECX
 0000EBA6  5E		     6			POP ESI
 0000EBA7  5A		     5				POP  EDX
 0000EBA8  FE C6	     5				INC  DH
 0000EBAA  E8 00000000 E     5				Call GoToXY
 0000EBBA  52		     5				PUSH EDX
 0000EBBB  52		     6			PUSH EDX
 0000EBBC  51		     6			PUSH ECX
 0000EBBD  56		     6			PUSH ESI
 0000EBBE  BA 0000034E R     6				MOV EDX, OFFSET KEY_Z_M_2
 0000EBC3  E8 00000000 E     6				CALL WriteString
 0000EBC8  59		     6			POP ECX
 0000EBC9  59		     6			POP ECX
 0000EBCA  5E		     6			POP ESI
 0000EBCB  5A		     5				POP  EDX
 0000EBCC  FE C6	     5				INC  DH
 0000EBCE  E8 00000000 E     5				Call GoToXY
 0000EBDE  52		     5				PUSH EDX
 0000EBDF  52		     6			PUSH EDX
 0000EBE0  51		     6			PUSH ECX
 0000EBE1  56		     6			PUSH ESI
 0000EBE2  BA 00000354 R     6				MOV EDX, OFFSET KEY_Z_M_3
 0000EBE7  E8 00000000 E     6				CALL WriteString
 0000EBEC  59		     6			POP ECX
 0000EBED  59		     6			POP ECX
 0000EBEE  5E		     6			POP ESI
 0000EBEF  5A		     5				POP  EDX
 0000EBF0  FE C6	     5				INC  DH
 0000EBF2  E8 00000000 E     5				Call GoToXY
 0000EC00  50		     4				PUSH 	EAX
 0000EC01  B8 00000007	     4					MOV 	EAX, 00000111b
 0000EC06  E8 00000000 E     4					CALL	SetTextColor
 0000EC0B  58		     4				POP 	EAX
 0000EC29  50		     4				PUSH 	EAX
 0000EC2A  B8 0000000C	     4					MOV 	EAX, LightRed
 0000EC2F  E8 00000000 E     4					CALL	SetTextColor
 0000EC34  58		     4				POP 	EAX
 0000EC35  B9 0000003C	     4			MOV 	ECX,	60
 0000EC3A  BB 00000027	     4			MOV 	EBX,	SIZEOF NoEnoughMoney_Dialog
 0000EC3F  D1 EB	     4			SHR		EBX,	1
 0000EC41  2B CB	     4			SUB 	ECX,	EBX
 0000EC43  89 0D 00000CA0 R  4			MOV 	SetterBuffer,	ECX
 0000EC49  50		     5			PUSH EAX
 0000EC4A  51		     5			PUSH ECX
 0000EC4B  56		     5			PUSH ESI
 0000EC4C  8B C2	     5				MOV 	EAX,	EDX
 0000EC4E  8A 15 00000CA0 R  5				MOV  	 DL, BYTE PTR SetterBuffer
 0000EC54  B6 17	     5				MOV  	 DH, BYTE PTR 23 
 0000EC56  E8 00000000 E     5				CALL 	Gotoxy
 0000EC5B  8B D0	     5				MOV 	EDX,	EAX
 0000EC5D  BA 00000282 R     5				MOV EDX, OFFSET NoEnoughMoney_Dialog
 0000EC62  E8 00000000 E     5				CALL WriteString
 0000EC67  58		     5			POP EAX
 0000EC68  59		     5			POP ECX
 0000EC69  5E		     5			POP ESI
 0000EC6A  FF 05 00000CEC R  3				INC EnoughTimer
 0000EC72  50		     4			PUSH EAX
 0000EC73  B8 00000000	     4				MOV EAX, 0
 0000EC78  A3 00000CEC R     4				MOV EnoughTimer, 	EAX
 0000EC7D  58		     4			POP EAX
 0000EC94  B9 0000003C	     4			MOV 	ECX,	60
 0000EC99  BB 00000028	     4			MOV 	EBX,	SIZEOF Building_Dialog_1
 0000EC9E  D1 EB	     4			SHR		EBX,	1
 0000ECA0  2B CB	     4			SUB 	ECX,	EBX
 0000ECA2  89 0D 00000CA0 R  4			MOV 	SetterBuffer,	ECX
 0000ECA8  50		     5			PUSH EAX
 0000ECA9  51		     5			PUSH ECX
 0000ECAA  56		     5			PUSH ESI
 0000ECAB  8B C2	     5				MOV 	EAX,	EDX
 0000ECAD  8A 15 00000CA0 R  5				MOV  	 DL, BYTE PTR SetterBuffer
 0000ECB3  B6 15	     5				MOV  	 DH, BYTE PTR 21 
 0000ECB5  E8 00000000 E     5				CALL 	Gotoxy
 0000ECBA  8B D0	     5				MOV 	EDX,	EAX
 0000ECBC  BA 00000192 R     5				MOV EDX, OFFSET Building_Dialog_1
 0000ECC1  E8 00000000 E     5				CALL WriteString
 0000ECC6  58		     5			POP EAX
 0000ECC7  59		     5			POP ECX
 0000ECC8  5E		     5			POP ESI
 0000ECD7  B9 0000003C	     4			MOV 	ECX,	60
 0000ECDC  BB 00000028	     4			MOV 	EBX,	SIZEOF Building_Dialog_2
 0000ECE1  D1 EB	     4			SHR		EBX,	1
 0000ECE3  2B CB	     4			SUB 	ECX,	EBX
 0000ECE5  89 0D 00000CA0 R  4			MOV 	SetterBuffer,	ECX
 0000ECEB  50		     5			PUSH EAX
 0000ECEC  51		     5			PUSH ECX
 0000ECED  56		     5			PUSH ESI
 0000ECEE  8B C2	     5				MOV 	EAX,	EDX
 0000ECF0  8A 15 00000CA0 R  5				MOV  	 DL, BYTE PTR SetterBuffer
 0000ECF6  B6 15	     5				MOV  	 DH, BYTE PTR 21 
 0000ECF8  E8 00000000 E     5				CALL 	Gotoxy
 0000ECFD  8B D0	     5				MOV 	EDX,	EAX
 0000ECFF  BA 000001BA R     5				MOV EDX, OFFSET Building_Dialog_2
 0000ED04  E8 00000000 E     5				CALL WriteString
 0000ED09  58		     5			POP EAX
 0000ED0A  59		     5			POP ECX
 0000ED0B  5E		     5			POP ESI
 0000ED1A  B9 0000003C	     4			MOV 	ECX,	60
 0000ED1F  BB 00000028	     4			MOV 	EBX,	SIZEOF Building_Dialog_3
 0000ED24  D1 EB	     4			SHR		EBX,	1
 0000ED26  2B CB	     4			SUB 	ECX,	EBX
 0000ED28  89 0D 00000CA0 R  4			MOV 	SetterBuffer,	ECX
 0000ED2E  50		     5			PUSH EAX
 0000ED2F  51		     5			PUSH ECX
 0000ED30  56		     5			PUSH ESI
 0000ED31  8B C2	     5				MOV 	EAX,	EDX
 0000ED33  8A 15 00000CA0 R  5				MOV  	 DL, BYTE PTR SetterBuffer
 0000ED39  B6 15	     5				MOV  	 DH, BYTE PTR 21 
 0000ED3B  E8 00000000 E     5				CALL 	Gotoxy
 0000ED40  8B D0	     5				MOV 	EDX,	EAX
 0000ED42  BA 000001E2 R     5				MOV EDX, OFFSET Building_Dialog_3
 0000ED47  E8 00000000 E     5				CALL WriteString
 0000ED4C  58		     5			POP EAX
 0000ED4D  59		     5			POP ECX
 0000ED4E  5E		     5			POP ESI
 0000ED5D  B9 0000003C	     4			MOV 	ECX,	60
 0000ED62  BB 00000028	     4			MOV 	EBX,	SIZEOF Building_Dialog_4
 0000ED67  D1 EB	     4			SHR		EBX,	1
 0000ED69  2B CB	     4			SUB 	ECX,	EBX
 0000ED6B  89 0D 00000CA0 R  4			MOV 	SetterBuffer,	ECX
 0000ED71  50		     5			PUSH EAX
 0000ED72  51		     5			PUSH ECX
 0000ED73  56		     5			PUSH ESI
 0000ED74  8B C2	     5				MOV 	EAX,	EDX
 0000ED76  8A 15 00000CA0 R  5				MOV  	 DL, BYTE PTR SetterBuffer
 0000ED7C  B6 15	     5				MOV  	 DH, BYTE PTR 21 
 0000ED7E  E8 00000000 E     5				CALL 	Gotoxy
 0000ED83  8B D0	     5				MOV 	EDX,	EAX
 0000ED85  BA 0000020A R     5				MOV EDX, OFFSET Building_Dialog_4
 0000ED8A  E8 00000000 E     5				CALL WriteString
 0000ED8F  58		     5			POP EAX
 0000ED90  59		     5			POP ECX
 0000ED91  5E		     5			POP ESI
 0000ED9D  B9 0000003C	     4			MOV 	ECX,	60
 0000EDA2  BB 00000028	     4			MOV 	EBX,	SIZEOF Building_Dialog_5
 0000EDA7  D1 EB	     4			SHR		EBX,	1
 0000EDA9  2B CB	     4			SUB 	ECX,	EBX
 0000EDAB  89 0D 00000CA0 R  4			MOV 	SetterBuffer,	ECX
 0000EDB1  50		     5			PUSH EAX
 0000EDB2  51		     5			PUSH ECX
 0000EDB3  56		     5			PUSH ESI
 0000EDB4  8B C2	     5				MOV 	EAX,	EDX
 0000EDB6  8A 15 00000CA0 R  5				MOV  	 DL, BYTE PTR SetterBuffer
 0000EDBC  B6 15	     5				MOV  	 DH, BYTE PTR 21 
 0000EDBE  E8 00000000 E     5				CALL 	Gotoxy
 0000EDC3  8B D0	     5				MOV 	EDX,	EAX
 0000EDC5  BA 00000232 R     5				MOV EDX, OFFSET Building_Dialog_5
 0000EDCA  E8 00000000 E     5				CALL WriteString
 0000EDCF  58		     5			POP EAX
 0000EDD0  59		     5			POP ECX
 0000EDD1  5E		     5			POP ESI
 0000EDDD  B9 0000003C	     4			MOV 	ECX,	60
 0000EDE2  BB 00000028	     4			MOV 	EBX,	SIZEOF Building_Dialog_6
 0000EDE7  D1 EB	     4			SHR		EBX,	1
 0000EDE9  2B CB	     4			SUB 	ECX,	EBX
 0000EDEB  89 0D 00000CA0 R  4			MOV 	SetterBuffer,	ECX
 0000EDF1  50		     5			PUSH EAX
 0000EDF2  51		     5			PUSH ECX
 0000EDF3  56		     5			PUSH ESI
 0000EDF4  8B C2	     5				MOV 	EAX,	EDX
 0000EDF6  8A 15 00000CA0 R  5				MOV  	 DL, BYTE PTR SetterBuffer
 0000EDFC  B6 15	     5				MOV  	 DH, BYTE PTR 21 
 0000EDFE  E8 00000000 E     5				CALL 	Gotoxy
 0000EE03  8B D0	     5				MOV 	EDX,	EAX
 0000EE05  BA 0000025A R     5				MOV EDX, OFFSET Building_Dialog_6
 0000EE0A  E8 00000000 E     5				CALL WriteString
 0000EE0F  58		     5			POP EAX
 0000EE10  59		     5			POP ECX
 0000EE11  5E		     5			POP ESI
 0000EE12  A1 00000CE8 R     3			MOV EAX,	Timer_Build_Goal
 0000EE17  8B 1D 00000CE0 R  3			MOV EBX,	Timer_UserBuild
 0000EE25  2B C3	     3				SUB EAX,	EBX
 0000EE27  A3 00000CA0 R     3				MOV SetterBuffer,	EAX
 0000EE2C  50		     4			PUSH	EAX
 0000EE2D  8B C2	     4				MOV 	EAX,	EDX
 0000EE2F  B2 3B	     4				MOV  	 DL, BYTE PTR 59
 0000EE31  B6 17	     4				MOV  	 DH, BYTE PTR 23
 0000EE33  E8 00000000 E     4				CALL 	Gotoxy
 0000EE38  8B D0	     4				MOV 	EDX,	EAX
 0000EE3A  58		     4			POP		EAX
 0000EE3B  50		     5			PUSH 	EAX
 0000EE3C  A1 00000CA0 R     5				MOV 	EAX,	SetterBuffer
 0000EE41  E8 00000000 E     5				CALL 	WriteDec
 0000EE46  58		     5			POP 	EAX
 0000EE47  60		     2			PUSHAD
 0000EE48  B8 00000000	     2				MOV EAX, 0
 0000EE51  50		     3			PUSH EAX
 0000EE52  B8 00000005	     3				MOV EAX, 5
 0000EE57  A3 00000DD1 R     3				MOV HPLineX, 	EAX
 0000EE5C  58		     3			POP EAX
 0000EE5D  50		     3			PUSH EAX
 0000EE5E  B8 0000000A	     3				MOV EAX, 10
 0000EE63  A3 00000DD5 R     3				MOV HPLineY, 	EAX
 0000EE68  58		     3			POP EAX
 0000EE69  8B 1D 00000DC5 R  2					MOV EBX, UserCastleHP
 0000EE71  50		     3			PUSH EAX
 0000EE72  B8 00000069	     3				MOV EAX, 105
 0000EE77  A3 00000DD1 R     3				MOV HPLineX, 	EAX
 0000EE7C  58		     3			POP EAX
 0000EE7D  50		     3			PUSH EAX
 0000EE7E  B8 0000000A	     3				MOV EAX, 10
 0000EE83  A3 00000DD5 R     3				MOV HPLineY, 	EAX
 0000EE88  58		     3			POP EAX
 0000EE89  8B 1D 00000DC9 R  2					MOV EBX, CompCastleHP
 0000EE9B  60		     3			PUSHAD
 0000EE9C  8A 15 00000002 R  4			MOV  	dl, CurrentPointX
 0000EEA2  8A 35 00000003 R  4			MOV  	dh, CurrentPointY
 0000EEA8  88 15 00000000 R  4			MOV		LastPointX,	dl
 0000EEAE  88 35 00000001 R  4			MOV 	LastPointY,	dh
 0000EEB4  8A 15 00000DD1 R  4			MOV  	dl, BYTE PTR HPLineX
 0000EEBA  8A 35 00000DD5 R  4			MOV  	dh, BYTE PTR HPLineY
 0000EEC0  88 15 00000002 R  4			MOV 	CurrentPointX,	dl
 0000EEC6  88 35 00000003 R  4			MOV 	CurrentPointY,	dh
 0000EECC  E8 00000000 E     4			CALL 	Gotoxy  
 0000EED1  50		     4			PUSH 	EAX
 0000EED2  8B C3	     4				MOV 	EAX,	EBX
 0000EED4  E8 00000000 E     4				CALL 	WriteDec
 0000EED9  58		     4			POP 	EAX
 0000EEDA  50		     4			PUSH 	EAX
 0000EEDB  B8 0000005B	     4				MOV 	EAX,	'['
 0000EEE0  E8 00000000 E     4				CALL 	WriteChar
 0000EEE5  58		     4			POP 	EAX
 0000EEE6  B9 00000004	     3				MOV ECX, 4
 0000EEF9  50		     4				PUSH 	EAX
 0000EEFA  B8 00000004	     4					MOV 	EAX, Red
 0000EEFF  E8 00000000 E     4					CALL	SetTextColor
 0000EF04  58		     4				POP 	EAX
 0000EF05  50		     4			PUSH 	EAX
 0000EF06  B8 00000049	     4				MOV 	EAX,	'I'
 0000EF0B  E8 00000000 E     4				CALL 	WriteChar
 0000EF10  58		     4			POP 	EAX
 0000EF11  50		     4			PUSH 	EAX
 0000EF12  B8 00000020	     4				MOV 	EAX,	' '
 0000EF17  E8 00000000 E     4				CALL 	WriteChar
 0000EF1C  58		     4			POP 	EAX
 0000EF1D  50		     4			PUSH 	EAX
 0000EF1E  B8 00000020	     4				MOV 	EAX,	' '
 0000EF23  E8 00000000 E     4				CALL 	WriteChar
 0000EF28  58		     4			POP 	EAX
 0000EF29  50		     4			PUSH 	EAX
 0000EF2A  B8 00000020	     4				MOV 	EAX,	' '
 0000EF2F  E8 00000000 E     4				CALL 	WriteChar
 0000EF34  58		     4			POP 	EAX
 0000EF48  50		     4				PUSH 	EAX
 0000EF49  B8 0000000C	     4					MOV 	EAX, LightRed
 0000EF4E  E8 00000000 E     4					CALL	SetTextColor
 0000EF53  58		     4				POP 	EAX
 0000EF54  50		     4			PUSH 	EAX
 0000EF55  B8 00000049	     4				MOV 	EAX,	'I'
 0000EF5A  E8 00000000 E     4				CALL 	WriteChar
 0000EF5F  58		     4			POP 	EAX
 0000EF60  50		     4			PUSH 	EAX
 0000EF61  B8 00000049	     4				MOV 	EAX,	'I'
 0000EF66  E8 00000000 E     4				CALL 	WriteChar
 0000EF6B  58		     4			POP 	EAX
 0000EF6C  50		     4			PUSH 	EAX
 0000EF6D  B8 00000020	     4				MOV 	EAX,	' '
 0000EF72  E8 00000000 E     4				CALL 	WriteChar
 0000EF77  58		     4			POP 	EAX
 0000EF78  50		     4			PUSH 	EAX
 0000EF79  B8 00000020	     4				MOV 	EAX,	' '
 0000EF7E  E8 00000000 E     4				CALL 	WriteChar
 0000EF83  58		     4			POP 	EAX
 0000EF97  50		     4				PUSH 	EAX
 0000EF98  B8 00000002	     4					MOV 	EAX, Green
 0000EF9D  E8 00000000 E     4					CALL	SetTextColor
 0000EFA2  58		     4				POP 	EAX
 0000EFA3  50		     4			PUSH 	EAX
 0000EFA4  B8 00000049	     4				MOV 	EAX,	'I'
 0000EFA9  E8 00000000 E     4				CALL 	WriteChar
 0000EFAE  58		     4			POP 	EAX
 0000EFAF  50		     4			PUSH 	EAX
 0000EFB0  B8 00000049	     4				MOV 	EAX,	'I'
 0000EFB5  E8 00000000 E     4				CALL 	WriteChar
 0000EFBA  58		     4			POP 	EAX
 0000EFBB  50		     4			PUSH 	EAX
 0000EFBC  B8 00000049	     4				MOV 	EAX,	'I'
 0000EFC1  E8 00000000 E     4				CALL 	WriteChar
 0000EFC6  58		     4			POP 	EAX
 0000EFC7  50		     4			PUSH 	EAX
 0000EFC8  B8 00000020	     4				MOV 	EAX,	' '
 0000EFCD  E8 00000000 E     4				CALL 	WriteChar
 0000EFD2  58		     4			POP 	EAX
 0000EFE3  50		     4				PUSH 	EAX
 0000EFE4  B8 0000000A	     4					MOV 	EAX, LightGreen
 0000EFE9  E8 00000000 E     4					CALL	SetTextColor
 0000EFEE  58		     4				POP 	EAX
 0000EFEF  50		     4			PUSH 	EAX
 0000EFF0  B8 00000049	     4				MOV 	EAX,	'I'
 0000EFF5  E8 00000000 E     4				CALL 	WriteChar
 0000EFFA  58		     4			POP 	EAX
 0000EFFB  50		     4			PUSH 	EAX
 0000EFFC  B8 00000049	     4				MOV 	EAX,	'I'
 0000F001  E8 00000000 E     4				CALL 	WriteChar
 0000F006  58		     4			POP 	EAX
 0000F007  50		     4			PUSH 	EAX
 0000F008  B8 00000049	     4				MOV 	EAX,	'I'
 0000F00D  E8 00000000 E     4				CALL 	WriteChar
 0000F012  58		     4			POP 	EAX
 0000F013  50		     4			PUSH 	EAX
 0000F014  B8 00000049	     4				MOV 	EAX,	'I'
 0000F019  E8 00000000 E     4				CALL 	WriteChar
 0000F01E  58		     4			POP 	EAX
 0000F028  50		     4				PUSH 	EAX
 0000F029  B8 00000007	     4					MOV 	EAX, 00000111b
 0000F02E  E8 00000000 E     4					CALL	SetTextColor
 0000F033  58		     4				POP 	EAX
 0000F034  50		     4			PUSH 	EAX
 0000F035  B8 0000005D	     4				MOV 	EAX,	']'
 0000F03A  E8 00000000 E     4				CALL 	WriteChar
 0000F03F  58		     4			POP 	EAX
 0000F040  8A 15 00000000 R  4			MOV  	dl, LastPointX
 0000F046  8A 35 00000001 R  4			MOV  	dh, LastPointY
 0000F04C  88 15 00000002 R  4			MOV 	CurrentPointX,	dl
 0000F052  88 35 00000003 R  4			MOV 	CurrentPointY,	dh
 0000F058  E8 00000000 E     4			CALL 	Gotoxy 
 0000F05D  61		     3			POPAD
 0000F06F  60		     3			PUSHAD
 0000F070  8A 15 00000002 R  4			MOV  	dl, CurrentPointX
 0000F076  8A 35 00000003 R  4			MOV  	dh, CurrentPointY
 0000F07C  88 15 00000000 R  4			MOV		LastPointX,	dl
 0000F082  88 35 00000001 R  4			MOV 	LastPointY,	dh
 0000F088  8A 15 00000DD1 R  4			MOV  	dl, BYTE PTR HPLineX
 0000F08E  8A 35 00000DD5 R  4			MOV  	dh, BYTE PTR HPLineY
 0000F094  88 15 00000002 R  4			MOV 	CurrentPointX,	dl
 0000F09A  88 35 00000003 R  4			MOV 	CurrentPointY,	dh
 0000F0A0  E8 00000000 E     4			CALL 	Gotoxy  
 0000F0A5  50		     4			PUSH 	EAX
 0000F0A6  8B C3	     4				MOV 	EAX,	EBX
 0000F0A8  E8 00000000 E     4				CALL 	WriteDec
 0000F0AD  58		     4			POP 	EAX
 0000F0AE  50		     4			PUSH 	EAX
 0000F0AF  B8 0000005B	     4				MOV 	EAX,	'['
 0000F0B4  E8 00000000 E     4				CALL 	WriteChar
 0000F0B9  58		     4			POP 	EAX
 0000F0BA  B9 00000003	     3				MOV ECX, 3
 0000F0CD  50		     4				PUSH 	EAX
 0000F0CE  B8 00000004	     4					MOV 	EAX, Red
 0000F0D3  E8 00000000 E     4					CALL	SetTextColor
 0000F0D8  58		     4				POP 	EAX
 0000F0D9  50		     4			PUSH 	EAX
 0000F0DA  B8 00000049	     4				MOV 	EAX,	'I'
 0000F0DF  E8 00000000 E     4				CALL 	WriteChar
 0000F0E4  58		     4			POP 	EAX
 0000F0E5  50		     4			PUSH 	EAX
 0000F0E6  B8 00000020	     4				MOV 	EAX,	' '
 0000F0EB  E8 00000000 E     4				CALL 	WriteChar
 0000F0F0  58		     4			POP 	EAX
 0000F0F1  50		     4			PUSH 	EAX
 0000F0F2  B8 00000020	     4				MOV 	EAX,	' '
 0000F0F7  E8 00000000 E     4				CALL 	WriteChar
 0000F0FC  58		     4			POP 	EAX
 0000F0FD  50		     4			PUSH 	EAX
 0000F0FE  B8 00000020	     4				MOV 	EAX,	' '
 0000F103  E8 00000000 E     4				CALL 	WriteChar
 0000F108  58		     4			POP 	EAX
 0000F11C  50		     4				PUSH 	EAX
 0000F11D  B8 0000000C	     4					MOV 	EAX, LightRed
 0000F122  E8 00000000 E     4					CALL	SetTextColor
 0000F127  58		     4				POP 	EAX
 0000F128  50		     4			PUSH 	EAX
 0000F129  B8 00000049	     4				MOV 	EAX,	'I'
 0000F12E  E8 00000000 E     4				CALL 	WriteChar
 0000F133  58		     4			POP 	EAX
 0000F134  50		     4			PUSH 	EAX
 0000F135  B8 00000049	     4				MOV 	EAX,	'I'
 0000F13A  E8 00000000 E     4				CALL 	WriteChar
 0000F13F  58		     4			POP 	EAX
 0000F140  50		     4			PUSH 	EAX
 0000F141  B8 00000020	     4				MOV 	EAX,	' '
 0000F146  E8 00000000 E     4				CALL 	WriteChar
 0000F14B  58		     4			POP 	EAX
 0000F14C  50		     4			PUSH 	EAX
 0000F14D  B8 00000020	     4				MOV 	EAX,	' '
 0000F152  E8 00000000 E     4				CALL 	WriteChar
 0000F157  58		     4			POP 	EAX
 0000F16B  50		     4				PUSH 	EAX
 0000F16C  B8 00000002	     4					MOV 	EAX, Green
 0000F171  E8 00000000 E     4					CALL	SetTextColor
 0000F176  58		     4				POP 	EAX
 0000F177  50		     4			PUSH 	EAX
 0000F178  B8 00000049	     4				MOV 	EAX,	'I'
 0000F17D  E8 00000000 E     4				CALL 	WriteChar
 0000F182  58		     4			POP 	EAX
 0000F183  50		     4			PUSH 	EAX
 0000F184  B8 00000049	     4				MOV 	EAX,	'I'
 0000F189  E8 00000000 E     4				CALL 	WriteChar
 0000F18E  58		     4			POP 	EAX
 0000F18F  50		     4			PUSH 	EAX
 0000F190  B8 00000049	     4				MOV 	EAX,	'I'
 0000F195  E8 00000000 E     4				CALL 	WriteChar
 0000F19A  58		     4			POP 	EAX
 0000F19B  50		     4			PUSH 	EAX
 0000F19C  B8 00000020	     4				MOV 	EAX,	' '
 0000F1A1  E8 00000000 E     4				CALL 	WriteChar
 0000F1A6  58		     4			POP 	EAX
 0000F1B7  50		     4				PUSH 	EAX
 0000F1B8  B8 0000000A	     4					MOV 	EAX, LightGreen
 0000F1BD  E8 00000000 E     4					CALL	SetTextColor
 0000F1C2  58		     4				POP 	EAX
 0000F1C3  50		     4			PUSH 	EAX
 0000F1C4  B8 00000049	     4				MOV 	EAX,	'I'
 0000F1C9  E8 00000000 E     4				CALL 	WriteChar
 0000F1CE  58		     4			POP 	EAX
 0000F1CF  50		     4			PUSH 	EAX
 0000F1D0  B8 00000049	     4				MOV 	EAX,	'I'
 0000F1D5  E8 00000000 E     4				CALL 	WriteChar
 0000F1DA  58		     4			POP 	EAX
 0000F1DB  50		     4			PUSH 	EAX
 0000F1DC  B8 00000049	     4				MOV 	EAX,	'I'
 0000F1E1  E8 00000000 E     4				CALL 	WriteChar
 0000F1E6  58		     4			POP 	EAX
 0000F1E7  50		     4			PUSH 	EAX
 0000F1E8  B8 00000049	     4				MOV 	EAX,	'I'
 0000F1ED  E8 00000000 E     4				CALL 	WriteChar
 0000F1F2  58		     4			POP 	EAX
 0000F1FC  50		     4				PUSH 	EAX
 0000F1FD  B8 00000007	     4					MOV 	EAX, 00000111b
 0000F202  E8 00000000 E     4					CALL	SetTextColor
 0000F207  58		     4				POP 	EAX
 0000F208  50		     4			PUSH 	EAX
 0000F209  B8 0000005D	     4				MOV 	EAX,	']'
 0000F20E  E8 00000000 E     4				CALL 	WriteChar
 0000F213  58		     4			POP 	EAX
 0000F214  8A 15 00000000 R  4			MOV  	dl, LastPointX
 0000F21A  8A 35 00000001 R  4			MOV  	dh, LastPointY
 0000F220  88 15 00000002 R  4			MOV 	CurrentPointX,	dl
 0000F226  88 35 00000003 R  4			MOV 	CurrentPointY,	dh
 0000F22C  E8 00000000 E     4			CALL 	Gotoxy 
 0000F231  61		     3			POPAD
 0000F243  60		     3			PUSHAD
 0000F244  8A 15 00000002 R  4			MOV  	dl, CurrentPointX
 0000F24A  8A 35 00000003 R  4			MOV  	dh, CurrentPointY
 0000F250  88 15 00000000 R  4			MOV		LastPointX,	dl
 0000F256  88 35 00000001 R  4			MOV 	LastPointY,	dh
 0000F25C  8A 15 00000DD1 R  4			MOV  	dl, BYTE PTR HPLineX
 0000F262  8A 35 00000DD5 R  4			MOV  	dh, BYTE PTR HPLineY
 0000F268  88 15 00000002 R  4			MOV 	CurrentPointX,	dl
 0000F26E  88 35 00000003 R  4			MOV 	CurrentPointY,	dh
 0000F274  E8 00000000 E     4			CALL 	Gotoxy  
 0000F279  50		     4			PUSH 	EAX
 0000F27A  8B C3	     4				MOV 	EAX,	EBX
 0000F27C  E8 00000000 E     4				CALL 	WriteDec
 0000F281  58		     4			POP 	EAX
 0000F282  50		     4			PUSH 	EAX
 0000F283  B8 0000005B	     4				MOV 	EAX,	'['
 0000F288  E8 00000000 E     4				CALL 	WriteChar
 0000F28D  58		     4			POP 	EAX
 0000F28E  B9 00000002	     3				MOV ECX, 2
 0000F2A1  50		     4				PUSH 	EAX
 0000F2A2  B8 00000004	     4					MOV 	EAX, Red
 0000F2A7  E8 00000000 E     4					CALL	SetTextColor
 0000F2AC  58		     4				POP 	EAX
 0000F2AD  50		     4			PUSH 	EAX
 0000F2AE  B8 00000049	     4				MOV 	EAX,	'I'
 0000F2B3  E8 00000000 E     4				CALL 	WriteChar
 0000F2B8  58		     4			POP 	EAX
 0000F2B9  50		     4			PUSH 	EAX
 0000F2BA  B8 00000020	     4				MOV 	EAX,	' '
 0000F2BF  E8 00000000 E     4				CALL 	WriteChar
 0000F2C4  58		     4			POP 	EAX
 0000F2C5  50		     4			PUSH 	EAX
 0000F2C6  B8 00000020	     4				MOV 	EAX,	' '
 0000F2CB  E8 00000000 E     4				CALL 	WriteChar
 0000F2D0  58		     4			POP 	EAX
 0000F2D1  50		     4			PUSH 	EAX
 0000F2D2  B8 00000020	     4				MOV 	EAX,	' '
 0000F2D7  E8 00000000 E     4				CALL 	WriteChar
 0000F2DC  58		     4			POP 	EAX
 0000F2F0  50		     4				PUSH 	EAX
 0000F2F1  B8 0000000C	     4					MOV 	EAX, LightRed
 0000F2F6  E8 00000000 E     4					CALL	SetTextColor
 0000F2FB  58		     4				POP 	EAX
 0000F2FC  50		     4			PUSH 	EAX
 0000F2FD  B8 00000049	     4				MOV 	EAX,	'I'
 0000F302  E8 00000000 E     4				CALL 	WriteChar
 0000F307  58		     4			POP 	EAX
 0000F308  50		     4			PUSH 	EAX
 0000F309  B8 00000049	     4				MOV 	EAX,	'I'
 0000F30E  E8 00000000 E     4				CALL 	WriteChar
 0000F313  58		     4			POP 	EAX
 0000F314  50		     4			PUSH 	EAX
 0000F315  B8 00000020	     4				MOV 	EAX,	' '
 0000F31A  E8 00000000 E     4				CALL 	WriteChar
 0000F31F  58		     4			POP 	EAX
 0000F320  50		     4			PUSH 	EAX
 0000F321  B8 00000020	     4				MOV 	EAX,	' '
 0000F326  E8 00000000 E     4				CALL 	WriteChar
 0000F32B  58		     4			POP 	EAX
 0000F33F  50		     4				PUSH 	EAX
 0000F340  B8 00000002	     4					MOV 	EAX, Green
 0000F345  E8 00000000 E     4					CALL	SetTextColor
 0000F34A  58		     4				POP 	EAX
 0000F34B  50		     4			PUSH 	EAX
 0000F34C  B8 00000049	     4				MOV 	EAX,	'I'
 0000F351  E8 00000000 E     4				CALL 	WriteChar
 0000F356  58		     4			POP 	EAX
 0000F357  50		     4			PUSH 	EAX
 0000F358  B8 00000049	     4				MOV 	EAX,	'I'
 0000F35D  E8 00000000 E     4				CALL 	WriteChar
 0000F362  58		     4			POP 	EAX
 0000F363  50		     4			PUSH 	EAX
 0000F364  B8 00000049	     4				MOV 	EAX,	'I'
 0000F369  E8 00000000 E     4				CALL 	WriteChar
 0000F36E  58		     4			POP 	EAX
 0000F36F  50		     4			PUSH 	EAX
 0000F370  B8 00000020	     4				MOV 	EAX,	' '
 0000F375  E8 00000000 E     4				CALL 	WriteChar
 0000F37A  58		     4			POP 	EAX
 0000F38B  50		     4				PUSH 	EAX
 0000F38C  B8 0000000A	     4					MOV 	EAX, LightGreen
 0000F391  E8 00000000 E     4					CALL	SetTextColor
 0000F396  58		     4				POP 	EAX
 0000F397  50		     4			PUSH 	EAX
 0000F398  B8 00000049	     4				MOV 	EAX,	'I'
 0000F39D  E8 00000000 E     4				CALL 	WriteChar
 0000F3A2  58		     4			POP 	EAX
 0000F3A3  50		     4			PUSH 	EAX
 0000F3A4  B8 00000049	     4				MOV 	EAX,	'I'
 0000F3A9  E8 00000000 E     4				CALL 	WriteChar
 0000F3AE  58		     4			POP 	EAX
 0000F3AF  50		     4			PUSH 	EAX
 0000F3B0  B8 00000049	     4				MOV 	EAX,	'I'
 0000F3B5  E8 00000000 E     4				CALL 	WriteChar
 0000F3BA  58		     4			POP 	EAX
 0000F3BB  50		     4			PUSH 	EAX
 0000F3BC  B8 00000049	     4				MOV 	EAX,	'I'
 0000F3C1  E8 00000000 E     4				CALL 	WriteChar
 0000F3C6  58		     4			POP 	EAX
 0000F3D0  50		     4				PUSH 	EAX
 0000F3D1  B8 00000007	     4					MOV 	EAX, 00000111b
 0000F3D6  E8 00000000 E     4					CALL	SetTextColor
 0000F3DB  58		     4				POP 	EAX
 0000F3DC  50		     4			PUSH 	EAX
 0000F3DD  B8 0000005D	     4				MOV 	EAX,	']'
 0000F3E2  E8 00000000 E     4				CALL 	WriteChar
 0000F3E7  58		     4			POP 	EAX
 0000F3E8  8A 15 00000000 R  4			MOV  	dl, LastPointX
 0000F3EE  8A 35 00000001 R  4			MOV  	dh, LastPointY
 0000F3F4  88 15 00000002 R  4			MOV 	CurrentPointX,	dl
 0000F3FA  88 35 00000003 R  4			MOV 	CurrentPointY,	dh
 0000F400  E8 00000000 E     4			CALL 	Gotoxy 
 0000F405  61		     3			POPAD
 0000F40B  60		     3			PUSHAD
 0000F40C  8A 15 00000002 R  4			MOV  	dl, CurrentPointX
 0000F412  8A 35 00000003 R  4			MOV  	dh, CurrentPointY
 0000F418  88 15 00000000 R  4			MOV		LastPointX,	dl
 0000F41E  88 35 00000001 R  4			MOV 	LastPointY,	dh
 0000F424  8A 15 00000DD1 R  4			MOV  	dl, BYTE PTR HPLineX
 0000F42A  8A 35 00000DD5 R  4			MOV  	dh, BYTE PTR HPLineY
 0000F430  88 15 00000002 R  4			MOV 	CurrentPointX,	dl
 0000F436  88 35 00000003 R  4			MOV 	CurrentPointY,	dh
 0000F43C  E8 00000000 E     4			CALL 	Gotoxy  
 0000F441  50		     4			PUSH 	EAX
 0000F442  8B C3	     4				MOV 	EAX,	EBX
 0000F444  E8 00000000 E     4				CALL 	WriteDec
 0000F449  58		     4			POP 	EAX
 0000F44A  50		     4			PUSH 	EAX
 0000F44B  B8 0000005B	     4				MOV 	EAX,	'['
 0000F450  E8 00000000 E     4				CALL 	WriteChar
 0000F455  58		     4			POP 	EAX
 0000F456  B9 00000001	     3				MOV ECX, 1
 0000F469  50		     4				PUSH 	EAX
 0000F46A  B8 00000004	     4					MOV 	EAX, Red
 0000F46F  E8 00000000 E     4					CALL	SetTextColor
 0000F474  58		     4				POP 	EAX
 0000F475  50		     4			PUSH 	EAX
 0000F476  B8 00000049	     4				MOV 	EAX,	'I'
 0000F47B  E8 00000000 E     4				CALL 	WriteChar
 0000F480  58		     4			POP 	EAX
 0000F481  50		     4			PUSH 	EAX
 0000F482  B8 00000020	     4				MOV 	EAX,	' '
 0000F487  E8 00000000 E     4				CALL 	WriteChar
 0000F48C  58		     4			POP 	EAX
 0000F48D  50		     4			PUSH 	EAX
 0000F48E  B8 00000020	     4				MOV 	EAX,	' '
 0000F493  E8 00000000 E     4				CALL 	WriteChar
 0000F498  58		     4			POP 	EAX
 0000F499  50		     4			PUSH 	EAX
 0000F49A  B8 00000020	     4				MOV 	EAX,	' '
 0000F49F  E8 00000000 E     4				CALL 	WriteChar
 0000F4A4  58		     4			POP 	EAX
 0000F4B8  50		     4				PUSH 	EAX
 0000F4B9  B8 0000000C	     4					MOV 	EAX, LightRed
 0000F4BE  E8 00000000 E     4					CALL	SetTextColor
 0000F4C3  58		     4				POP 	EAX
 0000F4C4  50		     4			PUSH 	EAX
 0000F4C5  B8 00000049	     4				MOV 	EAX,	'I'
 0000F4CA  E8 00000000 E     4				CALL 	WriteChar
 0000F4CF  58		     4			POP 	EAX
 0000F4D0  50		     4			PUSH 	EAX
 0000F4D1  B8 00000049	     4				MOV 	EAX,	'I'
 0000F4D6  E8 00000000 E     4				CALL 	WriteChar
 0000F4DB  58		     4			POP 	EAX
 0000F4DC  50		     4			PUSH 	EAX
 0000F4DD  B8 00000020	     4				MOV 	EAX,	' '
 0000F4E2  E8 00000000 E     4				CALL 	WriteChar
 0000F4E7  58		     4			POP 	EAX
 0000F4E8  50		     4			PUSH 	EAX
 0000F4E9  B8 00000020	     4				MOV 	EAX,	' '
 0000F4EE  E8 00000000 E     4				CALL 	WriteChar
 0000F4F3  58		     4			POP 	EAX
 0000F507  50		     4				PUSH 	EAX
 0000F508  B8 00000002	     4					MOV 	EAX, Green
 0000F50D  E8 00000000 E     4					CALL	SetTextColor
 0000F512  58		     4				POP 	EAX
 0000F513  50		     4			PUSH 	EAX
 0000F514  B8 00000049	     4				MOV 	EAX,	'I'
 0000F519  E8 00000000 E     4				CALL 	WriteChar
 0000F51E  58		     4			POP 	EAX
 0000F51F  50		     4			PUSH 	EAX
 0000F520  B8 00000049	     4				MOV 	EAX,	'I'
 0000F525  E8 00000000 E     4				CALL 	WriteChar
 0000F52A  58		     4			POP 	EAX
 0000F52B  50		     4			PUSH 	EAX
 0000F52C  B8 00000049	     4				MOV 	EAX,	'I'
 0000F531  E8 00000000 E     4				CALL 	WriteChar
 0000F536  58		     4			POP 	EAX
 0000F537  50		     4			PUSH 	EAX
 0000F538  B8 00000020	     4				MOV 	EAX,	' '
 0000F53D  E8 00000000 E     4				CALL 	WriteChar
 0000F542  58		     4			POP 	EAX
 0000F553  50		     4				PUSH 	EAX
 0000F554  B8 0000000A	     4					MOV 	EAX, LightGreen
 0000F559  E8 00000000 E     4					CALL	SetTextColor
 0000F55E  58		     4				POP 	EAX
 0000F55F  50		     4			PUSH 	EAX
 0000F560  B8 00000049	     4				MOV 	EAX,	'I'
 0000F565  E8 00000000 E     4				CALL 	WriteChar
 0000F56A  58		     4			POP 	EAX
 0000F56B  50		     4			PUSH 	EAX
 0000F56C  B8 00000049	     4				MOV 	EAX,	'I'
 0000F571  E8 00000000 E     4				CALL 	WriteChar
 0000F576  58		     4			POP 	EAX
 0000F577  50		     4			PUSH 	EAX
 0000F578  B8 00000049	     4				MOV 	EAX,	'I'
 0000F57D  E8 00000000 E     4				CALL 	WriteChar
 0000F582  58		     4			POP 	EAX
 0000F583  50		     4			PUSH 	EAX
 0000F584  B8 00000049	     4				MOV 	EAX,	'I'
 0000F589  E8 00000000 E     4				CALL 	WriteChar
 0000F58E  58		     4			POP 	EAX
 0000F598  50		     4				PUSH 	EAX
 0000F599  B8 00000007	     4					MOV 	EAX, 00000111b
 0000F59E  E8 00000000 E     4					CALL	SetTextColor
 0000F5A3  58		     4				POP 	EAX
 0000F5A4  50		     4			PUSH 	EAX
 0000F5A5  B8 0000005D	     4				MOV 	EAX,	']'
 0000F5AA  E8 00000000 E     4				CALL 	WriteChar
 0000F5AF  58		     4			POP 	EAX
 0000F5B0  8A 15 00000000 R  4			MOV  	dl, LastPointX
 0000F5B6  8A 35 00000001 R  4			MOV  	dh, LastPointY
 0000F5BC  88 15 00000002 R  4			MOV 	CurrentPointX,	dl
 0000F5C2  88 35 00000003 R  4			MOV 	CurrentPointY,	dh
 0000F5C8  E8 00000000 E     4			CALL 	Gotoxy 
 0000F5CD  61		     3			POPAD
 0000F5CE  61		     2			POPAD
 0000F5CF  60		     2			PUSHAD
 0000F5D0  B8 00000001	     2				MOV EAX, 1
 0000F5D9  50		     3			PUSH EAX
 0000F5DA  B8 00000005	     3				MOV EAX, 5
 0000F5DF  A3 00000DD1 R     3				MOV HPLineX, 	EAX
 0000F5E4  58		     3			POP EAX
 0000F5E5  50		     3			PUSH EAX
 0000F5E6  B8 0000000A	     3				MOV EAX, 10
 0000F5EB  A3 00000DD5 R     3				MOV HPLineY, 	EAX
 0000F5F0  58		     3			POP EAX
 0000F5F1  8B 1D 00000DC5 R  2					MOV EBX, UserCastleHP
 0000F5F9  50		     3			PUSH EAX
 0000F5FA  B8 00000069	     3				MOV EAX, 105
 0000F5FF  A3 00000DD1 R     3				MOV HPLineX, 	EAX
 0000F604  58		     3			POP EAX
 0000F605  50		     3			PUSH EAX
 0000F606  B8 0000000A	     3				MOV EAX, 10
 0000F60B  A3 00000DD5 R     3				MOV HPLineY, 	EAX
 0000F610  58		     3			POP EAX
 0000F611  8B 1D 00000DC9 R  2					MOV EBX, CompCastleHP
 0000F623  60		     3			PUSHAD
 0000F624  8A 15 00000002 R  4			MOV  	dl, CurrentPointX
 0000F62A  8A 35 00000003 R  4			MOV  	dh, CurrentPointY
 0000F630  88 15 00000000 R  4			MOV		LastPointX,	dl
 0000F636  88 35 00000001 R  4			MOV 	LastPointY,	dh
 0000F63C  8A 15 00000DD1 R  4			MOV  	dl, BYTE PTR HPLineX
 0000F642  8A 35 00000DD5 R  4			MOV  	dh, BYTE PTR HPLineY
 0000F648  88 15 00000002 R  4			MOV 	CurrentPointX,	dl
 0000F64E  88 35 00000003 R  4			MOV 	CurrentPointY,	dh
 0000F654  E8 00000000 E     4			CALL 	Gotoxy  
 0000F659  50		     4			PUSH 	EAX
 0000F65A  8B C3	     4				MOV 	EAX,	EBX
 0000F65C  E8 00000000 E     4				CALL 	WriteDec
 0000F661  58		     4			POP 	EAX
 0000F662  50		     4			PUSH 	EAX
 0000F663  B8 0000005B	     4				MOV 	EAX,	'['
 0000F668  E8 00000000 E     4				CALL 	WriteChar
 0000F66D  58		     4			POP 	EAX
 0000F66E  B9 00000004	     3				MOV ECX, 4
 0000F681  50		     4				PUSH 	EAX
 0000F682  B8 00000004	     4					MOV 	EAX, Red
 0000F687  E8 00000000 E     4					CALL	SetTextColor
 0000F68C  58		     4				POP 	EAX
 0000F68D  50		     4			PUSH 	EAX
 0000F68E  B8 00000049	     4				MOV 	EAX,	'I'
 0000F693  E8 00000000 E     4				CALL 	WriteChar
 0000F698  58		     4			POP 	EAX
 0000F699  50		     4			PUSH 	EAX
 0000F69A  B8 00000020	     4				MOV 	EAX,	' '
 0000F69F  E8 00000000 E     4				CALL 	WriteChar
 0000F6A4  58		     4			POP 	EAX
 0000F6A5  50		     4			PUSH 	EAX
 0000F6A6  B8 00000020	     4				MOV 	EAX,	' '
 0000F6AB  E8 00000000 E     4				CALL 	WriteChar
 0000F6B0  58		     4			POP 	EAX
 0000F6B1  50		     4			PUSH 	EAX
 0000F6B2  B8 00000020	     4				MOV 	EAX,	' '
 0000F6B7  E8 00000000 E     4				CALL 	WriteChar
 0000F6BC  58		     4			POP 	EAX
 0000F6D0  50		     4				PUSH 	EAX
 0000F6D1  B8 0000000C	     4					MOV 	EAX, LightRed
 0000F6D6  E8 00000000 E     4					CALL	SetTextColor
 0000F6DB  58		     4				POP 	EAX
 0000F6DC  50		     4			PUSH 	EAX
 0000F6DD  B8 00000049	     4				MOV 	EAX,	'I'
 0000F6E2  E8 00000000 E     4				CALL 	WriteChar
 0000F6E7  58		     4			POP 	EAX
 0000F6E8  50		     4			PUSH 	EAX
 0000F6E9  B8 00000049	     4				MOV 	EAX,	'I'
 0000F6EE  E8 00000000 E     4				CALL 	WriteChar
 0000F6F3  58		     4			POP 	EAX
 0000F6F4  50		     4			PUSH 	EAX
 0000F6F5  B8 00000020	     4				MOV 	EAX,	' '
 0000F6FA  E8 00000000 E     4				CALL 	WriteChar
 0000F6FF  58		     4			POP 	EAX
 0000F700  50		     4			PUSH 	EAX
 0000F701  B8 00000020	     4				MOV 	EAX,	' '
 0000F706  E8 00000000 E     4				CALL 	WriteChar
 0000F70B  58		     4			POP 	EAX
 0000F71F  50		     4				PUSH 	EAX
 0000F720  B8 00000002	     4					MOV 	EAX, Green
 0000F725  E8 00000000 E     4					CALL	SetTextColor
 0000F72A  58		     4				POP 	EAX
 0000F72B  50		     4			PUSH 	EAX
 0000F72C  B8 00000049	     4				MOV 	EAX,	'I'
 0000F731  E8 00000000 E     4				CALL 	WriteChar
 0000F736  58		     4			POP 	EAX
 0000F737  50		     4			PUSH 	EAX
 0000F738  B8 00000049	     4				MOV 	EAX,	'I'
 0000F73D  E8 00000000 E     4				CALL 	WriteChar
 0000F742  58		     4			POP 	EAX
 0000F743  50		     4			PUSH 	EAX
 0000F744  B8 00000049	     4				MOV 	EAX,	'I'
 0000F749  E8 00000000 E     4				CALL 	WriteChar
 0000F74E  58		     4			POP 	EAX
 0000F74F  50		     4			PUSH 	EAX
 0000F750  B8 00000020	     4				MOV 	EAX,	' '
 0000F755  E8 00000000 E     4				CALL 	WriteChar
 0000F75A  58		     4			POP 	EAX
 0000F76B  50		     4				PUSH 	EAX
 0000F76C  B8 0000000A	     4					MOV 	EAX, LightGreen
 0000F771  E8 00000000 E     4					CALL	SetTextColor
 0000F776  58		     4				POP 	EAX
 0000F777  50		     4			PUSH 	EAX
 0000F778  B8 00000049	     4				MOV 	EAX,	'I'
 0000F77D  E8 00000000 E     4				CALL 	WriteChar
 0000F782  58		     4			POP 	EAX
 0000F783  50		     4			PUSH 	EAX
 0000F784  B8 00000049	     4				MOV 	EAX,	'I'
 0000F789  E8 00000000 E     4				CALL 	WriteChar
 0000F78E  58		     4			POP 	EAX
 0000F78F  50		     4			PUSH 	EAX
 0000F790  B8 00000049	     4				MOV 	EAX,	'I'
 0000F795  E8 00000000 E     4				CALL 	WriteChar
 0000F79A  58		     4			POP 	EAX
 0000F79B  50		     4			PUSH 	EAX
 0000F79C  B8 00000049	     4				MOV 	EAX,	'I'
 0000F7A1  E8 00000000 E     4				CALL 	WriteChar
 0000F7A6  58		     4			POP 	EAX
 0000F7B0  50		     4				PUSH 	EAX
 0000F7B1  B8 00000007	     4					MOV 	EAX, 00000111b
 0000F7B6  E8 00000000 E     4					CALL	SetTextColor
 0000F7BB  58		     4				POP 	EAX
 0000F7BC  50		     4			PUSH 	EAX
 0000F7BD  B8 0000005D	     4				MOV 	EAX,	']'
 0000F7C2  E8 00000000 E     4				CALL 	WriteChar
 0000F7C7  58		     4			POP 	EAX
 0000F7C8  8A 15 00000000 R  4			MOV  	dl, LastPointX
 0000F7CE  8A 35 00000001 R  4			MOV  	dh, LastPointY
 0000F7D4  88 15 00000002 R  4			MOV 	CurrentPointX,	dl
 0000F7DA  88 35 00000003 R  4			MOV 	CurrentPointY,	dh
 0000F7E0  E8 00000000 E     4			CALL 	Gotoxy 
 0000F7E5  61		     3			POPAD
 0000F7F7  60		     3			PUSHAD
 0000F7F8  8A 15 00000002 R  4			MOV  	dl, CurrentPointX
 0000F7FE  8A 35 00000003 R  4			MOV  	dh, CurrentPointY
 0000F804  88 15 00000000 R  4			MOV		LastPointX,	dl
 0000F80A  88 35 00000001 R  4			MOV 	LastPointY,	dh
 0000F810  8A 15 00000DD1 R  4			MOV  	dl, BYTE PTR HPLineX
 0000F816  8A 35 00000DD5 R  4			MOV  	dh, BYTE PTR HPLineY
 0000F81C  88 15 00000002 R  4			MOV 	CurrentPointX,	dl
 0000F822  88 35 00000003 R  4			MOV 	CurrentPointY,	dh
 0000F828  E8 00000000 E     4			CALL 	Gotoxy  
 0000F82D  50		     4			PUSH 	EAX
 0000F82E  8B C3	     4				MOV 	EAX,	EBX
 0000F830  E8 00000000 E     4				CALL 	WriteDec
 0000F835  58		     4			POP 	EAX
 0000F836  50		     4			PUSH 	EAX
 0000F837  B8 0000005B	     4				MOV 	EAX,	'['
 0000F83C  E8 00000000 E     4				CALL 	WriteChar
 0000F841  58		     4			POP 	EAX
 0000F842  B9 00000003	     3				MOV ECX, 3
 0000F855  50		     4				PUSH 	EAX
 0000F856  B8 00000004	     4					MOV 	EAX, Red
 0000F85B  E8 00000000 E     4					CALL	SetTextColor
 0000F860  58		     4				POP 	EAX
 0000F861  50		     4			PUSH 	EAX
 0000F862  B8 00000049	     4				MOV 	EAX,	'I'
 0000F867  E8 00000000 E     4				CALL 	WriteChar
 0000F86C  58		     4			POP 	EAX
 0000F86D  50		     4			PUSH 	EAX
 0000F86E  B8 00000020	     4				MOV 	EAX,	' '
 0000F873  E8 00000000 E     4				CALL 	WriteChar
 0000F878  58		     4			POP 	EAX
 0000F879  50		     4			PUSH 	EAX
 0000F87A  B8 00000020	     4				MOV 	EAX,	' '
 0000F87F  E8 00000000 E     4				CALL 	WriteChar
 0000F884  58		     4			POP 	EAX
 0000F885  50		     4			PUSH 	EAX
 0000F886  B8 00000020	     4				MOV 	EAX,	' '
 0000F88B  E8 00000000 E     4				CALL 	WriteChar
 0000F890  58		     4			POP 	EAX
 0000F8A4  50		     4				PUSH 	EAX
 0000F8A5  B8 0000000C	     4					MOV 	EAX, LightRed
 0000F8AA  E8 00000000 E     4					CALL	SetTextColor
 0000F8AF  58		     4				POP 	EAX
 0000F8B0  50		     4			PUSH 	EAX
 0000F8B1  B8 00000049	     4				MOV 	EAX,	'I'
 0000F8B6  E8 00000000 E     4				CALL 	WriteChar
 0000F8BB  58		     4			POP 	EAX
 0000F8BC  50		     4			PUSH 	EAX
 0000F8BD  B8 00000049	     4				MOV 	EAX,	'I'
 0000F8C2  E8 00000000 E     4				CALL 	WriteChar
 0000F8C7  58		     4			POP 	EAX
 0000F8C8  50		     4			PUSH 	EAX
 0000F8C9  B8 00000020	     4				MOV 	EAX,	' '
 0000F8CE  E8 00000000 E     4				CALL 	WriteChar
 0000F8D3  58		     4			POP 	EAX
 0000F8D4  50		     4			PUSH 	EAX
 0000F8D5  B8 00000020	     4				MOV 	EAX,	' '
 0000F8DA  E8 00000000 E     4				CALL 	WriteChar
 0000F8DF  58		     4			POP 	EAX
 0000F8F3  50		     4				PUSH 	EAX
 0000F8F4  B8 00000002	     4					MOV 	EAX, Green
 0000F8F9  E8 00000000 E     4					CALL	SetTextColor
 0000F8FE  58		     4				POP 	EAX
 0000F8FF  50		     4			PUSH 	EAX
 0000F900  B8 00000049	     4				MOV 	EAX,	'I'
 0000F905  E8 00000000 E     4				CALL 	WriteChar
 0000F90A  58		     4			POP 	EAX
 0000F90B  50		     4			PUSH 	EAX
 0000F90C  B8 00000049	     4				MOV 	EAX,	'I'
 0000F911  E8 00000000 E     4				CALL 	WriteChar
 0000F916  58		     4			POP 	EAX
 0000F917  50		     4			PUSH 	EAX
 0000F918  B8 00000049	     4				MOV 	EAX,	'I'
 0000F91D  E8 00000000 E     4				CALL 	WriteChar
 0000F922  58		     4			POP 	EAX
 0000F923  50		     4			PUSH 	EAX
 0000F924  B8 00000020	     4				MOV 	EAX,	' '
 0000F929  E8 00000000 E     4				CALL 	WriteChar
 0000F92E  58		     4			POP 	EAX
 0000F93F  50		     4				PUSH 	EAX
 0000F940  B8 0000000A	     4					MOV 	EAX, LightGreen
 0000F945  E8 00000000 E     4					CALL	SetTextColor
 0000F94A  58		     4				POP 	EAX
 0000F94B  50		     4			PUSH 	EAX
 0000F94C  B8 00000049	     4				MOV 	EAX,	'I'
 0000F951  E8 00000000 E     4				CALL 	WriteChar
 0000F956  58		     4			POP 	EAX
 0000F957  50		     4			PUSH 	EAX
 0000F958  B8 00000049	     4				MOV 	EAX,	'I'
 0000F95D  E8 00000000 E     4				CALL 	WriteChar
 0000F962  58		     4			POP 	EAX
 0000F963  50		     4			PUSH 	EAX
 0000F964  B8 00000049	     4				MOV 	EAX,	'I'
 0000F969  E8 00000000 E     4				CALL 	WriteChar
 0000F96E  58		     4			POP 	EAX
 0000F96F  50		     4			PUSH 	EAX
 0000F970  B8 00000049	     4				MOV 	EAX,	'I'
 0000F975  E8 00000000 E     4				CALL 	WriteChar
 0000F97A  58		     4			POP 	EAX
 0000F984  50		     4				PUSH 	EAX
 0000F985  B8 00000007	     4					MOV 	EAX, 00000111b
 0000F98A  E8 00000000 E     4					CALL	SetTextColor
 0000F98F  58		     4				POP 	EAX
 0000F990  50		     4			PUSH 	EAX
 0000F991  B8 0000005D	     4				MOV 	EAX,	']'
 0000F996  E8 00000000 E     4				CALL 	WriteChar
 0000F99B  58		     4			POP 	EAX
 0000F99C  8A 15 00000000 R  4			MOV  	dl, LastPointX
 0000F9A2  8A 35 00000001 R  4			MOV  	dh, LastPointY
 0000F9A8  88 15 00000002 R  4			MOV 	CurrentPointX,	dl
 0000F9AE  88 35 00000003 R  4			MOV 	CurrentPointY,	dh
 0000F9B4  E8 00000000 E     4			CALL 	Gotoxy 
 0000F9B9  61		     3			POPAD
 0000F9CB  60		     3			PUSHAD
 0000F9CC  8A 15 00000002 R  4			MOV  	dl, CurrentPointX
 0000F9D2  8A 35 00000003 R  4			MOV  	dh, CurrentPointY
 0000F9D8  88 15 00000000 R  4			MOV		LastPointX,	dl
 0000F9DE  88 35 00000001 R  4			MOV 	LastPointY,	dh
 0000F9E4  8A 15 00000DD1 R  4			MOV  	dl, BYTE PTR HPLineX
 0000F9EA  8A 35 00000DD5 R  4			MOV  	dh, BYTE PTR HPLineY
 0000F9F0  88 15 00000002 R  4			MOV 	CurrentPointX,	dl
 0000F9F6  88 35 00000003 R  4			MOV 	CurrentPointY,	dh
 0000F9FC  E8 00000000 E     4			CALL 	Gotoxy  
 0000FA01  50		     4			PUSH 	EAX
 0000FA02  8B C3	     4				MOV 	EAX,	EBX
 0000FA04  E8 00000000 E     4				CALL 	WriteDec
 0000FA09  58		     4			POP 	EAX
 0000FA0A  50		     4			PUSH 	EAX
 0000FA0B  B8 0000005B	     4				MOV 	EAX,	'['
 0000FA10  E8 00000000 E     4				CALL 	WriteChar
 0000FA15  58		     4			POP 	EAX
 0000FA16  B9 00000002	     3				MOV ECX, 2
 0000FA29  50		     4				PUSH 	EAX
 0000FA2A  B8 00000004	     4					MOV 	EAX, Red
 0000FA2F  E8 00000000 E     4					CALL	SetTextColor
 0000FA34  58		     4				POP 	EAX
 0000FA35  50		     4			PUSH 	EAX
 0000FA36  B8 00000049	     4				MOV 	EAX,	'I'
 0000FA3B  E8 00000000 E     4				CALL 	WriteChar
 0000FA40  58		     4			POP 	EAX
 0000FA41  50		     4			PUSH 	EAX
 0000FA42  B8 00000020	     4				MOV 	EAX,	' '
 0000FA47  E8 00000000 E     4				CALL 	WriteChar
 0000FA4C  58		     4			POP 	EAX
 0000FA4D  50		     4			PUSH 	EAX
 0000FA4E  B8 00000020	     4				MOV 	EAX,	' '
 0000FA53  E8 00000000 E     4				CALL 	WriteChar
 0000FA58  58		     4			POP 	EAX
 0000FA59  50		     4			PUSH 	EAX
 0000FA5A  B8 00000020	     4				MOV 	EAX,	' '
 0000FA5F  E8 00000000 E     4				CALL 	WriteChar
 0000FA64  58		     4			POP 	EAX
 0000FA78  50		     4				PUSH 	EAX
 0000FA79  B8 0000000C	     4					MOV 	EAX, LightRed
 0000FA7E  E8 00000000 E     4					CALL	SetTextColor
 0000FA83  58		     4				POP 	EAX
 0000FA84  50		     4			PUSH 	EAX
 0000FA85  B8 00000049	     4				MOV 	EAX,	'I'
 0000FA8A  E8 00000000 E     4				CALL 	WriteChar
 0000FA8F  58		     4			POP 	EAX
 0000FA90  50		     4			PUSH 	EAX
 0000FA91  B8 00000049	     4				MOV 	EAX,	'I'
 0000FA96  E8 00000000 E     4				CALL 	WriteChar
 0000FA9B  58		     4			POP 	EAX
 0000FA9C  50		     4			PUSH 	EAX
 0000FA9D  B8 00000020	     4				MOV 	EAX,	' '
 0000FAA2  E8 00000000 E     4				CALL 	WriteChar
 0000FAA7  58		     4			POP 	EAX
 0000FAA8  50		     4			PUSH 	EAX
 0000FAA9  B8 00000020	     4				MOV 	EAX,	' '
 0000FAAE  E8 00000000 E     4				CALL 	WriteChar
 0000FAB3  58		     4			POP 	EAX
 0000FAC7  50		     4				PUSH 	EAX
 0000FAC8  B8 00000002	     4					MOV 	EAX, Green
 0000FACD  E8 00000000 E     4					CALL	SetTextColor
 0000FAD2  58		     4				POP 	EAX
 0000FAD3  50		     4			PUSH 	EAX
 0000FAD4  B8 00000049	     4				MOV 	EAX,	'I'
 0000FAD9  E8 00000000 E     4				CALL 	WriteChar
 0000FADE  58		     4			POP 	EAX
 0000FADF  50		     4			PUSH 	EAX
 0000FAE0  B8 00000049	     4				MOV 	EAX,	'I'
 0000FAE5  E8 00000000 E     4				CALL 	WriteChar
 0000FAEA  58		     4			POP 	EAX
 0000FAEB  50		     4			PUSH 	EAX
 0000FAEC  B8 00000049	     4				MOV 	EAX,	'I'
 0000FAF1  E8 00000000 E     4				CALL 	WriteChar
 0000FAF6  58		     4			POP 	EAX
 0000FAF7  50		     4			PUSH 	EAX
 0000FAF8  B8 00000020	     4				MOV 	EAX,	' '
 0000FAFD  E8 00000000 E     4				CALL 	WriteChar
 0000FB02  58		     4			POP 	EAX
 0000FB13  50		     4				PUSH 	EAX
 0000FB14  B8 0000000A	     4					MOV 	EAX, LightGreen
 0000FB19  E8 00000000 E     4					CALL	SetTextColor
 0000FB1E  58		     4				POP 	EAX
 0000FB1F  50		     4			PUSH 	EAX
 0000FB20  B8 00000049	     4				MOV 	EAX,	'I'
 0000FB25  E8 00000000 E     4				CALL 	WriteChar
 0000FB2A  58		     4			POP 	EAX
 0000FB2B  50		     4			PUSH 	EAX
 0000FB2C  B8 00000049	     4				MOV 	EAX,	'I'
 0000FB31  E8 00000000 E     4				CALL 	WriteChar
 0000FB36  58		     4			POP 	EAX
 0000FB37  50		     4			PUSH 	EAX
 0000FB38  B8 00000049	     4				MOV 	EAX,	'I'
 0000FB3D  E8 00000000 E     4				CALL 	WriteChar
 0000FB42  58		     4			POP 	EAX
 0000FB43  50		     4			PUSH 	EAX
 0000FB44  B8 00000049	     4				MOV 	EAX,	'I'
 0000FB49  E8 00000000 E     4				CALL 	WriteChar
 0000FB4E  58		     4			POP 	EAX
 0000FB58  50		     4				PUSH 	EAX
 0000FB59  B8 00000007	     4					MOV 	EAX, 00000111b
 0000FB5E  E8 00000000 E     4					CALL	SetTextColor
 0000FB63  58		     4				POP 	EAX
 0000FB64  50		     4			PUSH 	EAX
 0000FB65  B8 0000005D	     4				MOV 	EAX,	']'
 0000FB6A  E8 00000000 E     4				CALL 	WriteChar
 0000FB6F  58		     4			POP 	EAX
 0000FB70  8A 15 00000000 R  4			MOV  	dl, LastPointX
 0000FB76  8A 35 00000001 R  4			MOV  	dh, LastPointY
 0000FB7C  88 15 00000002 R  4			MOV 	CurrentPointX,	dl
 0000FB82  88 35 00000003 R  4			MOV 	CurrentPointY,	dh
 0000FB88  E8 00000000 E     4			CALL 	Gotoxy 
 0000FB8D  61		     3			POPAD
 0000FB93  60		     3			PUSHAD
 0000FB94  8A 15 00000002 R  4			MOV  	dl, CurrentPointX
 0000FB9A  8A 35 00000003 R  4			MOV  	dh, CurrentPointY
 0000FBA0  88 15 00000000 R  4			MOV		LastPointX,	dl
 0000FBA6  88 35 00000001 R  4			MOV 	LastPointY,	dh
 0000FBAC  8A 15 00000DD1 R  4			MOV  	dl, BYTE PTR HPLineX
 0000FBB2  8A 35 00000DD5 R  4			MOV  	dh, BYTE PTR HPLineY
 0000FBB8  88 15 00000002 R  4			MOV 	CurrentPointX,	dl
 0000FBBE  88 35 00000003 R  4			MOV 	CurrentPointY,	dh
 0000FBC4  E8 00000000 E     4			CALL 	Gotoxy  
 0000FBC9  50		     4			PUSH 	EAX
 0000FBCA  8B C3	     4				MOV 	EAX,	EBX
 0000FBCC  E8 00000000 E     4				CALL 	WriteDec
 0000FBD1  58		     4			POP 	EAX
 0000FBD2  50		     4			PUSH 	EAX
 0000FBD3  B8 0000005B	     4				MOV 	EAX,	'['
 0000FBD8  E8 00000000 E     4				CALL 	WriteChar
 0000FBDD  58		     4			POP 	EAX
 0000FBDE  B9 00000001	     3				MOV ECX, 1
 0000FBF1  50		     4				PUSH 	EAX
 0000FBF2  B8 00000004	     4					MOV 	EAX, Red
 0000FBF7  E8 00000000 E     4					CALL	SetTextColor
 0000FBFC  58		     4				POP 	EAX
 0000FBFD  50		     4			PUSH 	EAX
 0000FBFE  B8 00000049	     4				MOV 	EAX,	'I'
 0000FC03  E8 00000000 E     4				CALL 	WriteChar
 0000FC08  58		     4			POP 	EAX
 0000FC09  50		     4			PUSH 	EAX
 0000FC0A  B8 00000020	     4				MOV 	EAX,	' '
 0000FC0F  E8 00000000 E     4				CALL 	WriteChar
 0000FC14  58		     4			POP 	EAX
 0000FC15  50		     4			PUSH 	EAX
 0000FC16  B8 00000020	     4				MOV 	EAX,	' '
 0000FC1B  E8 00000000 E     4				CALL 	WriteChar
 0000FC20  58		     4			POP 	EAX
 0000FC21  50		     4			PUSH 	EAX
 0000FC22  B8 00000020	     4				MOV 	EAX,	' '
 0000FC27  E8 00000000 E     4				CALL 	WriteChar
 0000FC2C  58		     4			POP 	EAX
 0000FC40  50		     4				PUSH 	EAX
 0000FC41  B8 0000000C	     4					MOV 	EAX, LightRed
 0000FC46  E8 00000000 E     4					CALL	SetTextColor
 0000FC4B  58		     4				POP 	EAX
 0000FC4C  50		     4			PUSH 	EAX
 0000FC4D  B8 00000049	     4				MOV 	EAX,	'I'
 0000FC52  E8 00000000 E     4				CALL 	WriteChar
 0000FC57  58		     4			POP 	EAX
 0000FC58  50		     4			PUSH 	EAX
 0000FC59  B8 00000049	     4				MOV 	EAX,	'I'
 0000FC5E  E8 00000000 E     4				CALL 	WriteChar
 0000FC63  58		     4			POP 	EAX
 0000FC64  50		     4			PUSH 	EAX
 0000FC65  B8 00000020	     4				MOV 	EAX,	' '
 0000FC6A  E8 00000000 E     4				CALL 	WriteChar
 0000FC6F  58		     4			POP 	EAX
 0000FC70  50		     4			PUSH 	EAX
 0000FC71  B8 00000020	     4				MOV 	EAX,	' '
 0000FC76  E8 00000000 E     4				CALL 	WriteChar
 0000FC7B  58		     4			POP 	EAX
 0000FC8F  50		     4				PUSH 	EAX
 0000FC90  B8 00000002	     4					MOV 	EAX, Green
 0000FC95  E8 00000000 E     4					CALL	SetTextColor
 0000FC9A  58		     4				POP 	EAX
 0000FC9B  50		     4			PUSH 	EAX
 0000FC9C  B8 00000049	     4				MOV 	EAX,	'I'
 0000FCA1  E8 00000000 E     4				CALL 	WriteChar
 0000FCA6  58		     4			POP 	EAX
 0000FCA7  50		     4			PUSH 	EAX
 0000FCA8  B8 00000049	     4				MOV 	EAX,	'I'
 0000FCAD  E8 00000000 E     4				CALL 	WriteChar
 0000FCB2  58		     4			POP 	EAX
 0000FCB3  50		     4			PUSH 	EAX
 0000FCB4  B8 00000049	     4				MOV 	EAX,	'I'
 0000FCB9  E8 00000000 E     4				CALL 	WriteChar
 0000FCBE  58		     4			POP 	EAX
 0000FCBF  50		     4			PUSH 	EAX
 0000FCC0  B8 00000020	     4				MOV 	EAX,	' '
 0000FCC5  E8 00000000 E     4				CALL 	WriteChar
 0000FCCA  58		     4			POP 	EAX
 0000FCDB  50		     4				PUSH 	EAX
 0000FCDC  B8 0000000A	     4					MOV 	EAX, LightGreen
 0000FCE1  E8 00000000 E     4					CALL	SetTextColor
 0000FCE6  58		     4				POP 	EAX
 0000FCE7  50		     4			PUSH 	EAX
 0000FCE8  B8 00000049	     4				MOV 	EAX,	'I'
 0000FCED  E8 00000000 E     4				CALL 	WriteChar
 0000FCF2  58		     4			POP 	EAX
 0000FCF3  50		     4			PUSH 	EAX
 0000FCF4  B8 00000049	     4				MOV 	EAX,	'I'
 0000FCF9  E8 00000000 E     4				CALL 	WriteChar
 0000FCFE  58		     4			POP 	EAX
 0000FCFF  50		     4			PUSH 	EAX
 0000FD00  B8 00000049	     4				MOV 	EAX,	'I'
 0000FD05  E8 00000000 E     4				CALL 	WriteChar
 0000FD0A  58		     4			POP 	EAX
 0000FD0B  50		     4			PUSH 	EAX
 0000FD0C  B8 00000049	     4				MOV 	EAX,	'I'
 0000FD11  E8 00000000 E     4				CALL 	WriteChar
 0000FD16  58		     4			POP 	EAX
 0000FD20  50		     4				PUSH 	EAX
 0000FD21  B8 00000007	     4					MOV 	EAX, 00000111b
 0000FD26  E8 00000000 E     4					CALL	SetTextColor
 0000FD2B  58		     4				POP 	EAX
 0000FD2C  50		     4			PUSH 	EAX
 0000FD2D  B8 0000005D	     4				MOV 	EAX,	']'
 0000FD32  E8 00000000 E     4				CALL 	WriteChar
 0000FD37  58		     4			POP 	EAX
 0000FD38  8A 15 00000000 R  4			MOV  	dl, LastPointX
 0000FD3E  8A 35 00000001 R  4			MOV  	dh, LastPointY
 0000FD44  88 15 00000002 R  4			MOV 	CurrentPointX,	dl
 0000FD4A  88 35 00000003 R  4			MOV 	CurrentPointY,	dh
 0000FD50  E8 00000000 E     4			CALL 	Gotoxy 
 0000FD55  61		     3			POPAD
 0000FD56  61		     2			POPAD
 0000FD60  50		     2				PUSH 	EAX
 0000FD61  B8 00000007	     2					MOV 	EAX, 00000111b
 0000FD66  E8 00000000 E     2					CALL	SetTextColor
 0000FD6B  58		     2				POP 	EAX
 0000FD6C  50		     2			PUSH EAX
 0000FD6D  B8 00000000	     2				MOV EAX, 0
 0000FD72  A3 00000CD4 R     2				MOV ClearOn, 	EAX
 0000FD77  58		     2			POP EAX

						Beats
 0000FD92  FF 05 00000CE0 R  2				INC Timer_UserBuild
 0000FD98  60		     3			PUSHA
 0000FD99  BE 00000CF8 R     3				MOV ESI, OFFSET User_BuildQueue
 0000FD9E  8B 06	     3				MOV EAX, [ESI]		;Arms
 0000FDA0  60		     4			PUSHA
 0000FDA1  8B C0	     5			MOV EAX, EAX
 0000FDA3  48		     5			DEC EAX
 0000FDA4  BA 0000000C	     5			MOV EDX, 12
 0000FDA9  F7 E2	     5			MUL EDX
 0000FDAB  8B D0	     5			MOV EDX, EAX
 0000FDAD  A1 00000CB0 R     5			MOV EAX, UserCurrLevel
 0000FDB2  48		     5			DEC EAX
 0000FDB3  C1 E0 02	     5			SHL EAX, 2
 0000FDB6  03 C2	     5			ADD EAX, EDX
 0000FDB8  50		     5			PUSH EAX
 0000FDB9  8B 80 00000BE1 R  5				MOV EAX, Soldier_Buffer[EAX]
 0000FDBF  A3 00000CA4 R     5				MOV GetterHandler, 	EAX
 0000FDC4  58		     5			POP EAX
 0000FDC5  61		     4			POPA
 0000FDC6  A1 00000CA4 R     3				MOV EAX,	GetterHandler
 0000FDCB  50		     4			PUSH EAX
 0000FDCC  A1 00000CA4 R     4				MOV EAX, GetterHandler
 0000FDD1  A3 00000CE8 R     4				MOV Timer_Build_Goal, 	EAX
 0000FDD6  58		     4			POP EAX
 0000FDD7  50		     4			PUSH EAX
 0000FDD8  8B 06	     4				MOV EAX, [ESI]
 0000FDDA  A3 00000CD8 R     4				MOV Building, 	EAX
 0000FDDF  58		     4			POP EAX
 0000FDEC  60		     4			PUSHA
 0000FDED  B8 00000000	     4				MOV EAX, 0
 0000FDF2  8B 1E	     4				MOV EBX, [ESI]
 0000FDFD  60		     5			PUSHA
 0000FE07  61		     5			POPA
 0000FE0F  60		     5			PUSHA
 0000FE19  61		     5			POPA
 0000FE21  60		     5			PUSHA
 0000FE2B  61		     5			POPA
 0000FE33  60		     5			PUSHA
 0000FE3D  61		     5			POPA
 0000FE45  60		     5			PUSHA
 0000FE4F  61		     5			POPA
 0000FE57  60		     5			PUSHA
 0000FE61  61		     5			POPA
 0000FE62  61		     4			POPA
 0000FE6D  A1 00000CF8 R     3					MOV EAX, User_BuildQueue
 0000FE76  50		     4			PUSH EAX
 0000FE77  B8 00000001	     4				MOV EAX, 1
 0000FE7C  A3 00000CE0 R     4				MOV Timer_UserBuild, 	EAX
 0000FE81  58		     4			POP EAX
 0000FE84  50		     4			PUSH EAX
 0000FE85  B8 00000000	     4				MOV EAX, 0
 0000FE8A  A3 00000CE0 R     4				MOV Timer_UserBuild, 	EAX
 0000FE8F  58		     4			POP EAX
 0000FE90  50		     4			PUSH EAX
 0000FE91  B8 00000000	     4				MOV EAX, 0
 0000FE96  A3 00000CE8 R     4				MOV Timer_Build_Goal, 	EAX
 0000FE9B  58		     4			POP EAX
 0000FE9C  50		     4			PUSH EAX
 0000FE9D  B8 00000000	     4				MOV EAX, 0
 0000FEA2  A3 00000CD8 R     4				MOV Building, 	EAX
 0000FEA7  58		     4			POP EAX
 0000FEA8  61		     3			POPA
 0000FEC3  FF 05 00000CE4 R  2				INC Timer_CompBuild
 0000FEC9  60		     3			PUSHA
 0000FECA  BE 00000D10 R     3				MOV ESI, OFFSET Comp_BuildQueue
 0000FECF  8B 06	     3				MOV EAX, [ESI]
 0000FED1  60		     4			PUSHA
 0000FED2  8B C0	     5			MOV EAX, EAX
 0000FED4  48		     5			DEC EAX
 0000FED5  BA 0000000C	     5			MOV EDX, 12
 0000FEDA  F7 E2	     5			MUL EDX
 0000FEDC  8B D0	     5			MOV EDX, EAX
 0000FEDE  A1 00000CB4 R     5			MOV EAX, CompCurrLevel
 0000FEE3  48		     5			DEC EAX
 0000FEE4  C1 E0 02	     5			SHL EAX, 2
 0000FEE7  03 C2	     5			ADD EAX, EDX
 0000FEE9  50		     5			PUSH EAX
 0000FEEA  8B 80 00000BE1 R  5				MOV EAX, Soldier_Buffer[EAX]
 0000FEF0  A3 00000CA4 R     5				MOV GetterHandler, 	EAX
 0000FEF5  58		     5			POP EAX
 0000FEF6  61		     4			POPA
 0000FEF7  A1 00000CA4 R     3				MOV EAX,	GetterHandler 
 0000FF08  60		     4			PUSHA
 0000FF09  B8 00000001	     4				MOV EAX, 1
 0000FF0E  8B 1E	     4				MOV EBX, [ESI]
 0000FF19  60		     5			PUSHA
 0000FF23  61		     5			POPA
 0000FF2B  60		     5			PUSHA
 0000FF35  61		     5			POPA
 0000FF3D  60		     5			PUSHA
 0000FF47  61		     5			POPA
 0000FF4F  60		     5			PUSHA
 0000FF59  61		     5			POPA
 0000FF61  60		     5			PUSHA
 0000FF6B  61		     5			POPA
 0000FF73  60		     5			PUSHA
 0000FF7D  61		     5			POPA
 0000FF7E  61		     4			POPA
 0000FF89  A1 00000D10 R     3					MOV EAX, Comp_BuildQueue
 0000FF92  50		     4			PUSH EAX
 0000FF93  B8 00000001	     4				MOV EAX, 1
 0000FF98  A3 00000CE4 R     4				MOV Timer_CompBuild, 	EAX
 0000FF9D  58		     4			POP EAX
 0000FFA0  50		     4			PUSH EAX
 0000FFA1  B8 00000000	     4				MOV EAX, 0
 0000FFA6  A3 00000CE4 R     4				MOV Timer_CompBuild, 	EAX
 0000FFAB  58		     4			POP EAX
 0000FFAC  61		     3			POPA
 0000FFC7  FF 05 00000CF0 R  2				INC UserAttackTimer
 0000FFCD  60		     3			PUSHAD
 0000FFE8  60		     4			PUSHA
 0000FFE9  B8 0000002C	     5			MOV EAX, (SIZEOF Soldier)
 0000FFEE  8B 1D 00000DA5 R  5			MOV EBX, UserAttackSoldier
 0000FFF4  F7 E3	     5			MUL EBX
 0000FFF6  8B D8	     5			MOV EBX, EAX
 0000FFF8  8B 83 0000085D R  5			MOV EAX, UserSoldiers[EBX].Arms
 0000FFFE  48		     5			DEC EAX
 0000FFFF  BA 0000000C	     5			MOV EDX, 12
 00010004  F7 E2	     5			MUL EDX
 00010006  8B D0	     5			MOV EDX, EAX
 00010008  8B 83 00000859 R  5			MOV EAX, UserSoldiers[EBX].Level
 0001000E  48		     5			DEC EAX
 0001000F  C1 E0 02	     5			SHL EAX, 2
 00010012  03 C2	     5			ADD EAX, EDX
 00010014  50		     5			PUSH EAX
 00010015  8B 80 00000BBD R  5				MOV EAX, Soldier_Attack[EAX]
 0001001B  A3 00000DB5 R     5				MOV UserATK, 	EAX
 00010020  58		     5			POP EAX
 00010021  61		     4			POPA
 00010022  60		     4			PUSHA
 00010023  B8 0000002C	     5			MOV EAX, (SIZEOF Soldier)
 00010028  8B 1D 00000DAD R  5			MOV EBX, UserAttackTarget
 0001002E  F7 E3	     5			MUL EBX
 00010030  8B D8	     5			MOV EBX, EAX
 00010032  50		     5			PUSH EAX
 00010033  8B 83 000009A9 R  5				MOV EAX, CompSoldiers[EBX].HP
 00010039  A3 00000DC1 R     5				MOV CompHP, 	EAX
 0001003E  58		     5			POP EAX
 0001003F  61		     4			POPA
 00010040  A1 00000DB5 R     3				MOV EAX,	UserATK
 0001004D  50		     4			PUSH EAX
 0001004E  A1 00000DB5 R     4				MOV EAX, UserATK
 00010053  29 05 00000DC1 R  4				SUB CompHP, 	EAX
 00010059  58		     4			POP EAX
 0001005A  60		     4			PUSHA
 0001005B  B8 0000002C	     5			MOV EAX, (SIZEOF Soldier)
 00010060  8B 1D 00000DAD R  5			MOV EBX, UserAttackTarget
 00010066  F7 E3	     5			MUL EBX
 00010068  8B D8	     5			MOV EBX, EAX
 0001006A  50		     5			PUSH EAX
 0001006B  A1 00000DC1 R     5				MOV EAX, CompHP
 00010070  89 83 000009A9 R  5				MOV CompSoldiers[EBX].HP, 	EAX
 00010076  58		     5			POP EAX
 00010077  61		     4			POPA
 0001007D  60		     4			PUSHA
 0001007E  B8 0000002C	     5			MOV EAX, (SIZEOF Soldier)
 00010083  8B 1D 00000DAD R  5			MOV EBX, UserAttackTarget
 00010089  F7 E3	     5			MUL EBX
 0001008B  8B D8	     5			MOV EBX, EAX
 0001008D  8B 83 000009BD R  5			MOV EAX, CompSoldiers[EBX].Arms
 00010093  48		     5			DEC EAX
 00010094  BA 0000000C	     5			MOV EDX, 12
 00010099  F7 E2	     5			MUL EDX
 0001009B  8B D0	     5			MOV EDX, EAX
 0001009D  8B 83 000009B9 R  5			MOV EAX, CompSoldiers[EBX].Level
 000100A3  48		     5			DEC EAX
 000100A4  C1 E0 02	     5			SHL EAX, 2
 000100A7  03 C2	     5			ADD EAX, EDX
 000100A9  50		     5			PUSH EAX
 000100AA  8B 80 00000C05 R  5				MOV EAX, Soldier_Money[EAX]
 000100B0  A3 00000CA4 R     5				MOV GetterHandler, 	EAX
 000100B5  58		     5			POP EAX
 000100B6  61		     4			POPA
 000100B7  BA 00000000	     3					MOV 	EDX, 	0
 000100BC  A1 00000CA4 R     3					MOV 	EAX,	GetterHandler
 000100C1  B9 00000002	     3					MOV 	ECX,	2
 000100C6  F7 F1	     3					DIV		ECX
 000100C8  50		     4			PUSH EAX
 000100C9  8B C0	     4				MOV EAX, EAX
 000100CB  01 05 00000C47 R  4				ADD UserMoney, 	EAX
 000100D1  58		     4			POP EAX
 000100D2  60		     4			PUSHA
 000100D3  60		     5			PUSHA
 000100D4  B8 0000002C	     6			MOV EAX, (SIZEOF Soldier)
 000100D9  8B 1D 00000DAD R  6			MOV EBX, UserAttackTarget
 000100DF  F7 E3	     6			MUL EBX
 000100E1  8B D8	     6			MOV EBX, EAX
 000100E3  50		     6			PUSH EAX
 000100E4  B8 00000000	     6				MOV EAX, 0
 000100E9  89 83 000009D1 R  6				MOV CompSoldiers[EBX].Alive, 	EAX
 000100EF  58		     6			POP EAX
 000100F0  61		     5			POPA
 000100F1  60		     5			PUSHA
 000100F2  B8 0000002C	     6			MOV EAX, (SIZEOF Soldier)
 000100F7  8B 1D 00000DAD R  6			MOV EBX, UserAttackTarget
 000100FD  F7 E3	     6			MUL EBX
 000100FF  8B D8	     6			MOV EBX, EAX
 00010101  50		     6			PUSH EAX
 00010102  B8 00000000	     6				MOV EAX, 0
 00010107  89 83 000009BD R  6				MOV CompSoldiers[EBX].Arms, 	EAX
 0001010D  58		     6			POP EAX
 0001010E  61		     5			POPA
 0001010F  60		     5			PUSHA
 00010110  B8 0000002C	     6			MOV EAX, (SIZEOF Soldier)
 00010115  8B 1D 00000DAD R  6			MOV EBX, UserAttackTarget
 0001011B  F7 E3	     6			MUL EBX
 0001011D  8B D8	     6			MOV EBX, EAX
 0001011F  50		     6			PUSH EAX
 00010120  B8 00000000	     6				MOV EAX, 0
 00010125  89 83 000009AD R  6				MOV CompSoldiers[EBX].X, 	EAX
 0001012B  58		     6			POP EAX
 0001012C  61		     5			POPA
 0001012D  60		     5			PUSHA
 0001012E  B8 0000002C	     6			MOV EAX, (SIZEOF Soldier)
 00010133  8B 1D 00000DAD R  6			MOV EBX, UserAttackTarget
 00010139  F7 E3	     6			MUL EBX
 0001013B  8B D8	     6			MOV EBX, EAX
 0001013D  50		     6			PUSH EAX
 0001013E  B8 00000000	     6				MOV EAX, 0
 00010143  89 83 000009C1 R  6				MOV CompSoldiers[EBX].League, 	EAX
 00010149  58		     6			POP EAX
 0001014A  61		     5			POPA
 0001014B  60		     5			PUSHA
 0001014C  B8 0000002C	     6			MOV EAX, (SIZEOF Soldier)
 00010151  8B 1D 00000DAD R  6			MOV EBX, UserAttackTarget
 00010157  F7 E3	     6			MUL EBX
 00010159  8B D8	     6			MOV EBX, EAX
 0001015B  50		     6			PUSH EAX
 0001015C  B8 00000000	     6				MOV EAX, 0
 00010161  89 83 000009B9 R  6				MOV CompSoldiers[EBX].Level, 	EAX
 00010167  58		     6			POP EAX
 00010168  61		     5			POPA
 00010169  60		     5			PUSHA
 0001016A  B8 0000002C	     6			MOV EAX, (SIZEOF Soldier)
 0001016F  8B 1D 00000DAD R  6			MOV EBX, UserAttackTarget
 00010175  F7 E3	     6			MUL EBX
 00010177  8B D8	     6			MOV EBX, EAX
 00010179  50		     6			PUSH EAX
 0001017A  B8 00000000	     6				MOV EAX, 0
 0001017F  89 83 000009C9 R  6				MOV CompSoldiers[EBX].WaitFor, 	EAX
 00010185  58		     6			POP EAX
 00010186  61		     5			POPA
 00010187  60		     5			PUSHA
 00010188  B8 0000002C	     6			MOV EAX, (SIZEOF Soldier)
 0001018D  8B 1D 00000DAD R  6			MOV EBX, UserAttackTarget
 00010193  F7 E3	     6			MUL EBX
 00010195  8B D8	     6			MOV EBX, EAX
 00010197  50		     6			PUSH EAX
 00010198  B8 00000000	     6				MOV EAX, 0
 0001019D  89 83 000009CD R  6				MOV CompSoldiers[EBX].AttackTo, 	EAX
 000101A3  58		     6			POP EAX
 000101A4  61		     5			POPA
 000101A5  60		     5			PUSHA
 000101A6  B8 0000002C	     6			MOV EAX, (SIZEOF Soldier)
 000101AB  8B 1D 00000DAD R  6			MOV EBX, UserAttackTarget
 000101B1  F7 E3	     6			MUL EBX
 000101B3  8B D8	     6			MOV EBX, EAX
 000101B5  50		     6			PUSH EAX
 000101B6  B8 00000000	     6				MOV EAX, 0
 000101BB  89 83 000009A9 R  6				MOV CompSoldiers[EBX].HP, 	EAX
 000101C1  58		     6			POP EAX
 000101C2  61		     5			POPA
 000101C3  61		     4			POPA
 000101C4  60		     4			PUSHA
 000101C5  B8 0000002C	     5			MOV EAX, (SIZEOF Soldier)
 000101CA  8B 1D 00000DA5 R  5			MOV EBX, UserAttackSoldier
 000101D0  F7 E3	     5			MUL EBX
 000101D2  8B D8	     5			MOV EBX, EAX
 000101D4  50		     5			PUSH EAX
 000101D5  B8 FFFFFFFF	     5				MOV EAX, -1
 000101DA  89 83 0000086D R  5				MOV UserSoldiers[EBX].AttackTo, 	EAX
 000101E0  58		     5			POP EAX
 000101E1  61		     4			POPA
 000101E2  C7 05 00000CF0 R  4			MOV UserAttackTimer		,0
	   00000000
 000101EC  C7 05 00000CF4 R  4			MOV CompAttackTimer		,0
	   00000000
 000101F6  C7 05 00000DA5 R  4			MOV UserAttackSoldier	,0
	   00000000
 00010200  C7 05 00000DA9 R  4			MOV CompAttackSoldier	,0
	   00000000
 0001020A  C7 05 00000DAD R  4			MOV UserAttackTarget	,0
	   00000000
 00010214  C7 05 00000DB1 R  4			MOV CompAttackTarget	,0
	   00000000
 0001021E  C7 05 00000DB5 R  4			MOV UserATK	,0
	   00000000
 00010228  C7 05 00000DB9 R  4			MOV CompATK	,0
	   00000000
 00010232  C7 05 00000DBD R  4			MOV UserHP	,0
	   00000000
 0001023C  C7 05 00000DC1 R  4			MOV CompHP	,0
	   00000000
 00010246  60		     4		PUSHA
 00010247  B8 0000002C	     5			MOV EAX, (SIZEOF Soldier)
 0001024C  8B 1D 00000DA5 R  5			MOV EBX, UserAttackSoldier
 00010252  F7 E3	     5			MUL EBX
 00010254  8B D8	     5			MOV EBX, EAX
 00010263  B9 00000000	     5			MOV 	ECX,	0
 00010268		     4				CollisionChecking:
 00010268  50		     5			PUSH EAX
 00010269  8B C1	     5				MOV EAX, ECX
 0001026B  A3 00000DA1 R     5				MOV Collision_Check_ID, 	EAX
 00010270  58		     5			POP EAX
 00010271  B8 0000002C	     5			MOV EAX, (SIZEOF Soldier)
 00010276  8B 1D 00000DA1 R  5			MOV EBX, Collision_Check_ID
 0001027C  F7 E3	     5			MUL EBX
 0001027E  8B D8	     5			MOV EBX, EAX
 0001028D  60		     5		PUSHA
 0001028E  60		     6			PUSHA
 0001028F  B8 0000002C	     7			MOV EAX, (SIZEOF Soldier)
 00010294  8B 1D 00000DA5 R  7			MOV EBX, UserAttackSoldier
 0001029A  F7 E3	     7			MUL EBX
 0001029C  8B D8	     7			MOV EBX, EAX
 0001029E  50		     7			PUSH EAX
 0001029F  8B 83 0000084D R  7				MOV EAX, UserSoldiers[EBX].X
 000102A5  A3 00000D99 R     7				MOV Collision_A_X, 	EAX
 000102AA  58		     7			POP EAX
 000102AB  61		     6			POPA
 000102AC  60		     6			PUSHA
 000102AD  B8 0000002C	     7			MOV EAX, (SIZEOF Soldier)
 000102B2  8B 1D 00000DA1 R  7			MOV EBX, Collision_Check_ID
 000102B8  F7 E3	     7			MUL EBX
 000102BA  8B D8	     7			MOV EBX, EAX
 000102BC  50		     7			PUSH EAX
 000102BD  8B 83 000009AD R  7				MOV EAX, CompSoldiers[EBX].X
 000102C3  A3 00000D9D R     7				MOV Collision_B_X, 	EAX
 000102C8  58		     7			POP EAX
 000102C9  61		     6			POPA
 000102CA  A1 00000D99 R     5			MOV		EAX,	Collision_A_X
 000102CF  8B 1D 00000D9D R  5			MOV 	EBX,	Collision_B_X
 000102D5  8B D3	     5			MOV 	EDX,	EBX
 000102D7  2B D0	     5			SUB 	EDX,	EAX
 000102D9  60		     6			PUSHA
 000102DA  B8 0000002C	     7			MOV EAX, (SIZEOF Soldier)
 000102DF  8B 1D 00000DA5 R  7			MOV EBX, UserAttackSoldier
 000102E5  F7 E3	     7			MUL EBX
 000102E7  8B D8	     7			MOV EBX, EAX
 000102E9  8B 83 0000085D R  7			MOV EAX, UserSoldiers[EBX].Arms
 000102EF  48		     7			DEC EAX
 000102F0  BA 0000000C	     7			MOV EDX, 12
 000102F5  F7 E2	     7			MUL EDX
 000102F7  8B D0	     7			MOV EDX, EAX
 000102F9  8B 83 00000859 R  7			MOV EAX, UserSoldiers[EBX].Level
 000102FF  48		     7			DEC EAX
 00010300  C1 E0 02	     7			SHL EAX, 2
 00010303  03 C2	     7			ADD EAX, EDX
 0001030E  50		     7			PUSH EAX
 0001030F  8B 80 00000B2D R  7				MOV EAX, UserSoldier_Width[EAX]
 00010315  A3 00000CA4 R     7				MOV GetterHandler, 	EAX
 0001031A  58		     7			POP EAX
 0001031D  50		     7			PUSH EAX
 0001031E  8B 80 00000B75 R  7				MOV EAX, CompSoldier_Width[EAX]
 00010324  A3 00000CA4 R     7				MOV GetterHandler, 	EAX
 00010329  58		     7			POP EAX
 0001032A  61		     6			POPA
 0001032B  8B 0D 00000CA4 R  5			MOV ECX, GetterHandler
 0001033D  60		     6			PUSHA
 0001033E  B8 0000002C	     7			MOV EAX, (SIZEOF Soldier)
 00010343  8B 1D 00000DA5 R  7			MOV EBX, UserAttackSoldier
 00010349  F7 E3	     7			MUL EBX
 0001034B  8B D8	     7			MOV EBX, EAX
 0001034D  50		     7			PUSH EAX
 0001034E  A1 00000DA1 R     7				MOV EAX, Collision_Check_ID
 00010353  89 83 0000086D R  7				MOV UserSoldiers[EBX].AttackTo, 	EAX
 00010359  58		     7			POP EAX
 0001035A  61		     6			POPA
 0001035B  60		     6			PUSHA
 0001035C  B8 0000002C	     7			MOV EAX, (SIZEOF Soldier)
 00010361  8B 1D 00000DA1 R  7			MOV EBX, Collision_Check_ID
 00010367  F7 E3	     7			MUL EBX
 00010369  8B D8	     7			MOV EBX, EAX
 0001036B  50		     7			PUSH EAX
 0001036C  A1 00000DA5 R     7				MOV EAX, UserAttackSoldier
 00010371  89 83 000009CD R  7				MOV CompSoldiers[EBX].AttackTo, 	EAX
 00010377  58		     7			POP EAX
 00010378  61		     6			POPA
 00010379  50		     6			PUSH EAX
 0001037A  B8 00000001	     6				MOV EAX, 1
 0001037F  A3 00000CA4 R     6				MOV GetterHandler, 	EAX
 00010384  58		     6			POP EAX
 00010387  50		     6			PUSH EAX
 00010388  B8 00000000	     6				MOV EAX, 0
 0001038D  A3 00000CA4 R     6				MOV GetterHandler, 	EAX
 00010392  58		     6			POP EAX
 00010393  61		     5		POPA
 0001039D  41		     5			INC ECX
 0001039E  83 F9 07	     5			CMP ECX, 7
 000103A1  0F 8C FFFFFEC1    5			JL CollisionChecking
 000103A7  61		     4		POPA
 000103B3  60		     5			PUSHA
 000103B4  B8 0000002C	     6			MOV EAX, (SIZEOF Soldier)
 000103B9  8B 1D 00000DA5 R  6			MOV EBX, UserAttackSoldier
 000103BF  F7 E3	     6			MUL EBX
 000103C1  8B D8	     6			MOV EBX, EAX
 000103C3  8B 83 0000085D R  6			MOV EAX, UserSoldiers[EBX].Arms
 000103C9  48		     6			DEC EAX
 000103CA  BA 0000000C	     6			MOV EDX, 12
 000103CF  F7 E2	     6			MUL EDX
 000103D1  8B D0	     6			MOV EDX, EAX
 000103D3  8B 83 00000859 R  6			MOV EAX, UserSoldiers[EBX].Level
 000103D9  48		     6			DEC EAX
 000103DA  C1 E0 02	     6			SHL EAX, 2
 000103DD  03 C2	     6			ADD EAX, EDX
 000103DF  50		     6			PUSH EAX
 000103E0  8B 80 00000BBD R  6				MOV EAX, Soldier_Attack[EAX]
 000103E6  A3 00000DB5 R     6				MOV UserATK, 	EAX
 000103EB  58		     6			POP EAX
 000103EC  61		     5			POPA
 000103ED  A1 00000DB5 R     4			MOV EAX, UserATK
 000103FA  50		     5			PUSH EAX
 000103FB  A1 00000DB5 R     5				MOV EAX, UserATK
 00010400  29 05 00000DC9 R  5				SUB CompCastleHP, 	EAX
 00010406  58		     5			POP EAX
 00010409  50		     6			PUSH EAX
 0001040A  B8 00000000	     6				MOV EAX, 0
 0001040F  A3 00000C4B R     6				MOV Gaming, 	EAX
 00010414  58		     6			POP EAX
 00010415  61		     3			POPAD
 00010430  FF 05 00000CF4 R  2				INC CompAttackTimer
 00010436  60		     3			PUSHAD
 00010451  60		     4			PUSHA
 00010452  B8 0000002C	     5			MOV EAX, (SIZEOF Soldier)
 00010457  8B 1D 00000DA9 R  5			MOV EBX, CompAttackSoldier
 0001045D  F7 E3	     5			MUL EBX
 0001045F  8B D8	     5			MOV EBX, EAX
 00010461  8B 83 000009BD R  5			MOV EAX, CompSoldiers[EBX].Arms
 00010467  48		     5			DEC EAX
 00010468  BA 0000000C	     5			MOV EDX, 12
 0001046D  F7 E2	     5			MUL EDX
 0001046F  8B D0	     5			MOV EDX, EAX
 00010471  8B 83 000009B9 R  5			MOV EAX, CompSoldiers[EBX].Level
 00010477  48		     5			DEC EAX
 00010478  C1 E0 02	     5			SHL EAX, 2
 0001047B  03 C2	     5			ADD EAX, EDX
 0001047D  50		     5			PUSH EAX
 0001047E  8B 80 00000BBD R  5				MOV EAX, Soldier_Attack[EAX]
 00010484  A3 00000DB9 R     5				MOV CompATK, 	EAX
 00010489  58		     5			POP EAX
 0001048A  61		     4			POPA
 0001048B  60		     4			PUSHA
 0001048C  B8 0000002C	     5			MOV EAX, (SIZEOF Soldier)
 00010491  8B 1D 00000DB1 R  5			MOV EBX, CompAttackTarget
 00010497  F7 E3	     5			MUL EBX
 00010499  8B D8	     5			MOV EBX, EAX
 0001049B  50		     5			PUSH EAX
 0001049C  8B 83 00000849 R  5				MOV EAX, UserSoldiers[EBX].HP
 000104A2  A3 00000DBD R     5				MOV UserHP, 	EAX
 000104A7  58		     5			POP EAX
 000104A8  61		     4			POPA
 000104A9  A1 00000DB9 R     3				MOV EAX, CompATK
 000104B6  50		     4			PUSH EAX
 000104B7  A1 00000DB9 R     4				MOV EAX, CompATK
 000104BC  29 05 00000DBD R  4				SUB UserHP, 	EAX
 000104C2  58		     4			POP EAX
 000104C3  60		     4			PUSHA
 000104C4  B8 0000002C	     5			MOV EAX, (SIZEOF Soldier)
 000104C9  8B 1D 00000DB1 R  5			MOV EBX, CompAttackTarget
 000104CF  F7 E3	     5			MUL EBX
 000104D1  8B D8	     5			MOV EBX, EAX
 000104D3  50		     5			PUSH EAX
 000104D4  A1 00000DBD R     5				MOV EAX, UserHP
 000104D9  89 83 00000849 R  5				MOV UserSoldiers[EBX].HP, 	EAX
 000104DF  58		     5			POP EAX
 000104E0  61		     4			POPA
 000104E6  60		     4			PUSHA
 000104E7  60		     5			PUSHA
 000104E8  B8 0000002C	     6			MOV EAX, (SIZEOF Soldier)
 000104ED  8B 1D 00000DB1 R  6			MOV EBX, CompAttackTarget
 000104F3  F7 E3	     6			MUL EBX
 000104F5  8B D8	     6			MOV EBX, EAX
 000104F7  50		     6			PUSH EAX
 000104F8  B8 00000000	     6				MOV EAX, 0
 000104FD  89 83 00000871 R  6				MOV UserSoldiers[EBX].Alive, 	EAX
 00010503  58		     6			POP EAX
 00010504  61		     5			POPA
 00010505  60		     5			PUSHA
 00010506  B8 0000002C	     6			MOV EAX, (SIZEOF Soldier)
 0001050B  8B 1D 00000DB1 R  6			MOV EBX, CompAttackTarget
 00010511  F7 E3	     6			MUL EBX
 00010513  8B D8	     6			MOV EBX, EAX
 00010515  50		     6			PUSH EAX
 00010516  B8 00000000	     6				MOV EAX, 0
 0001051B  89 83 0000085D R  6				MOV UserSoldiers[EBX].Arms, 	EAX
 00010521  58		     6			POP EAX
 00010522  61		     5			POPA
 00010523  60		     5			PUSHA
 00010524  B8 0000002C	     6			MOV EAX, (SIZEOF Soldier)
 00010529  8B 1D 00000DB1 R  6			MOV EBX, CompAttackTarget
 0001052F  F7 E3	     6			MUL EBX
 00010531  8B D8	     6			MOV EBX, EAX
 00010533  50		     6			PUSH EAX
 00010534  B8 00000000	     6				MOV EAX, 0
 00010539  89 83 0000084D R  6				MOV UserSoldiers[EBX].X, 	EAX
 0001053F  58		     6			POP EAX
 00010540  61		     5			POPA
 00010541  60		     5			PUSHA
 00010542  B8 0000002C	     6			MOV EAX, (SIZEOF Soldier)
 00010547  8B 1D 00000DB1 R  6			MOV EBX, CompAttackTarget
 0001054D  F7 E3	     6			MUL EBX
 0001054F  8B D8	     6			MOV EBX, EAX
 00010551  50		     6			PUSH EAX
 00010552  B8 00000000	     6				MOV EAX, 0
 00010557  89 83 00000861 R  6				MOV UserSoldiers[EBX].League, 	EAX
 0001055D  58		     6			POP EAX
 0001055E  61		     5			POPA
 0001055F  60		     5			PUSHA
 00010560  B8 0000002C	     6			MOV EAX, (SIZEOF Soldier)
 00010565  8B 1D 00000DB1 R  6			MOV EBX, CompAttackTarget
 0001056B  F7 E3	     6			MUL EBX
 0001056D  8B D8	     6			MOV EBX, EAX
 0001056F  50		     6			PUSH EAX
 00010570  B8 00000000	     6				MOV EAX, 0
 00010575  89 83 00000859 R  6				MOV UserSoldiers[EBX].Level, 	EAX
 0001057B  58		     6			POP EAX
 0001057C  61		     5			POPA
 0001057D  60		     5			PUSHA
 0001057E  B8 0000002C	     6			MOV EAX, (SIZEOF Soldier)
 00010583  8B 1D 00000DB1 R  6			MOV EBX, CompAttackTarget
 00010589  F7 E3	     6			MUL EBX
 0001058B  8B D8	     6			MOV EBX, EAX
 0001058D  50		     6			PUSH EAX
 0001058E  B8 00000000	     6				MOV EAX, 0
 00010593  89 83 00000869 R  6				MOV UserSoldiers[EBX].WaitFor, 	EAX
 00010599  58		     6			POP EAX
 0001059A  61		     5			POPA
 0001059B  60		     5			PUSHA
 0001059C  B8 0000002C	     6			MOV EAX, (SIZEOF Soldier)
 000105A1  8B 1D 00000DB1 R  6			MOV EBX, CompAttackTarget
 000105A7  F7 E3	     6			MUL EBX
 000105A9  8B D8	     6			MOV EBX, EAX
 000105AB  50		     6			PUSH EAX
 000105AC  B8 00000000	     6				MOV EAX, 0
 000105B1  89 83 0000086D R  6				MOV UserSoldiers[EBX].AttackTo, 	EAX
 000105B7  58		     6			POP EAX
 000105B8  61		     5			POPA
 000105B9  60		     5			PUSHA
 000105BA  B8 0000002C	     6			MOV EAX, (SIZEOF Soldier)
 000105BF  8B 1D 00000DB1 R  6			MOV EBX, CompAttackTarget
 000105C5  F7 E3	     6			MUL EBX
 000105C7  8B D8	     6			MOV EBX, EAX
 000105C9  50		     6			PUSH EAX
 000105CA  B8 00000000	     6				MOV EAX, 0
 000105CF  89 83 00000849 R  6				MOV UserSoldiers[EBX].HP, 	EAX
 000105D5  58		     6			POP EAX
 000105D6  61		     5			POPA
 000105D7  61		     4			POPA
 000105D8  60		     4			PUSHA
 000105D9  B8 0000002C	     5			MOV EAX, (SIZEOF Soldier)
 000105DE  8B 1D 00000DA9 R  5			MOV EBX, CompAttackSoldier
 000105E4  F7 E3	     5			MUL EBX
 000105E6  8B D8	     5			MOV EBX, EAX
 000105E8  50		     5			PUSH EAX
 000105E9  B8 FFFFFFFF	     5				MOV EAX, -1
 000105EE  89 83 000009CD R  5				MOV CompSoldiers[EBX].AttackTo, 	EAX
 000105F4  58		     5			POP EAX
 000105F5  61		     4			POPA
 000105F6  C7 05 00000CF0 R  4			MOV UserAttackTimer		,0
	   00000000
 00010600  C7 05 00000CF4 R  4			MOV CompAttackTimer		,0
	   00000000
 0001060A  C7 05 00000DA5 R  4			MOV UserAttackSoldier	,0
	   00000000
 00010614  C7 05 00000DA9 R  4			MOV CompAttackSoldier	,0
	   00000000
 0001061E  C7 05 00000DAD R  4			MOV UserAttackTarget	,0
	   00000000
 00010628  C7 05 00000DB1 R  4			MOV CompAttackTarget	,0
	   00000000
 00010632  C7 05 00000DB5 R  4			MOV UserATK	,0
	   00000000
 0001063C  C7 05 00000DB9 R  4			MOV CompATK	,0
	   00000000
 00010646  C7 05 00000DBD R  4			MOV UserHP	,0
	   00000000
 00010650  C7 05 00000DC1 R  4			MOV CompHP	,0
	   00000000
 00010665  60		     5			PUSHA
 00010666  B8 0000002C	     6			MOV EAX, (SIZEOF Soldier)
 0001066B  8B 1D 00000DA9 R  6			MOV EBX, CompAttackSoldier
 00010671  F7 E3	     6			MUL EBX
 00010673  8B D8	     6			MOV EBX, EAX
 00010675  8B 83 000009BD R  6			MOV EAX, CompSoldiers[EBX].Arms
 0001067B  48		     6			DEC EAX
 0001067C  BA 0000000C	     6			MOV EDX, 12
 00010681  F7 E2	     6			MUL EDX
 00010683  8B D0	     6			MOV EDX, EAX
 00010685  8B 83 000009B9 R  6			MOV EAX, CompSoldiers[EBX].Level
 0001068B  48		     6			DEC EAX
 0001068C  C1 E0 02	     6			SHL EAX, 2
 0001068F  03 C2	     6			ADD EAX, EDX
 00010691  50		     6			PUSH EAX
 00010692  8B 80 00000BBD R  6				MOV EAX, Soldier_Attack[EAX]
 00010698  A3 00000DB9 R     6				MOV CompATK, 	EAX
 0001069D  58		     6			POP EAX
 0001069E  61		     5			POPA
 0001069F  A1 00000DB9 R     4			MOV EAX, CompATK
 000106AC  50		     5			PUSH EAX
 000106AD  A1 00000DB9 R     5				MOV EAX, CompATK
 000106B2  29 05 00000DC5 R  5				SUB UserCastleHP, 	EAX
 000106B8  58		     5			POP EAX
 000106BB  50		     6			PUSH EAX
 000106BC  B8 00000000	     6				MOV EAX, 0
 000106C1  A3 00000C4B R     6				MOV Gaming, 	EAX
 000106C6  58		     6			POP EAX
 000106C7  61		     3			POPAD
 000106DA  FF 05 00000D28 R  2				INC MoneyIncrementTimer
 000106E0  60		     3			PUSHAD
 000106E1  B8 0000001E	     3				MOV EAX, 30
 000106E6  50		     4			PUSH EAX
 000106E7  8B C0	     4				MOV EAX, EAX
 000106E9  01 05 00000C47 R  4				ADD UserMoney, 	EAX
 000106EF  58		     4			POP EAX
 000106F0  61		     3			POPAD
 000106F1  FF 05 00000CD0 R  1			INC Beats2x
 000106F7  FF 05 00000CCC R  1			INC Beats3x
 000106FD  FF 05 00000CC8 R  1			INC Beats4x
 00010703  FF 05 00000CC4 R  1			INC Beats5x
 00010709  FF 05 00000CC0 R  1			INC Beats6x
 00010718  50		     2			PUSH EAX
 00010719  B8 00000001	     2				MOV EAX, 1
 0001071E  A3 00000CD0 R     2				MOV Beats2x, 	EAX
 00010723  58		     2			POP EAX
 0001072D  50		     2			PUSH EAX
 0001072E  B8 00000001	     2				MOV EAX, 1
 00010733  A3 00000CCC R     2				MOV Beats3x, 	EAX
 00010738  58		     2			POP EAX
 00010742  50		     2			PUSH EAX
 00010743  B8 00000001	     2				MOV EAX, 1
 00010748  A3 00000CC8 R     2				MOV Beats4x, 	EAX
 0001074D  58		     2			POP EAX
 00010757  FF 05 00000CDC R  1				INC Timer1
 0001075D  50		     2			PUSH EAX
 0001075E  B8 00000001	     2				MOV EAX, 1
 00010763  A3 00000CC4 R     2				MOV Beats5x, 	EAX
 00010768  58		     2			POP EAX
 00010772  50		     2			PUSH EAX
 00010773  B8 00000001	     2				MOV EAX, 1
 00010778  A3 00000CC0 R     2				MOV Beats6x, 	EAX
 0001077D  58		     2			POP EAX
 0001077E  E8 FFFF4AB8				MoveOnSoldiers
						LevelUpCheck
 0001078C  FF 05 00000CB0 R  1				INC UserCurrLevel
 00010792  50		     2			PUSH EAX
 00010793  B8 00000000	     2				MOV EAX, 0
 00010798  A3 00000CB8 R     2				MOV UserLevelUpFlag, 	EAX
 0001079D  58		     2			POP EAX
 000107A7  FF 05 00000CB4 R  1				INC CompCurrLevel
 000107AD  50		     2			PUSH EAX
 000107AE  B8 00000000	     2				MOV EAX, 0
 000107B3  A3 00000CBC R     2				MOV CompLevelUpFlag, 	EAX
 000107B8  58		     2			POP EAX

						LoopTimes 0FFFH
 000107B9  B9 00000FFF	     1			MOV 	ECX,	0FFFH
						.IF ( Gaming == 1 )
							NEXT DR
 000107C7  49		     1			DEC ECX
 000107C8  0F 85 FFFF7830    1			JNZ DR
						.ELSE
						.ENDIF
				ExitMain
				END MAIN
Microsoft (R) Macro Assembler Version 12.00.31101.0	    01/07/16 10:06:26
Atlantis.asm						     Symbols 2 - 1




Macros:

                N a m e                 Type

AI . . . . . . . . . . . . . . .	Proc
AddBy  . . . . . . . . . . . . .	Proc
AnyKeyToContinue . . . . . . . .	Proc
ArrayDecode  . . . . . . . . . .	Proc
ArrayEncode  . . . . . . . . . .	Proc
AttackToCompCastle . . . . . . .	Proc
AttackToUserCastle . . . . . . .	Proc
AutoBuild  . . . . . . . . . . .	Proc
Beats  . . . . . . . . . . . . .	Proc
BuildOnce  . . . . . . . . . . .	Proc
BuildSoldierBufferTime . . . . .	Proc
BuildSoldier . . . . . . . . . .	Proc
Building_Dialog  . . . . . . . .	Proc
CastleAttackCheck  . . . . . . .	Proc
Clear  . . . . . . . . . . . . .	Proc
CollisionCheck . . . . . . . . .	Proc
Collision  . . . . . . . . . . .	Proc
CompAttack . . . . . . . . . . .	Proc
CompBuildTimerCheck  . . . . . .	Proc
CompWaitStackCheck . . . . . . .	Proc
CompWin  . . . . . . . . . . . .	Proc
CopyAddrFrom . . . . . . . . . .	Proc
CopyFrom . . . . . . . . . . . .	Proc
CopyStringFrom . . . . . . . . .	Proc
CounterSoldierOffsetIndex  . . .	Proc
CounterSoldierOffset . . . . . .	Proc
DecAtCoord . . . . . . . . . . .	Proc
DefaultColor . . . . . . . . . .	Proc
DestorySoldier . . . . . . . . .	Proc
Dialog . . . . . . . . . . . . .	Proc
DisplayHP  . . . . . . . . . . .	Proc
DisplayInfoBoard . . . . . . . .	Proc
DrawCastleHP . . . . . . . . . .	Proc
DrawCastle . . . . . . . . . . .	Proc
DrawCompCastle1  . . . . . . . .	Proc
DrawCompCastle2  . . . . . . . .	Proc
DrawCompCastle3  . . . . . . . .	Proc
DrawHPBar  . . . . . . . . . . .	Proc
DrawHP . . . . . . . . . . . . .	Proc
DrawInfo . . . . . . . . . . . .	Proc
DrawLoading  . . . . . . . . . .	Proc
DrawMoney  . . . . . . . . . . .	Proc
DrawMonsterA1  . . . . . . . . .	Proc
DrawMonsterA2  . . . . . . . . .	Proc
DrawMonsterA3  . . . . . . . . .	Proc
DrawMonsterA . . . . . . . . . .	Proc
DrawMonsterB1  . . . . . . . . .	Proc
DrawMonsterB2  . . . . . . . . .	Proc
DrawMonsterB3  . . . . . . . . .	Proc
DrawMonsterB . . . . . . . . . .	Proc
DrawMonsterC1  . . . . . . . . .	Proc
DrawMonsterC2  . . . . . . . . .	Proc
DrawMonsterC3  . . . . . . . . .	Proc
DrawMonsterC . . . . . . . . . .	Proc
DrawPanel  . . . . . . . . . . .	Proc
DrawSoldierA1  . . . . . . . . .	Proc
DrawSoldierA2  . . . . . . . . .	Proc
DrawSoldierA3  . . . . . . . . .	Proc
DrawSoldierA . . . . . . . . . .	Proc
DrawSoldierB1  . . . . . . . . .	Proc
DrawSoldierB2  . . . . . . . . .	Proc
DrawSoldierB3  . . . . . . . . .	Proc
DrawSoldierB . . . . . . . . . .	Proc
DrawSoldierC1  . . . . . . . . .	Proc
DrawSoldierC2  . . . . . . . . .	Proc
DrawSoldierC3  . . . . . . . . .	Proc
DrawSoldierC . . . . . . . . . .	Proc
DrawTurrent  . . . . . . . . . .	Proc
DrawUserCastle1  . . . . . . . .	Proc
DrawUserCastle2  . . . . . . . .	Proc
DrawUserCastle3  . . . . . . . .	Proc
Draw . . . . . . . . . . . . . .	Proc
DumpArray  . . . . . . . . . . .	Proc
DumpBothList . . . . . . . . . .	Proc
DumpBoth . . . . . . . . . . . .	Proc
DumpList . . . . . . . . . . . .	Proc
DumpSoldier  . . . . . . . . . .	Proc
ExitMain . . . . . . . . . . . .	Proc
GettingSoldierAlive  . . . . . .	Proc
GettingSoldierArms . . . . . . .	Proc
GettingSoldierAttackTo . . . . .	Proc
GettingSoldierAttack . . . . . .	Proc
GettingSoldierHP . . . . . . . .	Proc
GettingSoldierHeight . . . . . .	Proc
GettingSoldierInitialHP  . . . .	Proc
GettingSoldierLeague . . . . . .	Proc
GettingSoldierLevel  . . . . . .	Proc
GettingSoldierMoneyByIndex . . .	Proc
GettingSoldierMoney  . . . . . .	Proc
GettingSoldierPercentHP  . . . .	Proc
GettingSoldierState  . . . . . .	Proc
GettingSoldierTime . . . . . . .	Proc
GettingSoldierWaitFor  . . . . .	Proc
GettingSoldierWidth  . . . . . .	Proc
GettingSoldierX  . . . . . . . .	Proc
GettingSoldierY  . . . . . . . .	Proc
GraphDisplay . . . . . . . . . .	Proc
Introduce  . . . . . . . . . . .	Proc
KEY_A  . . . . . . . . . . . . .	Proc
KEY_B  . . . . . . . . . . . . .	Proc
KEY_C  . . . . . . . . . . . . .	Proc
KEY_Z  . . . . . . . . . . . . .	Proc
KeyHandler . . . . . . . . . . .	Proc
LevelUpCheck . . . . . . . . . .	Proc
LoopBuild  . . . . . . . . . . .	Proc
LoopTimes  . . . . . . . . . . .	Proc
MOVE . . . . . . . . . . . . . .	Proc
Mod_A  . . . . . . . . . . . . .	Proc
Mod_B  . . . . . . . . . . . . .	Proc
Mod_C  . . . . . . . . . . . . .	Proc
Mod_Reset  . . . . . . . . . . .	Proc
Mod_UpGrade  . . . . . . . . . .	Proc
MoneyIncrement . . . . . . . . .	Proc
NEXTINC  . . . . . . . . . . . .	Proc
NEXT . . . . . . . . . . . . . .	Proc
NoEnough_Dialog  . . . . . . . .	Proc
ObjectOffset . . . . . . . . . .	Proc
PanelDisplay . . . . . . . . . .	Proc
PauseTime  . . . . . . . . . . .	Proc
PopArray . . . . . . . . . . . .	Proc
PushArray  . . . . . . . . . . .	Proc
Random . . . . . . . . . . . . .	Proc
ReadI  . . . . . . . . . . . . .	Proc
ReadS  . . . . . . . . . . . . .	Proc
ResetAttack  . . . . . . . . . .	Proc
ResetReg . . . . . . . . . . . .	Proc
SearchArray  . . . . . . . . . .	Proc
SettingColor . . . . . . . . . .	Proc
SettingSoldierAlive  . . . . . .	Proc
SettingSoldierArms . . . . . . .	Proc
SettingSoldierAttackTo . . . . .	Proc
SettingSoldierAttack . . . . . .	Proc
SettingSoldierHP . . . . . . . .	Proc
SettingSoldierInitialHP  . . . .	Proc
SettingSoldierLeague . . . . . .	Proc
SettingSoldierLevel  . . . . . .	Proc
SettingSoldierState  . . . . . .	Proc
SettingSoldierWaitFor  . . . . .	Proc
SettingSoldierX  . . . . . . . .	Proc
SettingSoldierY  . . . . . . . .	Proc
SoldierOn  . . . . . . . . . . .	Proc
StartUpLogo  . . . . . . . . . .	Proc
StartUp  . . . . . . . . . . . .	Proc
SubBy  . . . . . . . . . . . . .	Proc
TakeMoney  . . . . . . . . . . .	Proc
TimerBeat  . . . . . . . . . . .	Proc
TimerCheck . . . . . . . . . . .	Proc
TimerInc . . . . . . . . . . . .	Proc
TranslateOnce  . . . . . . . . .	Proc
TranslatePrevious  . . . . . . .	Proc
Translate  . . . . . . . . . . .	Proc
TriggleBuild . . . . . . . . . .	Proc
UserAttack . . . . . . . . . . .	Proc
UserBuildTimerCheck  . . . . . .	Proc
UserWaitStackCheck . . . . . . .	Proc
UserWin  . . . . . . . . . . . .	Proc
WaitStack  . . . . . . . . . . .	Proc
WriteD . . . . . . . . . . . . .	Proc
WriteH . . . . . . . . . . . . .	Proc
WriteI . . . . . . . . . . . . .	Proc
WriteSAddr . . . . . . . . . . .	Proc
WriteSAtCenter . . . . . . . . .	Proc
WriteSAtCoord  . . . . . . . . .	Proc
WriteS . . . . . . . . . . . . .	Proc
Write  . . . . . . . . . . . . .	Proc


Structures and Unions:

                N a m e                  Size
                                         Offset      Type

CONSOLE_CURSOR_INFO  . . . . . .	 00000008
  dwSize . . . . . . . . . . . .	 00000000	 DWord
  bVisible . . . . . . . . . . .	 00000004	 DWord
CONSOLE_SCREEN_BUFFER_INFO . . .	 00000016
  dwSize . . . . . . . . . . . .	 00000000	 DWord
  dwCursorPosition . . . . . . .	 00000004	 DWord
  wAttributes  . . . . . . . . .	 00000008	 Word
  srWindow . . . . . . . . . . .	 0000000A	 QWord
  dwMaximumWindowSize  . . . . .	 00000012	 DWord
COORD  . . . . . . . . . . . . .	 00000004
  X  . . . . . . . . . . . . . .	 00000000	 Word
  Y  . . . . . . . . . . . . . .	 00000002	 Word
FILETIME . . . . . . . . . . . .	 00000008
  loDateTime . . . . . . . . . .	 00000000	 DWord
  hiDateTime . . . . . . . . . .	 00000004	 DWord
FOCUS_EVENT_RECORD . . . . . . .	 00000004
  bSetFocus  . . . . . . . . . .	 00000000	 DWord
FPU_ENVIRON  . . . . . . . . . .	 0000001C
  controlWord  . . . . . . . . .	 00000000	 Word
  statusWord . . . . . . . . . .	 00000004	 Word
  tagWord  . . . . . . . . . . .	 00000008	 Word
  instrPointerOffset . . . . . .	 0000000C	 DWord
  instrPointerSelector . . . . .	 00000010	 DWord
  operandPointerOffset . . . . .	 00000014	 DWord
  operandPointerSelector . . . .	 00000018	 Word
INPUT_RECORD . . . . . . . . . .	 00000014
  EventType  . . . . . . . . . .	 00000000	 Word
  Event  . . . . . . . . . . . .	 00000004	 XmmWord
  bKeyDown . . . . . . . . . . .	 00000000	 DWord
  wRepeatCount . . . . . . . . .	 00000004	 Word
  wVirtualKeyCode  . . . . . . .	 00000006	 Word
  wVirtualScanCode . . . . . . .	 00000008	 Word
  uChar  . . . . . . . . . . . .	 0000000A	 Word
  UnicodeChar  . . . . . . . . .	 00000000	 Word
  AsciiChar  . . . . . . . . . .	 00000000	 Byte
  dwControlKeyState  . . . . . .	 0000000C	 DWord
  dwMousePosition  . . . . . . .	 00000000	 DWord
  dwButtonState  . . . . . . . .	 00000004	 DWord
  dwMouseControlKeyState . . . .	 00000008	 DWord
  dwEventFlags . . . . . . . . .	 0000000C	 DWord
  dwSize . . . . . . . . . . . .	 00000000	 DWord
  dwCommandId  . . . . . . . . .	 00000000	 DWord
  bSetFocus  . . . . . . . . . .	 00000000	 DWord
KEY_EVENT_RECORD . . . . . . . .	 00000010
  bKeyDown . . . . . . . . . . .	 00000000	 DWord
  wRepeatCount . . . . . . . . .	 00000004	 Word
  wVirtualKeyCode  . . . . . . .	 00000006	 Word
  wVirtualScanCode . . . . . . .	 00000008	 Word
  uChar  . . . . . . . . . . . .	 0000000A	 Word
  UnicodeChar  . . . . . . . . .	 00000000	 Word
  AsciiChar  . . . . . . . . . .	 00000000	 Byte
  dwControlKeyState  . . . . . .	 0000000C	 DWord
MENU_EVENT_RECORD  . . . . . . .	 00000004
  dwCommandId  . . . . . . . . .	 00000000	 DWord
MOUSE_EVENT_RECORD . . . . . . .	 00000010
  dwMousePosition  . . . . . . .	 00000000	 DWord
  dwButtonState  . . . . . . . .	 00000004	 DWord
  dwMouseControlKeyState . . . .	 00000008	 DWord
  dwEventFlags . . . . . . . . .	 0000000C	 DWord
SMALL_RECT . . . . . . . . . . .	 00000008
  Left . . . . . . . . . . . . .	 00000000	 Word
  Top  . . . . . . . . . . . . .	 00000002	 Word
  Right  . . . . . . . . . . . .	 00000004	 Word
  Bottom . . . . . . . . . . . .	 00000006	 Word
SYSTEMTIME . . . . . . . . . . .	 00000010
  wYear  . . . . . . . . . . . .	 00000000	 Word
  wMonth . . . . . . . . . . . .	 00000002	 Word
  wDayOfWeek . . . . . . . . . .	 00000004	 Word
  wDay . . . . . . . . . . . . .	 00000006	 Word
  wHour  . . . . . . . . . . . .	 00000008	 Word
  wMinute  . . . . . . . . . . .	 0000000A	 Word
  wSecond  . . . . . . . . . . .	 0000000C	 Word
  wMilliseconds  . . . . . . . .	 0000000E	 Word
Soldier  . . . . . . . . . . . .	 0000002C
  HP . . . . . . . . . . . . . .	 00000000	 DWord
  X  . . . . . . . . . . . . . .	 00000004	 DWord
  Y  . . . . . . . . . . . . . .	 00000008	 DWord
  ATK  . . . . . . . . . . . . .	 0000000C	 DWord
  Level  . . . . . . . . . . . .	 00000010	 DWord
  Arms . . . . . . . . . . . . .	 00000014	 DWord
  League . . . . . . . . . . . .	 00000018	 DWord
  State  . . . . . . . . . . . .	 0000001C	 DWord
  WaitFor  . . . . . . . . . . .	 00000020	 DWord
  AttackTo . . . . . . . . . . .	 00000024	 DWord
  Alive  . . . . . . . . . . . .	 00000028	 DWord
WINDOW_BUFFER_SIZE_RECORD  . . .	 00000004
  dwSize . . . . . . . . . . . .	 00000000	 DWord


Segments and Groups:

                N a m e                 Size     Length   Align   Combine Class

FLAT . . . . . . . . . . . . . .	GROUP
STACK  . . . . . . . . . . . . .	32 Bit	 00001000 Para	  Stack	  'STACK'	 
_DATA  . . . . . . . . . . . . .	32 Bit	 00000EC1 Para	  Public  'DATA'	
_TEXT  . . . . . . . . . . . . .	32 Bit	 000107D7 Para	  Public  'CODE'	


Procedures, parameters, and locals:

                N a m e                 Type     Value    Attr

ArrayDump  . . . . . . . . . . .	P Near	 000000B8 _TEXT	Length= 0000002D Public STDCALL
  Array  . . . . . . . . . . . .	DWord	 bp + 00000008
  LOOPC  . . . . . . . . . . . .	L Near	 000000C4 _TEXT	
ArrayPOP . . . . . . . . . . . .	P Near	 000000E5 _TEXT	Length= 0000007A Public STDCALL
  Array  . . . . . . . . . . . .	DWord	 bp + 00000008
  LOOPA  . . . . . . . . . . . .	L Near	 000000FF _TEXT	
  LOOPB  . . . . . . . . . . . .	L Near	 0000012B _TEXT	
  FILLZERO . . . . . . . . . . .	L Near	 00000133 _TEXT	
  FILLNUM  . . . . . . . . . . .	L Near	 00000153 _TEXT	
ArrayPUSH  . . . . . . . . . . .	P Near	 0000015F _TEXT	Length= 0000002A Public STDCALL
  Array  . . . . . . . . . . . .	DWord	 bp + 00000008
  Num  . . . . . . . . . . . . .	DWord	 bp + 0000000C
ArraySearch  . . . . . . . . . .	P Near	 00000189 _TEXT	Length= 00000009 Public STDCALL
  Array  . . . . . . . . . . . .	DWord	 bp + 00000008
  Num  . . . . . . . . . . . . .	DWord	 bp + 0000000C
CloseFile  . . . . . . . . . . .	P Near	 00000000 FLAT	Length= 00000000 External STDCALL
CloseHandle  . . . . . . . . . .	P Near	 00000000 FLAT	Length= 00000000 External STDCALL
Clrscr . . . . . . . . . . . . .	P Near	 00000000 FLAT	Length= 00000000 External STDCALL
CoppingString  . . . . . . . . .	P Near	 000000AF _TEXT	Length= 00000009 Public STDCALL
  CoppingS . . . . . . . . . . .	L Near	 000000AF _TEXT	
CreateFileA  . . . . . . . . . .	P Near	 00000000 FLAT	Length= 00000000 External STDCALL
CreateOutputFile . . . . . . . .	P Near	 00000000 FLAT	Length= 00000000 External STDCALL
Crlf . . . . . . . . . . . . . .	P Near	 00000000 FLAT	Length= 00000000 External STDCALL
Delay  . . . . . . . . . . . . .	P Near	 00000000 FLAT	Length= 00000000 External STDCALL
DrawingSoldiers  . . . . . . . .	P Near	 00001A45 _TEXT	Length= 00003504 Public STDCALL
  DSs  . . . . . . . . . . . . .	L Near	 00001A4B _TEXT	
DumpBothSoldierList  . . . . . .	P Near	 00001875 _TEXT	Length= 000001D0 Public STDCALL
  DSs  . . . . . . . . . . . . .	L Near	 000018C4 _TEXT	
DumpMem  . . . . . . . . . . . .	P Near	 00000000 FLAT	Length= 00000000 External STDCALL
DumpRegs . . . . . . . . . . . .	P Near	 00000000 FLAT	Length= 00000000 External STDCALL
DumpSoldierList  . . . . . . . .	P Near	 000016BE _TEXT	Length= 000001B7 Public STDCALL
  DSs  . . . . . . . . . . . . .	L Near	 0000170D _TEXT	
ExitProcess  . . . . . . . . . .	P Near	 00000000 FLAT	Length= 00000000 External STDCALL
FileTimeToDosDateTime  . . . . .	P Near	 00000000 FLAT	Length= 00000000 External STDCALL
FileTimeToSystemTime . . . . . .	P Near	 00000000 FLAT	Length= 00000000 External STDCALL
FindUsableSoldier  . . . . . . .	P Near	 00004F49 _TEXT	Length= 000002F2 Public STDCALL
  League . . . . . . . . . . . .	DWord	 bp + 00000008
  Arms . . . . . . . . . . . . .	DWord	 bp + 0000000C
  FindUser . . . . . . . . . . .	L Near	 00004F5C _TEXT	
  FindComp . . . . . . . . . . .	L Near	 000050D3 _TEXT	
FlushConsoleInputBuffer  . . . .	P Near	 00000000 FLAT	Length= 00000000 External STDCALL
ForceCLS . . . . . . . . . . . .	P Near	 00000000 _TEXT	Length= 000000AF Public STDCALL
  NewLine  . . . . . . . . . . .	L Near	 00000048 _TEXT	
  BLANKS . . . . . . . . . . . .	L Near	 0000004E _TEXT	
FormatMessageA . . . . . . . . .	P Near	 00000000 FLAT	Length= 00000000 External STDCALL
GetCommandLineA  . . . . . . . .	P Near	 00000000 FLAT	Length= 00000000 External STDCALL
GetCommandTail . . . . . . . . .	P Near	 00000000 FLAT	Length= 00000000 External STDCALL
GetConsoleCP . . . . . . . . . .	P Near	 00000000 FLAT	Length= 00000000 External STDCALL
GetConsoleCursorInfo . . . . . .	P Near	 00000000 FLAT	Length= 00000000 External STDCALL
GetConsoleMode . . . . . . . . .	P Near	 00000000 FLAT	Length= 00000000 External STDCALL
GetConsoleScreenBufferInfo . . .	P Near	 00000000 FLAT	Length= 00000000 External STDCALL
GetDateTime  . . . . . . . . . .	P Near	 00000000 FLAT	Length= 00000000 External STDCALL
GetFileTime  . . . . . . . . . .	P Near	 00000000 FLAT	Length= 00000000 External STDCALL
GetKeyState  . . . . . . . . . .	P Near	 00000000 FLAT	Length= 00000000 External STDCALL
GetLastError . . . . . . . . . .	P Near	 00000000 FLAT	Length= 00000000 External STDCALL
GetLocalTime . . . . . . . . . .	P Near	 00000000 FLAT	Length= 00000000 External STDCALL
GetMaxXY . . . . . . . . . . . .	P Near	 00000000 FLAT	Length= 00000000 External STDCALL
GetMseconds  . . . . . . . . . .	P Near	 00000000 FLAT	Length= 00000000 External STDCALL
GetNumberOfConsoleInputEvents  .	P Near	 00000000 FLAT	Length= 00000000 External STDCALL
GetProcessHeap . . . . . . . . .	P Near	 00000000 FLAT	Length= 00000000 External STDCALL
GetStdHandle . . . . . . . . . .	P Near	 00000000 FLAT	Length= 00000000 External STDCALL
GetSystemTime  . . . . . . . . .	P Near	 00000000 FLAT	Length= 00000000 External STDCALL
GetTextColor . . . . . . . . . .	P Near	 00000000 FLAT	Length= 00000000 External STDCALL
GetTickCount . . . . . . . . . .	P Near	 00000000 FLAT	Length= 00000000 External STDCALL
Gotoxy . . . . . . . . . . . . .	P Near	 00000000 FLAT	Length= 00000000 External STDCALL
HeapAlloc  . . . . . . . . . . .	P Near	 00000000 FLAT	Length= 00000000 External STDCALL
HeapCreate . . . . . . . . . . .	P Near	 00000000 FLAT	Length= 00000000 External STDCALL
HeapDestroy  . . . . . . . . . .	P Near	 00000000 FLAT	Length= 00000000 External STDCALL
HeapFree . . . . . . . . . . . .	P Near	 00000000 FLAT	Length= 00000000 External STDCALL
HeapSize . . . . . . . . . . . .	P Near	 00000000 FLAT	Length= 00000000 External STDCALL
Init . . . . . . . . . . . . . .	P Near	 0000167C _TEXT	Length= 00000042 Public STDCALL
  EACH . . . . . . . . . . . . .	L Near	 00001682 _TEXT	
IsDigit  . . . . . . . . . . . .	P Near	 00000000 FLAT	Length= 00000000 External STDCALL
LocalFree  . . . . . . . . . . .	P Near	 00000000 FLAT	Length= 00000000 External STDCALL
MessageBoxA  . . . . . . . . . .	P Near	 00000000 FLAT	Length= 00000000 External STDCALL
MoveingSoldiers  . . . . . . . .	P Near	 0000523B _TEXT	Length= 000008EF Public STDCALL
  MUS  . . . . . . . . . . . . .	L Near	 00005240 _TEXT	
  UserWattingChecking  . . . . .	L Near	 00005374 _TEXT	
  CollisionChecking  . . . . . .	L Near	 000055DF _TEXT	
  MCS  . . . . . . . . . . . . .	L Near	 00005767 _TEXT	
  CompWattingChecking  . . . . .	L Near	 000058A0 _TEXT	
MsgBoxAsk  . . . . . . . . . . .	P Near	 00000000 FLAT	Length= 00000000 External STDCALL
MsgBox . . . . . . . . . . . . .	P Near	 00000000 FLAT	Length= 00000000 External STDCALL
OpenInputFile  . . . . . . . . .	P Near	 00000000 FLAT	Length= 00000000 External STDCALL
ParseDecimal32 . . . . . . . . .	P Near	 00000000 FLAT	Length= 00000000 External STDCALL
ParseInteger32 . . . . . . . . .	P Near	 00000000 FLAT	Length= 00000000 External STDCALL
PeekConsoleInputA  . . . . . . .	P Near	 00000000 FLAT	Length= 00000000 External STDCALL
Random32 . . . . . . . . . . . .	P Near	 00000000 FLAT	Length= 00000000 External STDCALL
RandomRange  . . . . . . . . . .	P Near	 00000000 FLAT	Length= 00000000 External STDCALL
Randomize  . . . . . . . . . . .	P Near	 00000000 FLAT	Length= 00000000 External STDCALL
ReadChar . . . . . . . . . . . .	P Near	 00000000 FLAT	Length= 00000000 External STDCALL
ReadConsoleA . . . . . . . . . .	P Near	 00000000 FLAT	Length= 00000000 External STDCALL
ReadConsoleInputA  . . . . . . .	P Near	 00000000 FLAT	Length= 00000000 External STDCALL
ReadDec  . . . . . . . . . . . .	P Near	 00000000 FLAT	Length= 00000000 External STDCALL
ReadFile . . . . . . . . . . . .	P Near	 00000000 FLAT	Length= 00000000 External STDCALL
ReadFloat  . . . . . . . . . . .	P Near	 00000000 FLAT	Length= 00000000 External STDCALL
ReadFromFile . . . . . . . . . .	P Near	 00000000 FLAT	Length= 00000000 External STDCALL
ReadHex  . . . . . . . . . . . .	P Near	 00000000 FLAT	Length= 00000000 External STDCALL
ReadInt  . . . . . . . . . . . .	P Near	 00000000 FLAT	Length= 00000000 External STDCALL
ReadKeyFlush . . . . . . . . . .	P Near	 00000000 FLAT	Length= 00000000 External STDCALL
ReadKey  . . . . . . . . . . . .	P Near	 00000000 FLAT	Length= 00000000 External STDCALL
ReadString . . . . . . . . . . .	P Near	 00000000 FLAT	Length= 00000000 External STDCALL
SetConsoleCursorInfo . . . . . .	P Near	 00000000 FLAT	Length= 00000000 External STDCALL
SetConsoleCursorPosition . . . .	P Near	 00000000 FLAT	Length= 00000000 External STDCALL
SetConsoleMode . . . . . . . . .	P Near	 00000000 FLAT	Length= 00000000 External STDCALL
SetConsoleScreenBufferSize . . .	P Near	 00000000 FLAT	Length= 00000000 External STDCALL
SetConsoleTextAttribute  . . . .	P Near	 00000000 FLAT	Length= 00000000 External STDCALL
SetConsoleTitleA . . . . . . . .	P Near	 00000000 FLAT	Length= 00000000 External STDCALL
SetConsoleWindowInfo . . . . . .	P Near	 00000000 FLAT	Length= 00000000 External STDCALL
SetFilePointer . . . . . . . . .	P Near	 00000000 FLAT	Length= 00000000 External STDCALL
SetLocalTime . . . . . . . . . .	P Near	 00000000 FLAT	Length= 00000000 External STDCALL
SetTextColor . . . . . . . . . .	P Near	 00000000 FLAT	Length= 00000000 External STDCALL
ShowFPUStack . . . . . . . . . .	P Near	 00000000 FLAT	Length= 00000000 External STDCALL
Sleep  . . . . . . . . . . . . .	P Near	 00000000 FLAT	Length= 00000000 External STDCALL
StrLength  . . . . . . . . . . .	P Near	 00000000 FLAT	Length= 00000000 External STDCALL
Str_compare  . . . . . . . . . .	P Near	 00000000 FLAT	Length= 00000000 External STDCALL
Str_copy . . . . . . . . . . . .	P Near	 00000000 FLAT	Length= 00000000 External STDCALL
Str_length . . . . . . . . . . .	P Near	 00000000 FLAT	Length= 00000000 External STDCALL
Str_trim . . . . . . . . . . . .	P Near	 00000000 FLAT	Length= 00000000 External STDCALL
Str_ucase  . . . . . . . . . . .	P Near	 00000000 FLAT	Length= 00000000 External STDCALL
SystemTimeToFileTime . . . . . .	P Near	 00000000 FLAT	Length= 00000000 External STDCALL
WaitMsg  . . . . . . . . . . . .	P Near	 00000000 FLAT	Length= 00000000 External STDCALL
WriteBinB  . . . . . . . . . . .	P Near	 00000000 FLAT	Length= 00000000 External STDCALL
WriteBin . . . . . . . . . . . .	P Near	 00000000 FLAT	Length= 00000000 External STDCALL
WriteChar  . . . . . . . . . . .	P Near	 00000000 FLAT	Length= 00000000 External STDCALL
WriteConsoleA  . . . . . . . . .	P Near	 00000000 FLAT	Length= 00000000 External STDCALL
WriteConsoleOutputAttribute  . .	P Near	 00000000 FLAT	Length= 00000000 External STDCALL
WriteConsoleOutputCharacterA . .	P Near	 00000000 FLAT	Length= 00000000 External STDCALL
WriteDec . . . . . . . . . . . .	P Near	 00000000 FLAT	Length= 00000000 External STDCALL
WriteFile  . . . . . . . . . . .	P Near	 00000000 FLAT	Length= 00000000 External STDCALL
WriteFloat . . . . . . . . . . .	P Near	 00000000 FLAT	Length= 00000000 External STDCALL
WriteHexB  . . . . . . . . . . .	P Near	 00000000 FLAT	Length= 00000000 External STDCALL
WriteHex . . . . . . . . . . . .	P Near	 00000000 FLAT	Length= 00000000 External STDCALL
WriteInt . . . . . . . . . . . .	P Near	 00000000 FLAT	Length= 00000000 External STDCALL
WriteStackFrameName  . . . . . .	P Near	 00000000 FLAT	Length= 00000000 External STDCALL
WriteStackFrame  . . . . . . . .	P Near	 00000000 FLAT	Length= 00000000 External STDCALL
WriteString  . . . . . . . . . .	P Near	 00000000 FLAT	Length= 00000000 External STDCALL
WriteToFile  . . . . . . . . . .	P Near	 00000000 FLAT	Length= 00000000 External STDCALL
WriteWindowsMsg  . . . . . . . .	P Near	 00000000 FLAT	Length= 00000000 External STDCALL
printf . . . . . . . . . . . . .	P Near	 00000000 FLAT	Length= 00000000 External C
scanf  . . . . . . . . . . . . .	P Near	 00000000 FLAT	Length= 00000000 External C
wsprintfA  . . . . . . . . . . .	P Near	 00000000 FLAT	Length= 00000000 External C


Symbols:

                N a m e                 Type     Value    Attr

@CodeSize  . . . . . . . . . . .	Number	 00000000h   
@DataSize  . . . . . . . . . . .	Number	 00000000h   
@Interface . . . . . . . . . . .	Number	 00000003h   
@Model . . . . . . . . . . . . .	Number	 00000007h   
@code  . . . . . . . . . . . . .	Text   	 _TEXT
@data  . . . . . . . . . . . . .	Text   	 FLAT
@fardata?  . . . . . . . . . . .	Text   	 FLAT
@fardata . . . . . . . . . . . .	Text   	 FLAT
@stack . . . . . . . . . . . . .	Text   	 FLAT
AI_Timer . . . . . . . . . . . .	DWord	 00000EB1 _DATA	
ALT_MASK . . . . . . . . . . . .	Number	 00000003h   
AtlantisSize . . . . . . . . . .	Byte	 00000C5C _DATA	
AtlantisTitle  . . . . . . . . .	Byte	 00000C53 _DATA	
Attacking  . . . . . . . . . . .	Byte	 00000C29 _DATA	
Beats2x  . . . . . . . . . . . .	DWord	 00000CD0 _DATA	
Beats3x  . . . . . . . . . . . .	DWord	 00000CCC _DATA	
Beats4x  . . . . . . . . . . . .	DWord	 00000CC8 _DATA	
Beats5x  . . . . . . . . . . . .	DWord	 00000CC4 _DATA	
Beats6x  . . . . . . . . . . . .	DWord	 00000CC0 _DATA	
Blood_Percent_100X . . . . . . .	DWord	 00000C33 _DATA	
Blood_Percent_25X  . . . . . . .	DWord	 00000C3F _DATA	
Blood_Percent_50X  . . . . . . .	DWord	 00000C3B _DATA	
Blood_Percent_75X  . . . . . . .	DWord	 00000C37 _DATA	
Blood_Percent_Current  . . . . .	DWord	 00000C43 _DATA	
BuildCompSoldierA  . . . . . . .	Text   	 BuildSoldier CompSoldiers, 1, 1
BuildCompSoldierB  . . . . . . .	Text   	 BuildSoldier CompSoldiers, 1, 2
BuildCompSoldierC  . . . . . . .	Text   	 BuildSoldier CompSoldiers, 1, 3
BuildUserSoldierA  . . . . . . .	Text   	 BuildSoldier UserSoldiers, 0, 1
BuildUserSoldierB  . . . . . . .	Text   	 BuildSoldier UserSoldiers, 0, 2
BuildUserSoldierC  . . . . . . .	Text   	 BuildSoldier UserSoldiers, 0, 3
Building_Dialog_1  . . . . . . .	Byte	 00000192 _TEXT	
Building_Dialog_2  . . . . . . .	Byte	 000001BA _TEXT	
Building_Dialog_3  . . . . . . .	Byte	 000001E2 _TEXT	
Building_Dialog_4  . . . . . . .	Byte	 0000020A _TEXT	
Building_Dialog_5  . . . . . . .	Byte	 00000232 _TEXT	
Building_Dialog_6  . . . . . . .	Byte	 0000025A _TEXT	
Building . . . . . . . . . . . .	DWord	 00000CD8 _DATA	
CAPSLOCK_ON  . . . . . . . . . .	Number	 00000080h   
CLSALL . . . . . . . . . . . . .	Text   	 CALL 	ForceCLS
CLS  . . . . . . . . . . . . . .	Text   	 CALL 	ClrScr
CREATE_ALWAYS  . . . . . . . . .	Number	 00000002h   
CREATE_NEW . . . . . . . . . . .	Number	 00000001h   
CTRL_MASK  . . . . . . . . . . .	Number	 0000000Ch   
CanBuildCallBack . . . . . . . .	DWord	 00000DD9 _DATA	
ClearOn  . . . . . . . . . . . .	DWord	 00000CD4 _DATA	
CollisionChecking  . . . . . . .	L Near	 00010268 _TEXT	
CollisionCurrID  . . . . . . . .	DWord	 00000EA9 _DATA	
Collision_A_X  . . . . . . . . .	DWord	 00000D99 _DATA	
Collision_B_X  . . . . . . . . .	DWord	 00000D9D _DATA	
Collision_Check_ID . . . . . . .	DWord	 00000DA1 _DATA	
CompATK  . . . . . . . . . . . .	DWord	 00000DB9 _DATA	
CompAttackSoldier  . . . . . . .	DWord	 00000DA9 _DATA	
CompAttackTarget . . . . . . . .	DWord	 00000DB1 _DATA	
CompAttackTimer  . . . . . . . .	DWord	 00000CF4 _DATA	
CompCastleHP . . . . . . . . . .	DWord	 00000DC9 _DATA	
CompCastle_1_1 . . . . . . . . .	Byte	 000001DF _DATA	
CompCastle_1_2 . . . . . . . . .	Byte	 000001EF _DATA	
CompCastle_1_3 . . . . . . . . .	Byte	 000001FC _DATA	
CompCastle_1_4 . . . . . . . . .	Byte	 00000209 _DATA	
CompCastle_1_5 . . . . . . . . .	Byte	 00000216 _DATA	
CompCastle_1_6 . . . . . . . . .	Byte	 00000223 _DATA	
CompCastle_2_1 . . . . . . . . .	Byte	 00000230 _DATA	
CompCastle_2_2 . . . . . . . . .	Byte	 0000023B _DATA	
CompCastle_2_3 . . . . . . . . .	Byte	 00000246 _DATA	
CompCastle_2_4 . . . . . . . . .	Byte	 00000255 _DATA	
CompCastle_2_5 . . . . . . . . .	Byte	 00000264 _DATA	
CompCastle_2_6 . . . . . . . . .	Byte	 00000275 _DATA	
CompCastle_2_7 . . . . . . . . .	Byte	 00000286 _DATA	
CompCastle_2_8 . . . . . . . . .	Byte	 00000295 _DATA	
CompCastle_3_1 . . . . . . . . .	Byte	 000002A4 _DATA	
CompCastle_3_2 . . . . . . . . .	Byte	 000002B7 _DATA	
CompCastle_3_3 . . . . . . . . .	Byte	 000002CC _DATA	
CompCastle_3_4 . . . . . . . . .	Byte	 000002DD _DATA	
CompCastle_3_5 . . . . . . . . .	Byte	 000002F3 _DATA	
CompCastle_3_6 . . . . . . . . .	Byte	 00000309 _DATA	
CompCastle_3_7 . . . . . . . . .	Byte	 0000031F _DATA	
CompCastle_3_8 . . . . . . . . .	Byte	 00000336 _DATA	
CompCastle_3_9 . . . . . . . . .	Byte	 00000347 _DATA	
CompCurrLevel  . . . . . . . . .	DWord	 00000CB4 _DATA	
CompHP . . . . . . . . . . . . .	DWord	 00000DC1 _DATA	
CompLevelUpFlag  . . . . . . . .	DWord	 00000CBC _DATA	
CompSoldier_Height . . . . . . .	DWord	 00000B51 _DATA	
CompSoldier_Width  . . . . . . .	DWord	 00000B75 _DATA	
CompSoldiers . . . . . . . . . .	Soldier	 000009A9 _DATA	
Comp_BuildQueue  . . . . . . . .	DWord	 00000D10 _DATA	
Comp_Curr_Soldier  . . . . . . .	DWord	 00000CAC _DATA	
CreateFile . . . . . . . . . . .	Text   	 CreateFileA
CurrentID  . . . . . . . . . . .	DWord	 00000EA5 _DATA	
CurrentPointX  . . . . . . . . .	Byte	 00000002 _DATA	
CurrentPointY  . . . . . . . . .	Byte	 00000003 _DATA	
DO_NOT_SHARE . . . . . . . . . .	Number	 00000000h   
DR . . . . . . . . . . . . . . .	L Near	 00007FFE _TEXT	
DebugMode  . . . . . . . . . . .	DWord	 00000C4F _DATA	
Dialog_Example_1 . . . . . . . .	Byte	 00000DDD _DATA	
Dialog_Example_2 . . . . . . . .	Byte	 00000DF4 _DATA	
Dialog_Example_3 . . . . . . . .	Byte	 00000E2B _DATA	
Dialog_Example_4 . . . . . . . .	Byte	 00000E30 _DATA	
Dialog_Example_5 . . . . . . . .	Byte	 00000E6C _DATA	
DrawSoldiers . . . . . . . . . .	Text   	 CALL DrawingSoldiers
Dump . . . . . . . . . . . . . .	Text   	 CALL DumpRegs
ENABLE_ECHO_INPUT  . . . . . . .	Number	 00000004h   
ENABLE_LINE_INPUT  . . . . . . .	Number	 00000002h   
ENABLE_MOUSE_INPUT . . . . . . .	Number	 00000010h   
ENABLE_PROCESSED_INPUT . . . . .	Number	 00000001h   
ENABLE_PROCESSED_OUTPUT  . . . .	Number	 00000001h   
ENABLE_WINDOW_INPUT  . . . . . .	Number	 00000008h   
ENABLE_WRAP_AT_EOL_OUTPUT  . . .	Number	 00000002h   
ENHANCED_KEY . . . . . . . . . .	Number	 00000100h   
EnoughTimer  . . . . . . . . . .	DWord	 00000CEC _DATA	
FALSE  . . . . . . . . . . . . .	Number	 00000000h   
FILE_APPEND_DATA . . . . . . . .	Number	 00000004h   
FILE_ATTRIBUTE_ARCHIVE . . . . .	Number	 00000020h   
FILE_ATTRIBUTE_COMPRESSED  . . .	Number	 00000800h   
FILE_ATTRIBUTE_DEVICE  . . . . .	Number	 00000040h   
FILE_ATTRIBUTE_DIRECTORY . . . .	Number	 00000010h   
FILE_ATTRIBUTE_ENCRYPTED . . . .	Number	 00004000h   
FILE_ATTRIBUTE_HIDDEN  . . . . .	Number	 00000002h   
FILE_ATTRIBUTE_NORMAL  . . . . .	Number	 00000080h   
FILE_ATTRIBUTE_NOT_CONTENT_INDEXED .	Number	 00002000h   
FILE_ATTRIBUTE_OFFLINE . . . . .	Number	 00001000h   
FILE_ATTRIBUTE_READONLY  . . . .	Number	 00000001h   
FILE_ATTRIBUTE_REPARSE_POINT . .	Number	 00000400h   
FILE_ATTRIBUTE_SPARSE_FILE . . .	Number	 00000200h   
FILE_ATTRIBUTE_SYSTEM  . . . . .	Number	 00000004h   
FILE_ATTRIBUTE_TEMPORARY . . . .	Number	 00000100h   
FILE_BEGIN . . . . . . . . . . .	Number	 00000000h   
FILE_CURRENT . . . . . . . . . .	Number	 00000001h   
FILE_DELETE_CHILD  . . . . . . .	Number	 00000040h   
FILE_END . . . . . . . . . . . .	Number	 00000002h   
FILE_READ_DATA . . . . . . . . .	Number	 00000001h   
FILE_SHARE_DELETE  . . . . . . .	Number	 00000004h   
FILE_SHARE_READ  . . . . . . . .	Number	 00000001h   
FILE_SHARE_WRITE . . . . . . . .	Number	 00000002h   
FILE_WRITE_DATA  . . . . . . . .	Number	 00000002h   
FOCUS_EVENT  . . . . . . . . . .	Number	 00000010h   
FORMAT_MESSAGE_ALLOCATE_BUFFER .	Number	 00000100h   
FORMAT_MESSAGE_FROM_SYSTEM . . .	Number	 00001000h   
FormatMessage  . . . . . . . . .	Text   	 FormatMessageA
GENERIC_ALL  . . . . . . . . . .	Number	 10000000h   
GENERIC_EXECUTE  . . . . . . . .	Number	 20000000h   
GENERIC_READ . . . . . . . . . .	Number	 -80000000h   
GENERIC_WRITE  . . . . . . . . .	Number	 40000000h   
Gaming . . . . . . . . . . . . .	DWord	 00000C4B _DATA	
GetCommandLine . . . . . . . . .	Text   	 GetCommandLineA
GetterHandler  . . . . . . . . .	DWord	 00000CA4 _DATA	
HANDLE . . . . . . . . . . . . .	Text   	 DWORD
HEAP_GENERATE_EXCEPTIONS . . . .	Number	 00000004h   
HEAP_GROWABLE  . . . . . . . . .	Number	 00000002h   
HEAP_NO_SERIALIZE  . . . . . . .	Number	 00000001h   
HEAP_REALLOC_IN_PLACE_ONLY . . .	Number	 00000010h   
HEAP_ZERO_MEMORY . . . . . . . .	Number	 00000008h   
HPLineX  . . . . . . . . . . . .	DWord	 00000DD1 _DATA	
HPLineY  . . . . . . . . . . . .	DWord	 00000DD5 _DATA	
HPLine . . . . . . . . . . . . .	DWord	 00000DCD _DATA	
IDABORT  . . . . . . . . . . . .	Number	 00000003h   
IDCANCEL . . . . . . . . . . . .	Number	 00000002h   
IDCLOSE  . . . . . . . . . . . .	Number	 00000008h   
IDCONTINUE . . . . . . . . . . .	Number	 0000000Bh   
IDHELP . . . . . . . . . . . . .	Number	 00000009h   
IDIGNORE . . . . . . . . . . . .	Number	 00000005h   
IDNO . . . . . . . . . . . . . .	Number	 00000007h   
IDOK . . . . . . . . . . . . . .	Number	 00000001h   
IDRETRY  . . . . . . . . . . . .	Number	 00000004h   
IDTIMEOUT  . . . . . . . . . . .	Number	 00007D00h   
IDTRYAGAIN . . . . . . . . . . .	Number	 0000000Ah   
IDYES  . . . . . . . . . . . . .	Number	 00000006h   
INFO_Panel_10  . . . . . . . . .	Byte	 00000799 _TEXT	
INFO_Panel_1 . . . . . . . . . .	Byte	 0000035A _TEXT	
INFO_Panel_2 . . . . . . . . . .	Byte	 000003D3 _TEXT	
INFO_Panel_3 . . . . . . . . . .	Byte	 0000044C _TEXT	
INFO_Panel_4 . . . . . . . . . .	Byte	 000004C3 _TEXT	
INFO_Panel_5 . . . . . . . . . .	Byte	 0000053C _TEXT	
INFO_Panel_6 . . . . . . . . . .	Byte	 000005B5 _TEXT	
INFO_Panel_7 . . . . . . . . . .	Byte	 0000062E _TEXT	
INFO_Panel_8 . . . . . . . . . .	Byte	 000006A7 _TEXT	
INFO_Panel_9 . . . . . . . . . .	Byte	 00000720 _TEXT	
INVALID_HANDLE_VALUE . . . . . .	Number	 -00000001h   
Initial  . . . . . . . . . . . .	Text   	 CALL Init
KBDOWN_FLAG  . . . . . . . . . .	Number	 00000001h   
KEY_A_1  . . . . . . . . . . . .	Byte	 000002D7 _TEXT	
KEY_A_2  . . . . . . . . . . . .	Byte	 000002DE _TEXT	
KEY_A_3  . . . . . . . . . . . .	Byte	 000002E5 _TEXT	
KEY_A_4  . . . . . . . . . . . .	Byte	 000002EC _TEXT	
KEY_B_1  . . . . . . . . . . . .	Byte	 000002F3 _TEXT	
KEY_B_2  . . . . . . . . . . . .	Byte	 000002FA _TEXT	
KEY_B_3  . . . . . . . . . . . .	Byte	 00000301 _TEXT	
KEY_B_4  . . . . . . . . . . . .	Byte	 00000308 _TEXT	
KEY_C_1  . . . . . . . . . . . .	Byte	 0000030F _TEXT	
KEY_C_2  . . . . . . . . . . . .	Byte	 00000316 _TEXT	
KEY_C_3  . . . . . . . . . . . .	Byte	 0000031D _TEXT	
KEY_C_4  . . . . . . . . . . . .	Byte	 00000324 _TEXT	
KEY_EVENT  . . . . . . . . . . .	Number	 00000001h   
KEY_MASKS  . . . . . . . . . . .	Number	 0000001Fh   
KEY_Z_1  . . . . . . . . . . . .	Byte	 0000032B _TEXT	
KEY_Z_2  . . . . . . . . . . . .	Byte	 00000332 _TEXT	
KEY_Z_3  . . . . . . . . . . . .	Byte	 00000341 _TEXT	
KEY_Z_M_1  . . . . . . . . . . .	Byte	 00000348 _TEXT	
KEY_Z_M_2  . . . . . . . . . . .	Byte	 0000034E _TEXT	
KEY_Z_M_3  . . . . . . . . . . .	Byte	 00000354 _TEXT	
LEFT_ALT_PRESSED . . . . . . . .	Number	 00000002h   
LEFT_CTRL_PRESSED  . . . . . . .	Number	 00000008h   
LastPointX . . . . . . . . . . .	Byte	 00000000 _DATA	
LastPointY . . . . . . . . . . .	Byte	 00000001 _DATA	
Loading_1  . . . . . . . . . . .	Byte	 00000812 _TEXT	
Loading_2  . . . . . . . . . . .	Byte	 00000821 _TEXT	
Loading_3  . . . . . . . . . . .	Byte	 00000830 _TEXT	
Loading_4  . . . . . . . . . . .	Byte	 0000083F _TEXT	
MAIN . . . . . . . . . . . . . .	L Near	 00005B2A _TEXT	Public STDCALL
MB_ABORTRETRYIGNORE  . . . . . .	Number	 00000002h   
MB_APPLMODAL . . . . . . . . . .	Number	 00000000h   
MB_CANCELTRYCONTINUE . . . . . .	Number	 00000006h   
MB_DEFBUTTON1  . . . . . . . . .	Number	 00000000h   
MB_DEFBUTTON2  . . . . . . . . .	Number	 00000100h   
MB_DEFBUTTON3  . . . . . . . . .	Number	 00000200h   
MB_DEFBUTTON4  . . . . . . . . .	Number	 00000300h   
MB_HELP  . . . . . . . . . . . .	Number	 00004000h   
MB_ICONASTERISK  . . . . . . . .	Number	 00000040h   
MB_ICONERROR . . . . . . . . . .	Number	 00000010h   
MB_ICONEXCLAMATION . . . . . . .	Number	 00000030h   
MB_ICONHAND  . . . . . . . . . .	Number	 00000010h   
MB_ICONINFORMATION . . . . . . .	Number	 00000040h   
MB_ICONQUESTION  . . . . . . . .	Number	 00000020h   
MB_ICONSTOP  . . . . . . . . . .	Number	 00000010h   
MB_ICONWARNING . . . . . . . . .	Number	 00000030h   
MB_OKCANCEL  . . . . . . . . . .	Number	 00000001h   
MB_OK  . . . . . . . . . . . . .	Number	 00000000h   
MB_RETRYCANCEL . . . . . . . . .	Number	 00000005h   
MB_SYSTEMMODAL . . . . . . . . .	Number	 00001000h   
MB_TASKMODAL . . . . . . . . . .	Number	 00002000h   
MB_USERICON  . . . . . . . . . .	Number	 00000080h   
MB_YESNOCANCEL . . . . . . . . .	Number	 00000003h   
MB_YESNO . . . . . . . . . . . .	Number	 00000004h   
MENU_EVENT . . . . . . . . . . .	Number	 00000008h   
MOUSE_EVENT  . . . . . . . . . .	Number	 00000002h   
MessageBox . . . . . . . . . . .	Text   	 MessageBoxA
Mod_A_Timer  . . . . . . . . . .	DWord	 00000EB5 _DATA	
Mod_B_Timer  . . . . . . . . . .	DWord	 00000EB9 _DATA	
Mod_C_Timer  . . . . . . . . . .	DWord	 00000EBD _DATA	
MoneyIncrementTimer  . . . . . .	DWord	 00000D28 _DATA	
MonsterA1_1_1  . . . . . . . . .	Byte	 00000547 _DATA	
MonsterA1_1_2  . . . . . . . . .	Byte	 0000054E _DATA	
MonsterA1_1_3  . . . . . . . . .	Byte	 00000557 _DATA	
MonsterA1_1_4  . . . . . . . . .	Byte	 0000055E _DATA	
MonsterA2_1_1  . . . . . . . . .	Byte	 00000563 _DATA	
MonsterA2_1_2  . . . . . . . . .	Byte	 00000569 _DATA	
MonsterA2_1_3  . . . . . . . . .	Byte	 00000572 _DATA	
MonsterA2_1_4  . . . . . . . . .	Byte	 0000057A _DATA	
MonsterA3_1_1  . . . . . . . . .	Byte	 00000582 _DATA	
MonsterA3_1_2  . . . . . . . . .	Byte	 0000058B _DATA	
MonsterA3_1_3  . . . . . . . . .	Byte	 00000593 _DATA	
MonsterA3_1_4  . . . . . . . . .	Byte	 0000059E _DATA	
MonsterA3_1_5  . . . . . . . . .	Byte	 000005A8 _DATA	
MonsterA3_1_6  . . . . . . . . .	Byte	 000005B1 _DATA	
MonsterB1_1_1  . . . . . . . . .	Byte	 000005B9 _DATA	
MonsterB1_1_2  . . . . . . . . .	Byte	 000005BE _DATA	
MonsterB1_1_3  . . . . . . . . .	Byte	 000005C3 _DATA	
MonsterB1_2_1  . . . . . . . . .	Byte	 000005C8 _DATA	
MonsterB1_2_2  . . . . . . . . .	Byte	 000005CD _DATA	
MonsterB1_2_3  . . . . . . . . .	Byte	 000005D2 _DATA	
MonsterB1_3_1  . . . . . . . . .	Byte	 000005D7 _DATA	
MonsterB1_3_2  . . . . . . . . .	Byte	 000005DC _DATA	
MonsterB1_3_3  . . . . . . . . .	Byte	 000005E1 _DATA	
MonsterB2_1_1  . . . . . . . . .	Byte	 000005E6 _DATA	
MonsterB2_1_2  . . . . . . . . .	Byte	 000005ED _DATA	
MonsterB2_1_3  . . . . . . . . .	Byte	 000005F4 _DATA	
MonsterB2_1_4  . . . . . . . . .	Byte	 000005FC _DATA	
MonsterB2_1_5  . . . . . . . . .	Byte	 00000603 _DATA	
MonsterB2_2_1  . . . . . . . . .	Byte	 0000060A _DATA	
MonsterB2_2_2  . . . . . . . . .	Byte	 00000611 _DATA	
MonsterB2_2_3  . . . . . . . . .	Byte	 00000619 _DATA	
MonsterB2_2_4  . . . . . . . . .	Byte	 00000620 _DATA	
MonsterB2_2_5  . . . . . . . . .	Byte	 00000627 _DATA	
MonsterB2_3_1  . . . . . . . . .	Byte	 0000062E _DATA	
MonsterB2_3_2  . . . . . . . . .	Byte	 00000636 _DATA	
MonsterB2_3_3  . . . . . . . . .	Byte	 0000063D _DATA	
MonsterB2_3_4  . . . . . . . . .	Byte	 00000644 _DATA	
MonsterB2_3_5  . . . . . . . . .	Byte	 0000064B _DATA	
MonsterB3_1_1  . . . . . . . . .	Byte	 00000652 _DATA	
MonsterB3_1_2  . . . . . . . . .	Byte	 0000065A _DATA	
MonsterB3_1_3  . . . . . . . . .	Byte	 00000662 _DATA	
MonsterB3_1_4  . . . . . . . . .	Byte	 0000066B _DATA	
MonsterB3_1_5  . . . . . . . . .	Byte	 00000673 _DATA	
MonsterB3_2_1  . . . . . . . . .	Byte	 0000067B _DATA	
MonsterB3_2_2  . . . . . . . . .	Byte	 00000683 _DATA	
MonsterB3_2_3  . . . . . . . . .	Byte	 0000068C _DATA	
MonsterB3_2_4  . . . . . . . . .	Byte	 00000694 _DATA	
MonsterB3_2_5  . . . . . . . . .	Byte	 0000069C _DATA	
MonsterB3_3_1  . . . . . . . . .	Byte	 000006A4 _DATA	
MonsterB3_3_2  . . . . . . . . .	Byte	 000006AD _DATA	
MonsterB3_3_3  . . . . . . . . .	Byte	 000006B5 _DATA	
MonsterB3_3_4  . . . . . . . . .	Byte	 000006BD _DATA	
MonsterB3_3_5  . . . . . . . . .	Byte	 000006C5 _DATA	
MonsterC1_1_1  . . . . . . . . .	Byte	 000006CD _DATA	
MonsterC1_1_2  . . . . . . . . .	Byte	 000006D6 _DATA	
MonsterC2_1_1  . . . . . . . . .	Byte	 000006DD _DATA	
MonsterC2_1_2  . . . . . . . . .	Byte	 000006E8 _DATA	
MonsterC2_1_3  . . . . . . . . .	Byte	 000006F1 _DATA	
MonsterC2_1_4  . . . . . . . . .	Byte	 000006FC _DATA	
MonsterC2_1_5  . . . . . . . . .	Byte	 00000705 _DATA	
MonsterC2_2_1  . . . . . . . . .	Byte	 0000070E _DATA	
MonsterC2_2_2  . . . . . . . . .	Byte	 00000717 _DATA	
MonsterC2_2_3  . . . . . . . . .	Byte	 00000722 _DATA	
MonsterC2_2_4  . . . . . . . . .	Byte	 0000072B _DATA	
MonsterC2_2_5  . . . . . . . . .	Byte	 00000736 _DATA	
MonsterC3_1_1  . . . . . . . . .	Byte	 0000073F _DATA	
MonsterC3_1_2  . . . . . . . . .	Byte	 0000074D _DATA	
MonsterC3_1_3  . . . . . . . . .	Byte	 0000075A _DATA	
MonsterC3_1_4  . . . . . . . . .	Byte	 0000076B _DATA	
MonsterC3_1_5  . . . . . . . . .	Byte	 0000077A _DATA	
MonsterC3_1_6  . . . . . . . . .	Byte	 00000787 _DATA	
MonsterC3_2_1  . . . . . . . . .	Byte	 00000798 _DATA	
MonsterC3_2_2  . . . . . . . . .	Byte	 000007A6 _DATA	
MonsterC3_2_3  . . . . . . . . .	Byte	 000007B3 _DATA	
MonsterC3_2_4  . . . . . . . . .	Byte	 000007C4 _DATA	
MonsterC3_2_5  . . . . . . . . .	Byte	 000007D3 _DATA	
MonsterC3_2_6  . . . . . . . . .	Byte	 000007E0 _DATA	
MonsterC3_3_1  . . . . . . . . .	Byte	 000007F1 _DATA	
MonsterC3_3_2  . . . . . . . . .	Byte	 000007FF _DATA	
MonsterC3_3_3  . . . . . . . . .	Byte	 0000080C _DATA	
MonsterC3_3_4  . . . . . . . . .	Byte	 0000081E _DATA	
MonsterC3_3_5  . . . . . . . . .	Byte	 0000082B _DATA	
MonsterC3_3_6  . . . . . . . . .	Byte	 00000838 _DATA	
MoveOnSoldiers . . . . . . . . .	Text   	 CALL MoveingSoldiers
NL . . . . . . . . . . . . . . .	Text   	 Write 0AH
NULL . . . . . . . . . . . . . .	Number	 00000000h   
NUMLOCK_ON . . . . . . . . . . .	Number	 00000020h   
NoEnoughMoney_Dialog . . . . . .	Byte	 00000282 _TEXT	
OPEN_ALWAYS  . . . . . . . . . .	Number	 00000004h   
OPEN_EXISTING  . . . . . . . . .	Number	 00000003h   
PeekConsoleInput . . . . . . . .	Text   	 PeekConsoleInputA
RIGHT_ALT_PRESSED  . . . . . . .	Number	 00000001h   
RIGHT_CTRL_PRESSED . . . . . . .	Number	 00000004h   
ReadConsoleInput . . . . . . . .	Text   	 ReadConsoleInputA
ReadConsole  . . . . . . . . . .	Text   	 ReadConsoleA
RegisterObjects  . . . . . . . .	Text   	 CALL Register
SCROLLLOCK_ON  . . . . . . . . .	Number	 00000040h   
SHIFT_MASK . . . . . . . . . . .	Number	 00000010h   
SHIFT_PRESSED  . . . . . . . . .	Number	 00000010h   
STD_ERROR_HANDLE . . . . . . . .	Number	 -0000000Ch   
STD_INPUT_HANDLE . . . . . . . .	Number	 -0000000Ah   
STD_OUTPUT_HANDLE  . . . . . . .	Number	 -0000000Bh   
SetConsoleTitle  . . . . . . . .	Text   	 SetConsoleTitleA
SetterBuffer . . . . . . . . . .	DWord	 00000CA0 _DATA	
SoldierA1_1_1  . . . . . . . . .	Byte	 00000358 _DATA	
SoldierA1_1_2  . . . . . . . . .	Byte	 0000035D _DATA	
SoldierA1_1_3  . . . . . . . . .	Byte	 00000363 _DATA	
SoldierA1_2_1  . . . . . . . . .	Byte	 00000368 _DATA	
SoldierA1_2_2  . . . . . . . . .	Byte	 0000036C _DATA	
SoldierA1_2_3  . . . . . . . . .	Byte	 00000371 _DATA	
SoldierA2_1_1  . . . . . . . . .	Byte	 00000374 _DATA	
SoldierA2_1_2  . . . . . . . . .	Byte	 00000380 _DATA	
SoldierA2_1_3  . . . . . . . . .	Byte	 0000038B _DATA	
SoldierA2_1_4  . . . . . . . . .	Byte	 00000396 _DATA	
SoldierA3_1_1  . . . . . . . . .	Byte	 000003A2 _DATA	
SoldierA3_1_2  . . . . . . . . .	Byte	 000003B2 _DATA	
SoldierA3_1_3  . . . . . . . . .	Byte	 000003C1 _DATA	
SoldierA3_1_4  . . . . . . . . .	Byte	 000003D2 _DATA	
SoldierB1_1_1  . . . . . . . . .	Byte	 000003E3 _DATA	
SoldierB1_1_2  . . . . . . . . .	Byte	 000003E8 _DATA	
SoldierB1_1_3  . . . . . . . . .	Byte	 000003ED _DATA	
SoldierB1_2_1  . . . . . . . . .	Byte	 000003F2 _DATA	
SoldierB1_2_2  . . . . . . . . .	Byte	 000003F7 _DATA	
SoldierB1_2_3  . . . . . . . . .	Byte	 000003FC _DATA	
SoldierB2_1_1  . . . . . . . . .	Byte	 00000401 _DATA	
SoldierB2_1_2  . . . . . . . . .	Byte	 00000406 _DATA	
SoldierB2_1_3  . . . . . . . . .	Byte	 0000040B _DATA	
SoldierB2_2_1  . . . . . . . . .	Byte	 00000410 _DATA	
SoldierB2_2_2  . . . . . . . . .	Byte	 00000415 _DATA	
SoldierB2_2_3  . . . . . . . . .	Byte	 0000041A _DATA	
SoldierB3_1_1  . . . . . . . . .	Byte	 0000041E _DATA	
SoldierB3_1_2  . . . . . . . . .	Byte	 00000424 _DATA	
SoldierB3_1_3  . . . . . . . . .	Byte	 0000042B _DATA	
SoldierB3_2_1  . . . . . . . . .	Byte	 00000431 _DATA	
SoldierB3_2_2  . . . . . . . . .	Byte	 00000437 _DATA	
SoldierB3_2_3  . . . . . . . . .	Byte	 0000043E _DATA	
SoldierB3_3_1  . . . . . . . . .	Byte	 00000443 _DATA	
SoldierB3_3_2  . . . . . . . . .	Byte	 00000449 _DATA	
SoldierB3_3_3  . . . . . . . . .	Byte	 00000450 _DATA	
SoldierB3_4_1  . . . . . . . . .	Byte	 00000456 _DATA	
SoldierB3_4_2  . . . . . . . . .	Byte	 0000045C _DATA	
SoldierB3_4_3  . . . . . . . . .	Byte	 00000463 _DATA	
SoldierC1_1_1  . . . . . . . . .	Byte	 00000468 _DATA	
SoldierC1_1_2  . . . . . . . . .	Byte	 00000471 _DATA	
SoldierC1_1_3  . . . . . . . . .	Byte	 0000047A _DATA	
SoldierC1_2_1  . . . . . . . . .	Byte	 00000483 _DATA	
SoldierC1_2_2  . . . . . . . . .	Byte	 0000048A _DATA	
SoldierC1_2_3  . . . . . . . . .	Byte	 00000493 _DATA	
SoldierC1_3_1  . . . . . . . . .	Byte	 0000049C _DATA	
SoldierC1_3_2  . . . . . . . . .	Byte	 000004A5 _DATA	
SoldierC1_3_3  . . . . . . . . .	Byte	 000004AE _DATA	
SoldierC1_4_1  . . . . . . . . .	Byte	 000004B7 _DATA	
SoldierC1_4_2  . . . . . . . . .	Byte	 000004C0 _DATA	
SoldierC1_4_3  . . . . . . . . .	Byte	 000004C9 _DATA	
SoldierC2_1_1  . . . . . . . . .	Byte	 000004D2 _DATA	
SoldierC2_1_2  . . . . . . . . .	Byte	 000004DD _DATA	
SoldierC2_1_3  . . . . . . . . .	Byte	 000004E6 _DATA	
SoldierC2_1_4  . . . . . . . . .	Byte	 000004F1 _DATA	
SoldierC3_1_1  . . . . . . . . .	Byte	 000004FA _DATA	
SoldierC3_1_2  . . . . . . . . .	Byte	 00000503 _DATA	
SoldierC3_1_3  . . . . . . . . .	Byte	 0000050E _DATA	
SoldierC3_1_4  . . . . . . . . .	Byte	 00000519 _DATA	
SoldierC3_1_5  . . . . . . . . .	Byte	 00000522 _DATA	
Soldier_Attack . . . . . . . . .	DWord	 00000BBD _DATA	
Soldier_Buffer . . . . . . . . .	DWord	 00000BE1 _DATA	
Soldier_HP . . . . . . . . . . .	DWord	 00000B99 _DATA	
Soldier_Money  . . . . . . . . .	DWord	 00000C05 _DATA	
StartUp_0  . . . . . . . . . . .	Byte	 0000084E _TEXT	
StartUp_10 . . . . . . . . . . .	Byte	 00000D08 _TEXT	
StartUp_11 . . . . . . . . . . .	Byte	 00000D81 _TEXT	
StartUp_12 . . . . . . . . . . .	Byte	 00000DFA _TEXT	
StartUp_13 . . . . . . . . . . .	Byte	 00000E73 _TEXT	
StartUp_14 . . . . . . . . . . .	Byte	 00000EEC _TEXT	
StartUp_15 . . . . . . . . . . .	Byte	 00000F65 _TEXT	
StartUp_16 . . . . . . . . . . .	Byte	 00000FDE _TEXT	
StartUp_17 . . . . . . . . . . .	Byte	 00001057 _TEXT	
StartUp_18 . . . . . . . . . . .	Byte	 000010D0 _TEXT	
StartUp_19 . . . . . . . . . . .	Byte	 00001149 _TEXT	
StartUp_1  . . . . . . . . . . .	Byte	 000008C7 _TEXT	
StartUp_20 . . . . . . . . . . .	Byte	 000011C2 _TEXT	
StartUp_21 . . . . . . . . . . .	Byte	 0000123B _TEXT	
StartUp_22 . . . . . . . . . . .	Byte	 000012B4 _TEXT	
StartUp_23 . . . . . . . . . . .	Byte	 0000132D _TEXT	
StartUp_24 . . . . . . . . . . .	Byte	 000013A6 _TEXT	
StartUp_25 . . . . . . . . . . .	Byte	 0000141F _TEXT	
StartUp_26 . . . . . . . . . . .	Byte	 00001498 _TEXT	
StartUp_27 . . . . . . . . . . .	Byte	 00001511 _TEXT	
StartUp_28 . . . . . . . . . . .	Byte	 0000158A _TEXT	
StartUp_29 . . . . . . . . . . .	Byte	 00001603 _TEXT	
StartUp_2  . . . . . . . . . . .	Byte	 00000940 _TEXT	
StartUp_3  . . . . . . . . . . .	Byte	 000009B9 _TEXT	
StartUp_4  . . . . . . . . . . .	Byte	 00000A32 _TEXT	
StartUp_5  . . . . . . . . . . .	Byte	 00000AAB _TEXT	
StartUp_6  . . . . . . . . . . .	Byte	 00000B24 _TEXT	
StartUp_7  . . . . . . . . . . .	Byte	 00000B9D _TEXT	
StartUp_8  . . . . . . . . . . .	Byte	 00000C16 _TEXT	
StartUp_9  . . . . . . . . . . .	Byte	 00000C8F _TEXT	
TAB  . . . . . . . . . . . . . .	Number	 00000009h   
TRUE . . . . . . . . . . . . . .	Number	 00000001h   
TRUNCATE_EXISTING  . . . . . . .	Number	 00000005h   
TableHeadBoth  . . . . . . . . .	Byte	 00000D62 _DATA	
TableHead  . . . . . . . . . . .	Byte	 00000D2C _DATA	
Timer1 . . . . . . . . . . . . .	DWord	 00000CDC _DATA	
Timer_Build_Goal . . . . . . . .	DWord	 00000CE8 _DATA	
Timer_CompBuild  . . . . . . . .	DWord	 00000CE4 _DATA	
Timer_UserBuild  . . . . . . . .	DWord	 00000CE0 _DATA	
Turrent_1_1  . . . . . . . . . .	Byte	 0000052D _DATA	
Turrent_1_2  . . . . . . . . . .	Byte	 00000533 _DATA	
Turrent_1_3  . . . . . . . . . .	Byte	 00000539 _DATA	
Turrent_1_4  . . . . . . . . . .	Byte	 0000053F _DATA	
UnderAttack_Dialog . . . . . . .	Byte	 000002A9 _TEXT	
UserATK  . . . . . . . . . . . .	DWord	 00000DB5 _DATA	
UserAttackSoldier  . . . . . . .	DWord	 00000DA5 _DATA	
UserAttackTarget . . . . . . . .	DWord	 00000DAD _DATA	
UserAttackTimer  . . . . . . . .	DWord	 00000CF0 _DATA	
UserCastleHP . . . . . . . . . .	DWord	 00000DC5 _DATA	
UserCastle_1_1 . . . . . . . . .	Byte	 00000004 _DATA	
UserCastle_1_2 . . . . . . . . .	Byte	 00000019 _DATA	
UserCastle_1_3 . . . . . . . . .	Byte	 00000031 _DATA	
UserCastle_1_4 . . . . . . . . .	Byte	 00000046 _DATA	
UserCastle_1_5 . . . . . . . . .	Byte	 0000005B _DATA	
UserCastle_2_1 . . . . . . . . .	Byte	 00000070 _DATA	
UserCastle_2_2 . . . . . . . . .	Byte	 00000083 _DATA	
UserCastle_2_3 . . . . . . . . .	Byte	 00000096 _DATA	
UserCastle_2_4 . . . . . . . . .	Byte	 000000AA _DATA	
UserCastle_2_5 . . . . . . . . .	Byte	 000000C0 _DATA	
UserCastle_2_6 . . . . . . . . .	Byte	 000000D8 _DATA	
UserCastle_2_7 . . . . . . . . .	Byte	 000000ED _DATA	
UserCastle_2_8 . . . . . . . . .	Byte	 00000104 _DATA	
UserCastle_3_1 . . . . . . . . .	Byte	 0000011B _DATA	
UserCastle_3_2 . . . . . . . . .	Byte	 0000012D _DATA	
UserCastle_3_3 . . . . . . . . .	Byte	 0000013F _DATA	
UserCastle_3_4 . . . . . . . . .	Byte	 00000154 _DATA	
UserCastle_3_5 . . . . . . . . .	Byte	 00000169 _DATA	
UserCastle_3_6 . . . . . . . . .	Byte	 00000180 _DATA	
UserCastle_3_7 . . . . . . . . .	Byte	 00000197 _DATA	
UserCastle_3_8 . . . . . . . . .	Byte	 000001AF _DATA	
UserCastle_3_9 . . . . . . . . .	Byte	 000001C7 _DATA	
UserCurrLevel  . . . . . . . . .	DWord	 00000CB0 _DATA	
UserHP . . . . . . . . . . . . .	DWord	 00000DBD _DATA	
UserLevelUpFlag  . . . . . . . .	DWord	 00000CB8 _DATA	
UserMoney  . . . . . . . . . . .	DWord	 00000C47 _DATA	
UserSoldier_Height . . . . . . .	DWord	 00000B09 _DATA	
UserSoldier_Width  . . . . . . .	DWord	 00000B2D _DATA	
UserSoldiers . . . . . . . . . .	Soldier	 00000849 _DATA	
User_BuildQueue  . . . . . . . .	DWord	 00000CF8 _DATA	
User_Curr_Soldier  . . . . . . .	DWord	 00000CA8 _DATA	
VK_11  . . . . . . . . . . . . .	Number	 000000BDh   
VK_12  . . . . . . . . . . . . .	Number	 000000BBh   
VK_ADD . . . . . . . . . . . . .	Number	 0000006Bh   
VK_BACK  . . . . . . . . . . . .	Number	 00000008h   
VK_CANCEL  . . . . . . . . . . .	Number	 00000003h   
VK_CAPITAL . . . . . . . . . . .	Number	 00000014h   
VK_CLEAR . . . . . . . . . . . .	Number	 0000000Ch   
VK_CONTROL . . . . . . . . . . .	Number	 00000011h   
VK_DECIMAL . . . . . . . . . . .	Number	 0000006Eh   
VK_DELETE  . . . . . . . . . . .	Number	 0000002Eh   
VK_DIVIDE  . . . . . . . . . . .	Number	 0000006Fh   
VK_DOWN  . . . . . . . . . . . .	Number	 00000028h   
VK_END . . . . . . . . . . . . .	Number	 00000023h   
VK_ESCAPE  . . . . . . . . . . .	Number	 0000001Bh   
VK_EXECUTE . . . . . . . . . . .	Number	 0000002Bh   
VK_F10 . . . . . . . . . . . . .	Number	 00000079h   
VK_F11 . . . . . . . . . . . . .	Number	 0000007Ah   
VK_F12 . . . . . . . . . . . . .	Number	 0000007Bh   
VK_F13 . . . . . . . . . . . . .	Number	 0000007Ch   
VK_F14 . . . . . . . . . . . . .	Number	 0000007Dh   
VK_F15 . . . . . . . . . . . . .	Number	 0000007Eh   
VK_F16 . . . . . . . . . . . . .	Number	 0000007Fh   
VK_F17 . . . . . . . . . . . . .	Number	 00000080h   
VK_F18 . . . . . . . . . . . . .	Number	 00000081h   
VK_F19 . . . . . . . . . . . . .	Number	 00000082h   
VK_F1  . . . . . . . . . . . . .	Number	 00000070h   
VK_F20 . . . . . . . . . . . . .	Number	 00000083h   
VK_F21 . . . . . . . . . . . . .	Number	 00000084h   
VK_F22 . . . . . . . . . . . . .	Number	 00000085h   
VK_F23 . . . . . . . . . . . . .	Number	 00000086h   
VK_F24 . . . . . . . . . . . . .	Number	 00000087h   
VK_F2  . . . . . . . . . . . . .	Number	 00000071h   
VK_F3  . . . . . . . . . . . . .	Number	 00000072h   
VK_F4  . . . . . . . . . . . . .	Number	 00000073h   
VK_F5  . . . . . . . . . . . . .	Number	 00000074h   
VK_F6  . . . . . . . . . . . . .	Number	 00000075h   
VK_F7  . . . . . . . . . . . . .	Number	 00000076h   
VK_F8  . . . . . . . . . . . . .	Number	 00000077h   
VK_F9  . . . . . . . . . . . . .	Number	 00000078h   
VK_HELP  . . . . . . . . . . . .	Number	 0000002Fh   
VK_HOME  . . . . . . . . . . . .	Number	 00000024h   
VK_INSERT  . . . . . . . . . . .	Number	 0000002Dh   
VK_LBUTTON . . . . . . . . . . .	Number	 00000001h   
VK_LCONTROL  . . . . . . . . . .	Number	 000000A2h   
VK_LEFT  . . . . . . . . . . . .	Number	 00000025h   
VK_LMENU . . . . . . . . . . . .	Number	 000000A4h   
VK_LSHIFT  . . . . . . . . . . .	Number	 000000A0h   
VK_MENU  . . . . . . . . . . . .	Number	 00000012h   
VK_MULTIPLY  . . . . . . . . . .	Number	 0000006Ah   
VK_NEXT  . . . . . . . . . . . .	Number	 00000022h   
VK_NUMLOCK . . . . . . . . . . .	Number	 00000090h   
VK_NUMPAD0 . . . . . . . . . . .	Number	 00000060h   
VK_NUMPAD1 . . . . . . . . . . .	Number	 00000061h   
VK_NUMPAD2 . . . . . . . . . . .	Number	 00000062h   
VK_NUMPAD3 . . . . . . . . . . .	Number	 00000063h   
VK_NUMPAD4 . . . . . . . . . . .	Number	 00000064h   
VK_NUMPAD5 . . . . . . . . . . .	Number	 00000065h   
VK_NUMPAD6 . . . . . . . . . . .	Number	 00000066h   
VK_NUMPAD7 . . . . . . . . . . .	Number	 00000067h   
VK_NUMPAD8 . . . . . . . . . . .	Number	 00000068h   
VK_NUMPAD9 . . . . . . . . . . .	Number	 00000069h   
VK_PAUSE . . . . . . . . . . . .	Number	 00000013h   
VK_PRINT . . . . . . . . . . . .	Number	 0000002Ah   
VK_PRIOR . . . . . . . . . . . .	Number	 00000021h   
VK_RBUTTON . . . . . . . . . . .	Number	 00000002h   
VK_RCONTROL  . . . . . . . . . .	Number	 000000A3h   
VK_RETURN  . . . . . . . . . . .	Number	 0000000Dh   
VK_RIGHT . . . . . . . . . . . .	Number	 00000027h   
VK_RMENU . . . . . . . . . . . .	Number	 000000A5h   
VK_RSHIFT  . . . . . . . . . . .	Number	 000000A1h   
VK_SCROLL  . . . . . . . . . . .	Number	 00000091h   
VK_SEPARATER . . . . . . . . . .	Number	 0000006Ch   
VK_SHIFT . . . . . . . . . . . .	Number	 00000010h   
VK_SNAPSHOT  . . . . . . . . . .	Number	 0000002Ch   
VK_SPACE . . . . . . . . . . . .	Number	 00000020h   
VK_SUBTRACT  . . . . . . . . . .	Number	 0000006Dh   
VK_TAB . . . . . . . . . . . . .	Number	 00000009h   
VK_UP  . . . . . . . . . . . . .	Number	 00000026h   
WINDOW_BUFFER_SIZE_EVENT . . . .	Number	 00000004h   
WaitCheckCurrID  . . . . . . . .	DWord	 00000EAD _DATA	
WriteConsoleOutputCharacter  . .	Text   	 WriteConsoleOutputCharacterA
WriteConsole . . . . . . . . . .	Text   	 WriteConsoleA
black  . . . . . . . . . . . . .	Number	 00000000h   
blue . . . . . . . . . . . . . .	Number	 00000001h   
brown  . . . . . . . . . . . . .	Number	 00000006h   
cyan . . . . . . . . . . . . . .	Number	 00000003h   
exit . . . . . . . . . . . . . .	Text   	 INVOKE ExitProcess,0
gray . . . . . . . . . . . . . .	Number	 00000008h   
green  . . . . . . . . . . . . .	Number	 00000002h   
lightBlue  . . . . . . . . . . .	Number	 00000009h   
lightCyan  . . . . . . . . . . .	Number	 0000000Bh   
lightGray  . . . . . . . . . . .	Number	 00000007h   
lightGreen . . . . . . . . . . .	Number	 0000000Ah   
lightMagenta . . . . . . . . . .	Number	 0000000Dh   
lightRed . . . . . . . . . . . .	Number	 0000000Ch   
magenta  . . . . . . . . . . . .	Number	 00000005h   
red  . . . . . . . . . . . . . .	Number	 00000004h   
white  . . . . . . . . . . . . .	Number	 0000000Fh   
wsprintf . . . . . . . . . . . .	Text   	 wsprintfA
yellow . . . . . . . . . . . . .	Number	 0000000Eh   

	   0 Warnings
	   0 Errors
